MODULE Linux x86_64 EF70C5AE6620632ACBFB95F955DFB9C90 VisualStatistics
FUNC 200d0 8d 0 add_not_list_to_class
FUNC 2015d 65 0 add_list_to_class
FUNC 201c2 48 0 emit_restore_flags
FUNC 2020a 46 0 emit_save_flags
FUNC 20250 20 0 google_breakpad::MinidumpDescriptor::MinidumpDescriptor
FUNC 20270 20 0 google_breakpad::TypedMDRVA<unsigned int>::CopyIndexAfterObject(unsigned int, void const*, unsigned long)
FUNC 20290 14 0 google_breakpad::TypedMDRVA<MDRawLinkMap64>::~TypedMDRVA
FUNC 202a4 20 0 MinidumpWriter::MinidumpWriter
FUNC 202c4 1cd 0 MinidumpWriter::WriteFile
FUNC 20492 6d 0 MinidumpWriter::WriteProcFile
FUNC 20500 20 0 google_breakpad::TypedMDRVA<MDString>::CopyIndexAfterObject(unsigned int, void const*, unsigned long)
FUNC 20520 465 0 main
FUNC 20990 95 0 _GLOBAL__sub_I_plotwindow.cpp
FUNC 20a30 27 0 _GLOBAL__sub_I_qrc_VisualStatistics.cpp
FUNC 20b60 9a 0 minidumpCallback
FUNC 20c00 37 0 QString::~QString
FUNC 20c40 a3 0 QString::toStdString
FUNC 20cf0 95 0 google_breakpad::MinidumpDescriptor::~MinidumpDescriptor
FUNC 20d90 2e 0 MainWindow::~MainWindow
FUNC 20dd0 12 0 MainWindow::~MainWindow
FUNC 20e00 5 0 MainWindow::closeEvent
FUNC 20e10 3d 0 QList<QModelIndex>::dealloc
FUNC 20e50 62 0 std::_Function_base::_Base_manager<MainWindow::parseStatisticsFileData(bool)::__lambda52>::_M_manager
FUNC 20ec0 8f 0 std::_Function_base::_Base_manager<MainWindow::on_actionCalculateTimeDuration_triggered()::__lambda71>::_M_manager
FUNC 20f50 34 0 QMapNode<int, QtPrivate::ResultItem>::destroySubTree
FUNC 20f90 34 0 QMapNode<double, QCPData>::destroySubTree
FUNC 20fd0 4b 0 QtPrivate::QFunctorSlotObject<MainWindow::parseStatisticsFileData(bool)::__lambda55, 0, QtPrivate::List<>, void>::impl
FUNC 21020 4b 0 QtPrivate::QFunctorSlotObject<MainWindow::on_actionCalculateTimeDuration_triggered()::__lambda80, 0, QtPrivate::List<>, void>::impl
FUNC 21070 6f 0 QtConcurrent::ReduceKernel<std::function<void(MainWindow::StatisticsResult&, const MainWindow::StatisticsResult&)>, MainWindow::StatisticsResult, MainWindow::StatisticsResult>::reduceResult
FUNC 210e0 97 0 QVector<std::basic_string<char, std::char_traits<char>, std::allocator<char> > >::freeData
FUNC 21180 214 0 QtConcurrent::StoredFunctorCall0<std::basic_string<char, std::char_traits<char>, std::allocator<char> >, MainWindow::parseStatisticsFileHeader(const QVector<QString>&, bool)::__lambda42>::~StoredFunctorCall0
FUNC 213b0 214 0 QtConcurrent::StoredFunctorCall0<std::basic_string<char, std::char_traits<char>, std::allocator<char> >, MainWindow::parseStatisticsFileHeader(const QVector<QString>&, bool)::__lambda42>::~StoredFunctorCall0
FUNC 215e0 64 0 MainWindow::updateFilterPattern
FUNC 21650 cc 0 MainWindow::listViewDoubleClicked
FUNC 21720 d9 0 MainWindow::logEditContextMenuRequest
FUNC 21800 15b 0 MainWindow::listViewContextMenuRequest
FUNC 22330 11 0 std::_Function_handler<QString(const QString&), MainWindow::on_actionCalculateTimeDuration_triggered()::__lambda71>::_M_invoke
FUNC 22350 3d 0 QList<QString>::dealloc
FUNC 22390 47 0 QVector<QString>::freeData
FUNC 223e0 bed 0 QtConcurrent::StoredFunctorCall0<std::basic_string<char, std::char_traits<char>, std::allocator<char> >, MainWindow::parseStatisticsFileHeader(const QVector<QString>&, bool)::__lambda42>::runFunctor
FUNC 22fd0 21 0 ProgressBar::increaseValue
FUNC 23000 14c 0 MainWindow::getStatisticsFileNode
FUNC 23150 27 0 MainWindow::isToolTipEventOfToolButton
FUNC 23180 32 0 MainWindow::eventFilter
FUNC 231c0 c3 0 MainWindow::statisticsFileAlreadyAdded
FUNC 23290 14b 0 MainWindow::checkStatisticsFileNode
FUNC 233e0 14b 0 MainWindow::checkStatisticsFileType
FUNC 23530 84 0 MainWindow::appendLogInfo
FUNC 235c0 84 0 MainWindow::appendLogWarn
FUNC 23650 84 0 MainWindow::appendLogError
FUNC 236e0 10 0 MainWindow::clearLogEdit
FUNC 236f0 6f 0 MainWindow::on_actionCloseAll_triggered
FUNC 23760 c9 0 MainWindow::on_actionSelectAll_triggered
FUNC 23830 ca 0 MainWindow::on_actionClearSelection_triggered
FUNC 23900 fc 0 MainWindow::on_actionInvertSelection_triggered
FUNC 23a00 138 0 MainWindow::on_actionViewHelp_triggered
FUNC 23b40 203 0 MainWindow::installEventFilterForAllToolButton
FUNC 23d50 2a9 0 MainWindow::handleTimeDurationResult
FUNC 24000 51d 0 MainWindow::MainWindow
FUNC 24520 5d9 0 MainWindow::addStatisticsFiles
FUNC 24b00 184 0 std::_Function_base::_Base_manager<MainWindow::parseStatisticsFileData(bool)::__lambda51>::_M_manager
FUNC 24c90 e0 0 QVector<MainWindow::StatisticsResult>::freeData
FUNC 24d70 208 0 MainWindow::copyStatisticsNames
FUNC 24f80 207 0 std::_Function_handler<void(MainWindow::StatisticsResult&, const MainWindow::StatisticsResult&), MainWindow::parseStatisticsFileData(bool)::__lambda52>::_M_invoke
FUNC 25190 bbb 0 std::_Function_handler<MainWindow::StatisticsResult(const QString&), MainWindow::parseStatisticsFileData(bool)::__lambda51>::_M_invoke
FUNC 25d50 473 0 MainWindow::handleStatisticsResult
FUNC 261d0 1ca 0 MainWindow::dragEnterEvent
FUNC 263a0 a8 0 MainWindow::showInfoMsgBox
FUNC 26450 10c2 0 MainWindow::parseStatisticsFileData
FUNC 27520 7 0 MainWindow::on_actionDrawPlot_triggered
FUNC 27530 a 0 MainWindow::on_actionDrawPlotInMultipleWindows_triggered
FUNC 27540 719 0 MainWindow::on_actionCalculateTimeDuration_triggered
FUNC 27c60 a8 0 MainWindow::showErrorMsgBox
FUNC 27d10 598 0 MainWindow::parseStatisticsFileHeader
FUNC 282b0 182 0 MainWindow::dropEvent
FUNC 28440 1a5 0 MainWindow::on_actionAdd_triggered
FUNC 285f0 606 0 MainWindow::on_actionOpenPlotFile_triggered
FUNC 28c00 e9 0 MainWindow::on_actionAbout_triggered
FUNC 28cf0 f 0 QRunnable::~QRunnable
FUNC 28d00 2 0 QtConcurrent::ThreadEngineBase::start
FUNC 28d10 2 0 QtConcurrent::ThreadEngineBase::finish
FUNC 28d20 6 0 QtConcurrent::ThreadEngineBase::threadFunction
FUNC 28d30 3 0 QtConcurrent::ThreadEngine<QString>::result
FUNC 28d40 50 0 QtConcurrent::MappedEachKernel<const QString*, std::function<QString(const QString&)> >::runIterations
FUNC 28d90 3 0 QtConcurrent::IterateKernel<const QString*, QString>::runIteration
FUNC 28da0 3 0 QtConcurrent::IterateKernel<const QString*, QString>::runIterations
FUNC 28db0 5 0 QtConcurrent::MappedReducedKernel<MainWindow::StatisticsResult, const QString*, std::function<MainWindow::StatisticsResult(const QString&)>, std::function<void(MainWindow::StatisticsResult&, const MainWindow::StatisticsResult&)>, QtConcurrent::ReduceKernel<std::function<void(MainWindow::StatisticsResult&, const MainWindow::StatisticsResult&)>, MainWindow::StatisticsResult, MainWindow::StatisticsResult> >::result
FUNC 28dc0 3 0 QtConcurrent::ThreadEngine<MainWindow::StatisticsResult>::result
FUNC 28dd0 3 0 QtConcurrent::IterateKernel<const QString*, MainWindow::StatisticsResult>::runIteration
FUNC 28de0 3 0 QtConcurrent::IterateKernel<const QString*, MainWindow::StatisticsResult>::runIterations
FUNC 28df0 2 0 QtConcurrent::RunFunctionTaskBase<std::basic_string<char, std::char_traits<char>, std::allocator<char> > >::run
FUNC 28e10 5 0 QFutureWatcher<QString>::futureInterface
FUNC 28e20 5 0 QFutureWatcher<QString>::futureInterface
FUNC 28e30 5 0 QFutureWatcher<MainWindow::StatisticsResult>::futureInterface
FUNC 28e40 5 0 QFutureWatcher<MainWindow::StatisticsResult>::futureInterface
FUNC 28e50 13 0 QRunnable::~QRunnable
FUNC 28e70 20 0 QtConcurrent::ThreadEngineBase::shouldStartThread
FUNC 28e90 13 0 QtConcurrent::ThreadEngineBase::shouldThrottleThread
FUNC 28eb0 21 0 QtConcurrent::ThreadEngine<MainWindow::StatisticsResult>::~ThreadEngine
FUNC 28ef0 2e 0 QtConcurrent::ThreadEngine<MainWindow::StatisticsResult>::~ThreadEngine
FUNC 28f30 21 0 QtConcurrent::ThreadEngine<QString>::~ThreadEngine
FUNC 28f70 2e 0 QtConcurrent::ThreadEngine<QString>::~ThreadEngine
FUNC 28fb0 1e 0 QtConcurrent::IterateKernel<const QString*, MainWindow::StatisticsResult>::~IterateKernel
FUNC 28fe0 2b 0 QtConcurrent::IterateKernel<const QString*, MainWindow::StatisticsResult>::~IterateKernel
FUNC 29020 1e 0 QtConcurrent::IterateKernel<const QString*, QString>::~IterateKernel
FUNC 29050 2b 0 QtConcurrent::IterateKernel<const QString*, QString>::~IterateKernel
FUNC 29090 52 0 QtConcurrent::MappedEachKernel<const QString*, std::function<QString(const QString&)> >::~MappedEachKernel
FUNC 29100 32 0 QtConcurrent::IterateKernel<const QString*, QString>::start
FUNC 29150 32 0 QtConcurrent::IterateKernel<const QString*, MainWindow::StatisticsResult>::start
FUNC 291a0 41 0 QtConcurrent::IterateKernel<const QString*, QString>::shouldStartThread
FUNC 29200 54 0 QtConcurrent::MappedReducedKernel<MainWindow::StatisticsResult, const QString*, std::function<MainWindow::StatisticsResult(const QString&)>, std::function<void(MainWindow::StatisticsResult&, const MainWindow::StatisticsResult&)>, QtConcurrent::ReduceKernel<std::function<void(MainWindow::StatisticsResult&, const MainWindow::StatisticsResult&)>, MainWindow::StatisticsResult, MainWindow::StatisticsResult> >::shouldStartThread
FUNC 29270 76 0 QtPrivate::QSlotObject<void (MainWindow::*)(), QtPrivate::List<>, void>::impl
FUNC 292f0 76 0 QtPrivate::QSlotObject<void (MainWindow::*)(const QModelIndex&), QtPrivate::List<const QModelIndex&>, void>::impl
FUNC 29370 76 0 QtPrivate::QSlotObject<void (MainWindow::*)(const QPoint&), QtPrivate::List<const QPoint&>, void>::impl
FUNC 293f0 41 0 QtConcurrent::MappedReducedKernel<MainWindow::StatisticsResult, const QString*, std::function<MainWindow::StatisticsResult(const QString&)>, std::function<void(MainWindow::StatisticsResult&, const MainWindow::StatisticsResult&)>, QtConcurrent::ReduceKernel<std::function<void(MainWindow::StatisticsResult&, const MainWindow::StatisticsResult&)>, MainWindow::StatisticsResult, MainWindow::StatisticsResult> >::shouldThrottleThread
FUNC 29450 41 0 QtConcurrent::IterateKernel<const QString*, MainWindow::StatisticsResult>::shouldStartThread
FUNC 294b0 5a 0 QtConcurrent::MappedEachKernel<const QString*, std::function<QString(const QString&)> >::~MappedEachKernel
FUNC 29520 19b 0 QFutureInterface<std::basic_string<char, std::char_traits<char>, std::allocator<char> > >::~QFutureInterface
FUNC 296c0 1ab 0 QtConcurrent::RunFunctionTaskBase<std::basic_string<char, std::char_traits<char>, std::allocator<char> > >::~RunFunctionTaskBase
FUNC 29880 214 0 QtConcurrent::RunFunctionTask<std::basic_string<char, std::char_traits<char>, std::allocator<char> > >::~RunFunctionTask
FUNC 29ab0 19b 0 QFutureInterface<std::basic_string<char, std::char_traits<char>, std::allocator<char> > >::~QFutureInterface
FUNC 29c50 1ab 0 QtConcurrent::RunFunctionTaskBase<std::basic_string<char, std::char_traits<char>, std::allocator<char> > >::~RunFunctionTaskBase
FUNC 29e10 214 0 QtConcurrent::RunFunctionTask<std::basic_string<char, std::char_traits<char>, std::allocator<char> > >::~RunFunctionTask
FUNC 2a040 1a6 0 QtConcurrent::ThreadEngine<QString>::asynchronousFinish
FUNC 2a200 37 0 QByteArray::~QByteArray
FUNC 2a240 37 0 QString::fromUtf8
FUNC 2a280 96 0 QtConcurrent::SequenceHolder1<QVector<QString>, QtConcurrent::MappedEachKernel<const QString*, std::function<QString(const QString&)> >, std::function<QString(const QString&)> >::~SequenceHolder1
FUNC 2a330 96 0 QtConcurrent::SequenceHolder1<QVector<QString>, QtConcurrent::MappedEachKernel<const QString*, std::function<QString(const QString&)> >, std::function<QString(const QString&)> >::~SequenceHolder1
FUNC 2a3e0 47 0 QtConcurrent::MappedEachKernel<const QString*, std::function<QString(const QString&)> >::runIteration
FUNC 2a430 14b 0 QFutureInterface<QString>::~QFutureInterface
FUNC 2a580 14b 0 QFutureInterface<QString>::~QFutureInterface
FUNC 2a6d0 17b 0 QFutureWatcher<QString>::~QFutureWatcher
FUNC 2a850 17b 0 QFutureWatcher<QString>::~QFutureWatcher
FUNC 2a9d0 9c 0 operator+
FUNC 2aa70 2a 0 QMutexLocker::relock
FUNC 2aaa0 c05 0 Ui_MainWindow::retranslateUi
FUNC 2b6b0 12bd 0 Ui_MainWindow::setupUi
FUNC 2c970 32 0 QList<QString>::~QList
FUNC 2c9b0 1c2 0 QList<QString>::append
FUNC 2cb80 37 0 QVector<int>::~QVector
FUNC 2cbc0 37 0 QVector<double>::~QVector
FUNC 2cc00 120 0 QVector<QString>::QVector
FUNC 2cd20 32 0 QVector<QString>::~QVector
FUNC 2cd60 188 0 QtConcurrent::SequenceHolder1<QVector<QString>, QtConcurrent::MappedEachKernel<const QString*, std::function<QString(const QString&)> >, std::function<QString(const QString&)> >::finish
FUNC 2cf00 32 0 QList<int>::~QList
FUNC 2cf40 32 0 QList<QObject*>::~QList
FUNC 2cf80 37 0 QVector<QListWidgetItem*>::~QVector
FUNC 2cfc0 32 0 QList<QModelIndex>::~QList
FUNC 2d000 59 0 std::function<MainWindow::StatisticsResult(const QString&)>::function
FUNC 2d060 59 0 std::function<void(MainWindow::StatisticsResult&, const MainWindow::StatisticsResult&)>::function
FUNC 2d0c0 6c 0 QList<QUrl>::~QList
FUNC 2d130 32 0 QList<QListWidgetItem*>::~QList
FUNC 2d170 59 0 std::function<QString(const QString&)>::function
FUNC 2d1d0 325 0 QtConcurrent::mapped<QVector<QString>, std::function<QString(const QString&)> >
FUNC 2d500 22f 0 std::vector<std::basic_string<char, std::char_traits<char>, std::allocator<char> >, std::allocator<std::basic_string<char, std::char_traits<char>, std::allocator<char> > > >::_M_default_append
FUNC 2d730 94 0 QList<int>::reserve
FUNC 2d7d0 64 0 QMap<double, QCPData>::~QMap
FUNC 2d840 d6 0 QMapNode<int, QString>::copy
FUNC 2d920 76 0 QMap<int, QString>::QMap
FUNC 2d9a0 f4 0 QList<int>::detach_helper_grow
FUNC 2daa0 64 0 QList<int>::append
FUNC 2db10 31b 0 QVector<QString>::reallocData
FUNC 2de30 115 0 QVector<QString>::append
FUNC 2df50 1bb 0 QVector<QListWidgetItem*>::reallocData
FUNC 2e110 94 0 QVector<QListWidgetItem*>::append
FUNC 2e1b0 43 0 QVector<QListWidgetItem*>::detach
FUNC 2e200 2a 0 QMapNode<int, QString>::destroySubTree
FUNC 2e230 52 0 QMap<int, QString>::~QMap
FUNC 2e290 96 0 QMap<int, QString>::detach_helper
FUNC 2e330 d0 0 QMap<int, QString>::insert
FUNC 2e400 8d 0 QMapNode<QString, QMap<double, QCPData> >::destroySubTree
FUNC 2e490 52 0 QMap<QString, QMap<double, QCPData> >::~QMap
FUNC 2e4f0 1ed 0 QFutureInterface<MainWindow::StatisticsResult>::~QFutureInterface
FUNC 2e6e0 1db 0 QFutureInterface<MainWindow::StatisticsResult>::~QFutureInterface
FUNC 2e8c0 218 0 QFutureWatcher<MainWindow::StatisticsResult>::~QFutureWatcher
FUNC 2eae0 218 0 QFutureWatcher<MainWindow::StatisticsResult>::~QFutureWatcher
FUNC 2ed00 1ac 0 QtPrivate::ResultStore<MainWindow::StatisticsResult>::clear
FUNC 2eeb0 106 0 QtPrivate::ResultStore<QString>::clear
FUNC 2efc0 1bb 0 QVector<int>::reallocData
FUNC 2f180 28a 0 operator>><int>
FUNC 2f410 122 0 QList<QModelIndex>::detach_helper
FUNC 2f540 12 0 QList<QModelIndex>::detach
FUNC 2f560 e6 0 QMapNode<double, QCPData>::copy
FUNC 2f650 a6 0 QMap<double, QCPData>::detach_helper
FUNC 2f700 d8 0 QMap<double, QCPData>::insert
FUNC 2f7e0 1c9 0 operator>><double, QCPData>
FUNC 2f9b0 115 0 QMapData<QString, QMap<double, QCPData> >::createNode
FUNC 2fad0 191 0 QMapNode<QString, QMap<double, QCPData> >::copy
FUNC 2fc70 96 0 QMap<QString, QMap<double, QCPData> >::detach_helper
FUNC 2fd10 1a7 0 QMap<QString, QMap<double, QCPData> >::insert
FUNC 2fec0 d3 0 QMap<QString, QMap<double, QCPData> >::operator[]
FUNC 2ffa0 222 0 operator>><QString, QMap<double, QCPData> >
FUNC 301d0 32 0 QVector<MainWindow::StatisticsResult>::~QVector
FUNC 30210 12c 0 QList<QUrl>::detach_helper
FUNC 30340 52 0 QMapNode<int, QtConcurrent::IntermediateResults<MainWindow::StatisticsResult> >::destroySubTree
FUNC 303a0 52 0 QMap<int, QtConcurrent::IntermediateResults<MainWindow::StatisticsResult> >::~QMap
FUNC 30400 179 0 QtConcurrent::MappedReducedKernel<MainWindow::StatisticsResult, const QString*, std::function<MainWindow::StatisticsResult(const QString&)>, std::function<void(MainWindow::StatisticsResult&, const MainWindow::StatisticsResult&)>, QtConcurrent::ReduceKernel<std::function<void(MainWindow::StatisticsResult&, const MainWindow::StatisticsResult&)>, MainWindow::StatisticsResult, MainWindow::StatisticsResult> >::~MappedReducedKernel
FUNC 30590 16d 0 QtConcurrent::MappedReducedKernel<MainWindow::StatisticsResult, const QString*, std::function<MainWindow::StatisticsResult(const QString&)>, std::function<void(MainWindow::StatisticsResult&, const MainWindow::StatisticsResult&)>, QtConcurrent::ReduceKernel<std::function<void(MainWindow::StatisticsResult&, const MainWindow::StatisticsResult&)>, MainWindow::StatisticsResult, MainWindow::StatisticsResult> >::~MappedReducedKernel
FUNC 30700 522 0 QtConcurrent::mappedReduced<MainWindow::StatisticsResult, QVector<QString>, std::function<MainWindow::StatisticsResult(const QString&)>, std::function<void(MainWindow::StatisticsResult&, const MainWindow::StatisticsResult&)> >
FUNC 30c30 1d9 0 QtConcurrent::SequenceHolder2<QVector<QString>, QtConcurrent::MappedReducedKernel<MainWindow::StatisticsResult, const QString*, std::function<MainWindow::StatisticsResult(const QString&)>, std::function<void(MainWindow::StatisticsResult&, const MainWindow::StatisticsResult&)>, QtConcurrent::ReduceKernel<std::function<void(MainWindow::StatisticsResult&, const MainWindow::StatisticsResult&)>, MainWindow::StatisticsResult, MainWindow::StatisticsResult> >, std::function<MainWindow::StatisticsResult(const QString&)>, std::function<void(MainWindow::StatisticsResult&, const MainWindow::StatisticsResult&)> >::~SequenceHolder2
FUNC 30e20 1d9 0 QtConcurrent::SequenceHolder2<QVector<QString>, QtConcurrent::MappedReducedKernel<MainWindow::StatisticsResult, const QString*, std::function<MainWindow::StatisticsResult(const QString&)>, std::function<void(MainWindow::StatisticsResult&, const MainWindow::StatisticsResult&)>, QtConcurrent::ReduceKernel<std::function<void(MainWindow::StatisticsResult&, const MainWindow::StatisticsResult&)>, MainWindow::StatisticsResult, MainWindow::StatisticsResult> >, std::function<MainWindow::StatisticsResult(const QString&)>, std::function<void(MainWindow::StatisticsResult&, const MainWindow::StatisticsResult&)> >::~SequenceHolder2
FUNC 31010 181 0 QtConcurrent::MappedReducedKernel<MainWindow::StatisticsResult, const QString*, std::function<MainWindow::StatisticsResult(const QString&)>, std::function<void(MainWindow::StatisticsResult&, const MainWindow::StatisticsResult&)>, QtConcurrent::ReduceKernel<std::function<void(MainWindow::StatisticsResult&, const MainWindow::StatisticsResult&)>, MainWindow::StatisticsResult, MainWindow::StatisticsResult> >::~MappedReducedKernel
FUNC 311b0 18b 0 QFutureInterface<QString>::reportResult
FUNC 31340 299 0 QFutureInterface<MainWindow::StatisticsResult>::reportResult
FUNC 315e0 70 0 QtConcurrent::ThreadEngine<MainWindow::StatisticsResult>::asynchronousFinish
FUNC 31660 427 0 QVector<MainWindow::StatisticsResult>::reallocData
FUNC 31a90 352 0 QVector<MainWindow::StatisticsResult>::append
FUNC 31df0 197 0 QFutureInterface<std::basic_string<char, std::char_traits<char>, std::allocator<char> > >::reportResult
FUNC 31f90 205 0 QtConcurrent::RunFunctionTask<std::basic_string<char, std::char_traits<char>, std::allocator<char> > >::run
FUNC 321b0 3a 0 QVector<QString>::resize
FUNC 321f0 3a 0 QVector<MainWindow::StatisticsResult>::resize
FUNC 32230 1f1 0 QFutureInterface<QString>::reportResults
FUNC 32430 416 0 QtConcurrent::IterateKernel<const QString*, QString>::whileThreadFunction
FUNC 32850 2c9 0 QtConcurrent::IterateKernel<const QString*, QString>::threadFunction
FUNC 32b30 204 0 QVector<MainWindow::StatisticsResult>::QVector
FUNC 32d40 a0 0 QMapData<int, QtConcurrent::IntermediateResults<MainWindow::StatisticsResult> >::createNode
FUNC 32de0 113 0 QMapNode<int, QtConcurrent::IntermediateResults<MainWindow::StatisticsResult> >::copy
FUNC 32f00 96 0 QMap<int, QtConcurrent::IntermediateResults<MainWindow::StatisticsResult> >::detach_helper
FUNC 32fa0 149 0 QMap<int, QtConcurrent::IntermediateResults<MainWindow::StatisticsResult> >::erase
FUNC 330f0 ef 0 QtConcurrent::MappedReducedKernel<MainWindow::StatisticsResult, const QString*, std::function<MainWindow::StatisticsResult(const QString&)>, std::function<void(MainWindow::StatisticsResult&, const MainWindow::StatisticsResult&)>, QtConcurrent::ReduceKernel<std::function<void(MainWindow::StatisticsResult&, const MainWindow::StatisticsResult&)>, MainWindow::StatisticsResult, MainWindow::StatisticsResult> >::finish
FUNC 331f0 188 0 QtConcurrent::SequenceHolder2<QVector<QString>, QtConcurrent::MappedReducedKernel<MainWindow::StatisticsResult, const QString*, std::function<MainWindow::StatisticsResult(const QString&)>, std::function<void(MainWindow::StatisticsResult&, const MainWindow::StatisticsResult&)>, QtConcurrent::ReduceKernel<std::function<void(MainWindow::StatisticsResult&, const MainWindow::StatisticsResult&)>, MainWindow::StatisticsResult, MainWindow::StatisticsResult> >, std::function<MainWindow::StatisticsResult(const QString&)>, std::function<void(MainWindow::StatisticsResult&, const MainWindow::StatisticsResult&)> >::finish
FUNC 33390 626 0 QtConcurrent::ReduceKernel<std::function<void(MainWindow::StatisticsResult&, const MainWindow::StatisticsResult&)>, MainWindow::StatisticsResult, MainWindow::StatisticsResult>::runReduce
FUNC 339c0 15d 0 QtConcurrent::MappedReducedKernel<MainWindow::StatisticsResult, const QString*, std::function<MainWindow::StatisticsResult(const QString&)>, std::function<void(MainWindow::StatisticsResult&, const MainWindow::StatisticsResult&)>, QtConcurrent::ReduceKernel<std::function<void(MainWindow::StatisticsResult&, const MainWindow::StatisticsResult&)>, MainWindow::StatisticsResult, MainWindow::StatisticsResult> >::runIteration
FUNC 33b20 1d5 0 QtConcurrent::MappedReducedKernel<MainWindow::StatisticsResult, const QString*, std::function<MainWindow::StatisticsResult(const QString&)>, std::function<void(MainWindow::StatisticsResult&, const MainWindow::StatisticsResult&)>, QtConcurrent::ReduceKernel<std::function<void(MainWindow::StatisticsResult&, const MainWindow::StatisticsResult&)>, MainWindow::StatisticsResult, MainWindow::StatisticsResult> >::runIterations
FUNC 33d00 1f1 0 QFutureInterface<MainWindow::StatisticsResult>::reportResults
FUNC 33f00 545 0 QtConcurrent::IterateKernel<const QString*, MainWindow::StatisticsResult>::whileThreadFunction
FUNC 34450 2c9 0 QtConcurrent::IterateKernel<const QString*, MainWindow::StatisticsResult>::threadFunction
FUNC 34730 60 0 PlotWindow::mousePress
FUNC 34790 60 0 PlotWindow::mouseWheel
FUNC 347f0 34 0 QMapNode<double, QCPData>::destroySubTree
FUNC 34830 171 0 PlotWindow::selectionChanged
FUNC 349b0 76 0 QVector<QString>::freeData
FUNC 34a30 4fd 0 PlotWindow::contextMenuRequest
FUNC 34f30 6 0 PlotWindow::predefinedColorCount
FUNC 34f40 75 0 PlotWindow::adjustYAxisRange
FUNC 34fc0 ac 0 PlotWindow::moveLegend
FUNC 35070 15 0 PlotWindow::on_actionFullScreen_toggled
FUNC 35090 34c 0 PlotWindow::on_actionSaveAsImage_triggered
FUNC 353e0 2e 0 PlotWindow::on_actionRestoreScale_triggered
FUNC 35410 f6 0 PlotWindow::~PlotWindow
FUNC 35520 12 0 PlotWindow::~PlotWindow
FUNC 35550 3f2 0 PlotWindow::PlotWindow
FUNC 35950 a4 0 PlotWindow::findAbnormalTimeIndex
FUNC 35a00 272 0 PlotWindow::toDateTimeChanged
FUNC 35c80 2fc 0 PlotWindow::fromDateTimeChanged
FUNC 35f80 230 0 PlotWindow::markAbnormalTime
FUNC 361b0 35f 0 PlotWindow::xAxisRangeChanged
FUNC 36510 119 0 PlotWindow::calcTickVector
FUNC 36630 182 0 PlotWindow::calcTickLabelVector
FUNC 367c0 16c 0 PlotWindow::adjustTicks
FUNC 36930 105 0 PlotWindow::calcDelta
FUNC 36a40 394 0 PlotWindow::on_actionShowDelta_toggled
FUNC 36de0 582 0 PlotWindow::convertResultRestData
FUNC 37370 56a 0 PlotWindow::convertResultFirstData
FUNC 378e0 632 0 PlotWindow::initializePlot
FUNC 37f20 51 0 PlotWindow::PlotWindow
FUNC 37f80 24a 0 PlotWindow::PlotWindow
FUNC 381d0 fc 0 PlotWindow::on_actionMarkAbnormalTime_toggled
FUNC 382d0 5f2 0 PlotWindow::on_actionSaveToFile_triggered
FUNC 388d0 76 0 QtPrivate::QSlotObject<void (PlotWindow::*)(), QtPrivate::List<>, void>::impl
FUNC 38950 76 0 QtPrivate::QSlotObject<void (PlotWindow::*)(QMouseEvent*), QtPrivate::List<QMouseEvent*>, void>::impl
FUNC 389d0 76 0 QtPrivate::QSlotObject<void (PlotWindow::*)(QWheelEvent*), QtPrivate::List<QWheelEvent*>, void>::impl
FUNC 38a50 76 0 QtPrivate::QSlotObject<void (PlotWindow::*)(const QPoint&), QtPrivate::List<const QPoint&>, void>::impl
FUNC 38ad0 140d 0 Ui_PlotWindow::setupUi
FUNC 39ee0 ca 0 operator<< <QString, QMap<double, QCPData> >
FUNC 39fb0 87 0 QVector<int>::append
FUNC 3a040 1bb 0 QVector<double>::reallocData
FUNC 3a200 a2 0 QVector<double>::append
FUNC 3a2b0 9 0 QCPLayerable::selectTest
FUNC 3a2c0 2 0 QCPLayerable::parentPlotInitialized
FUNC 3a2d0 6 0 QCPLayerable::selectionCategory
FUNC 3a2e0 2 0 QCPLayerable::selectEvent
FUNC 3a2f0 2 0 QCPLayerable::deselectEvent
FUNC 3a300 5 0 QCPLayoutElement::minimumSizeHint
FUNC 3a310 5 0 QCPLayoutElement::maximumSizeHint
FUNC 3a320 e 0 QCPLayoutElement::elements
FUNC 3a330 9c 0 QCPLayoutElement::calculateAutoMargin
FUNC 3a3d0 2 0 QCPLayout::simplify
FUNC 3a3e0 2 0 QCPLayout::updateLayout
FUNC 3a3f0 e 0 QCPLayoutInset::elementCount
FUNC 3a400 28 0 QCPLayoutInset::elementAt
FUNC 3a430 6 0 QCPAxis::selectionCategory
FUNC 3a440 6 0 QCPAbstractPlottable::selectionCategory
FUNC 3a450 6 0 QCPAbstractItem::selectionCategory
FUNC 3a460 16 0 QCustomPlot::minimumSizeHint
FUNC 3a480 16 0 QCustomPlot::sizeHint
FUNC 3a4a0 5a 0 QCustomPlot::axisRemoved
FUNC 3a500 19 0 QCustomPlot::legendRemoved
FUNC 3a520 9 0 QCPAbstractLegendItem::clipRect
FUNC 3a530 6 0 QCPLegend::selectionCategory
FUNC 3a540 6 0 QCPAbstractLegendItem::selectionCategory
FUNC 3a550 2 0 QCPLegend::parentPlotInitialized
FUNC 3a560 17 0 QCPGraph::getKeyRange
FUNC 3a580 17 0 QCPGraph::getValueRange
FUNC 3a5a0 12e 0 QCPAxis::calculateAutoSubTickCount
FUNC 3a6d0 b2 0 QCPPlotTitle::minimumSizeHint
FUNC 3a790 a1 0 QCPPlotTitle::maximumSizeHint
FUNC 3a840 181 0 QCPAxisPainterPrivate::size
FUNC 3a9d0 255 0 QCPItemEllipse::selectTest
FUNC 3ac30 ae 0 QCPAbstractPlottable::clipRect
FUNC 3ace0 60 0 QCustomPlot::paintEvent
FUNC 3ad40 32 0 QCPLayerable::clipRect
FUNC 3ad80 3f 0 QCPAbstractItem::clipRect
FUNC 3adc0 34 0 QMapNode<double, QColor>::destroySubTree
FUNC 3ae00 3d 0 QList<QCP::MarginSide>::dealloc
FUNC 3ae40 3d 0 QList<QCPLayoutInset::InsetPlacement>::dealloc
FUNC 3ae80 3d 0 QList<QRectF>::dealloc
FUNC 3aec0 3d 0 QList<QLineF>::dealloc
FUNC 3af00 3d 0 QList<QCPAxis::AxisType>::dealloc
FUNC 3af40 34 0 QMapNode<double, QCPData>::destroySubTree
FUNC 3af80 34 0 QMapNode<double, QCPCurveData>::destroySubTree
FUNC 3afc0 3d 0 QList<QPointF>::dealloc
FUNC 3b000 34 0 QMapNode<double, QCPBarData>::destroySubTree
FUNC 3b040 34 0 QMapNode<double, QCPFinancialData>::destroySubTree
FUNC 3b080 27c 0 QCPAxisPainterPrivate::drawTickLabel
FUNC 3b300 6ba 0 QCPAxisPainterPrivate::getTickLabelDrawOffset
FUNC 3b9c0 6f 0 QCPBars::clearData
FUNC 3ba30 6f 0 QCPCurve::clearData
FUNC 3baa0 6f 0 QCPFinancial::clearData
FUNC 3bb10 6f 0 QCPGraph::clearData
FUNC 3bb80 a6 0 QList<QPolygonF>::dealloc
FUNC 3bc30 e7 0 QCPPlotTitle::selectTest
FUNC 3bd20 16f 0 QCPAxisRect::mousePressEvent
FUNC 3be90 ff 0 QCPAbstractLegendItem::selectTest
FUNC 3bf90 76 0 QVector<QString>::freeData
FUNC 3c010 519 0 QCPAxisPainterPrivate::generateLabelParameterHash
FUNC 3c530 1bc 0 QCPAbstractItem::anchorPixelPoint
FUNC 3c6f0 11a 0 QCPLayoutElement::selectTest
FUNC 3c810 152 0 QCPLayoutGrid::take
FUNC 3c970 152 0 QCPLayoutInset::take
FUNC 3cad0 270 0 QCPItemAnchor::pixelPoint
FUNC 3cd40 23f 0 QCPItemRect::anchorPixelPoint
FUNC 3cf80 30f 0 QCPItemEllipse::anchorPixelPoint
FUNC 3d290 33f 0 QCPItemBracket::anchorPixelPoint
FUNC 3d5d0 b9 0 QCPColorScale::mousePressEvent
FUNC 3d690 b9 0 QCPColorScale::mouseMoveEvent
FUNC 3d750 b1 0 QCPColorScale::mouseReleaseEvent
FUNC 3d810 b1 0 QCPColorScale::wheelEvent
FUNC 3d8d0 2bc 0 QCPLegend::selectTest
FUNC 3db90 21 0 QCPPainter::QCPPainter
FUNC 3dbc0 21 0 QCPPainter::QCPPainter
FUNC 3dbf0 46 0 QCPPainter::~QCPPainter
FUNC 3dc40 16f 0 QCPPainter::drawLine
FUNC 3ddb0 7d 0 QCPPainter::setAntialiasing
FUNC 3de30 a 0 QCPAxisRect::applyDefaultAntialiasingHint
FUNC 3de40 a 0 QCPColorScale::applyDefaultAntialiasingHint
FUNC 3de50 4 0 QCPPainter::setModes
FUNC 3de60 5 0 QCPPainter::begin
FUNC 3de70 4a 0 QCPPainter::setMode
FUNC 3dec0 99 0 QCPPainter::makeNonCosmetic
FUNC 3df60 21 0 QCPPainter::setPen
FUNC 3df90 b1 0 QCPBars::drawLegendIcon
FUNC 3e050 b1 0 QCPStatisticalBox::drawLegendIcon
FUNC 3e110 21 0 QCPPainter::setPen
FUNC 3e140 21 0 QCPPainter::setPen
FUNC 3e170 71 0 QCPScatterStyle::QCPScatterStyle
FUNC 3e1f0 65 0 QCPScatterStyle::QCPScatterStyle
FUNC 3e260 66 0 QCPScatterStyle::QCPScatterStyle
FUNC 3e2d0 7b 0 QCPScatterStyle::QCPScatterStyle
FUNC 3e350 83 0 QCPScatterStyle::QCPScatterStyle
FUNC 3e3e0 5 0 QCPScatterStyle::setSize
FUNC 3e3f0 4 0 QCPScatterStyle::setShape
FUNC 3e400 d 0 QCPScatterStyle::setPen
FUNC 3e410 9 0 QCPScatterStyle::setBrush
FUNC 3e420 28 0 QCPScatterStyle::setPixmap
FUNC 3e450 28 0 QCPScatterStyle::setCustomPath
FUNC 3e480 32 0 QCPScatterStyle::applyTo
FUNC 3e4c0 dc9 0 QCPScatterStyle::drawShape
FUNC 3f290 5 0 QCPScatterStyle::drawShape
FUNC 3f2a0 58 0 QCPLayer::QCPLayer
FUNC 3f300 5 0 QCPLayer::setVisible
FUNC 3f310 5 0 QCPLayerable::setVisible
FUNC 3f320 5 0 QCPLayerable::setAntialiased
FUNC 3f330 43 0 QCPLayerable::realVisibility
FUNC 3f380 c1 0 QCPLayoutInset::selectTest
FUNC 3f450 233 0 QCPLayerable::initializeParentPlot
FUNC 3f690 aa 0 QCPLayerable::setParentLayerable
FUNC 3f740 72 0 QCPLayerable::applyAntialiasingHint
FUNC 3f7c0 e 0 QCPGrid::applyDefaultAntialiasingHint
FUNC 3f7d0 e 0 QCPAxis::applyDefaultAntialiasingHint
FUNC 3f7e0 e 0 QCPAbstractPlottable::applyDefaultAntialiasingHint
FUNC 3f7f0 e 0 QCPAbstractItem::applyDefaultAntialiasingHint
FUNC 3f800 e 0 QCPAbstractLegendItem::applyDefaultAntialiasingHint
FUNC 3f810 e 0 QCPLegend::applyDefaultAntialiasingHint
FUNC 3f820 b 0 QCPPlotTitle::applyDefaultAntialiasingHint
FUNC 3f830 e 0 QCPRange::QCPRange
FUNC 3f840 3d0 0 QCPGraph::getKeyRange
FUNC 3fc10 410 0 QCPGraph::getValueRange
FUNC 40020 14d 0 QCPCurve::getKeyRange
FUNC 40170 14d 0 QCPCurve::getValueRange
FUNC 402c0 174 0 QCPFinancial::getKeyRange
FUNC 40440 1c4 0 QCPFinancial::getValueRange
FUNC 40610 a 0 QCPRange::size
FUNC 40620 12 0 QCPRange::center
FUNC 40640 1a 0 QCPRange::normalize
FUNC 40660 e 0 QCPRange::QCPRange
FUNC 40670 165 0 QCPStatisticalBox::getKeyRange
FUNC 407e0 d8 0 QCPColorMap::getKeyRange
FUNC 408c0 d8 0 QCPColorMap::getValueRange
FUNC 409a0 25 0 QCPRange::expand
FUNC 409d0 2c 0 QCPRange::expanded
FUNC 40a00 eb 0 QCPRange::sanitizedForLogScale
FUNC 40af0 2f 0 QCPRange::sanitizedForLinScale
FUNC 40b20 1b 0 QCPRange::contains
FUNC 40b40 6a 0 QCPRange::validRange
FUNC 40bb0 7a 0 QCPRange::validRange
FUNC 40c30 62 0 QCPLayoutElement::setOuterRect
FUNC 40ca0 370 0 QCPLayoutInset::updateLayout
FUNC 41010 68 0 QCPLayoutElement::setMargins
FUNC 41080 43 0 QCPLayoutElement::setMinimumMargins
FUNC 410d0 7 0 QCPLayoutElement::setAutoMargins
FUNC 410e0 2f 0 QCPLayout::removeAt
FUNC 41110 31 0 QCPLayout::remove
FUNC 41150 5c 0 QCPLayout::clear
FUNC 411b0 55 0 QCPLayout::sizeConstraintsChanged
FUNC 41210 32 0 QCPLayoutElement::setMinimumSize
FUNC 41250 18 0 QCPLayoutElement::setMinimumSize
FUNC 41270 32 0 QCPLayoutElement::setMaximumSize
FUNC 412b0 18 0 QCPLayoutElement::setMaximumSize
FUNC 412d0 1c6 0 QCPLayout::adoptElement
FUNC 414a0 1a4 0 QCPLayout::releaseElement
FUNC 41650 2a3 0 QCPLayoutGrid::element
FUNC 41900 e 0 QCPLayoutGrid::rowCount
FUNC 41910 23 0 QCPLayoutGrid::columnCount
FUNC 41940 22 0 QCPLayoutGrid::elementCount
FUNC 41970 71 0 QCPLayoutGrid::elementAt
FUNC 419f0 61 0 QCPLayoutGrid::hasElement
FUNC 41a60 7 0 QCPLayoutGrid::setColumnSpacing
FUNC 41a70 7 0 QCPLayoutGrid::setRowSpacing
FUNC 41a80 1e2 0 QCPLayoutInset::insetPlacement
FUNC 41c70 1e2 0 QCPLayoutInset::insetAlignment
FUNC 41e60 249 0 QCPLayoutInset::insetRect
FUNC 420b0 25 0 QCPLineEnding::QCPLineEnding
FUNC 420e0 10 0 QCPLineEnding::QCPLineEnding
FUNC 420f0 3 0 QCPLineEnding::setStyle
FUNC 42100 6 0 QCPLineEnding::setWidth
FUNC 42110 6 0 QCPLineEnding::setLength
FUNC 42120 5 0 QCPLineEnding::setInverted
FUNC 42130 65 0 QCPLineEnding::boundingDistance
FUNC 421a0 45 0 QCPLineEnding::realLength
FUNC 421f0 bc7 0 QCPLineEnding::draw
FUNC 42dc0 59 0 QCPLineEnding::draw
FUNC 42e20 5 0 QCPGrid::setSubGridVisible
FUNC 42e30 5 0 QCPGrid::setAntialiasedSubGrid
FUNC 42e40 5 0 QCPGrid::setAntialiasedZeroLine
FUNC 42e50 9 0 QCPGrid::setPen
FUNC 42e60 9 0 QCPGrid::setSubGridPen
FUNC 42e70 9 0 QCPGrid::setZeroLinePen
FUNC 42e80 e 0 QCPAxis::tickLabelPadding
FUNC 42e90 10 0 QCPAxis::tickLabelRotation
FUNC 42ea0 e 0 QCPAxis::tickLabelSide
FUNC 42eb0 7f 0 QCPAxis::numberFormat
FUNC 42f30 e 0 QCPAxis::tickLengthIn
FUNC 42f40 e 0 QCPAxis::tickLengthOut
FUNC 42f50 e 0 QCPAxis::subTickLengthIn
FUNC 42f60 e 0 QCPAxis::subTickLengthOut
FUNC 42f70 b 0 QCPAxis::labelPadding
FUNC 42f80 14 0 QCPAxis::offset
FUNC 42fa0 2a 0 QCPAxis::lowerEnding
FUNC 42fd0 2a 0 QCPAxis::upperEnding
FUNC 43000 201 0 QCPAxis::setScaleLogBase
FUNC 43210 c7 0 QCPAxis::setRange
FUNC 432e0 5a 0 QCPAxis::setScaleType
FUNC 43340 1a 0 QCPAxis::setSelectableParts
FUNC 43360 1a 0 QCPAxis::setSelectedParts
FUNC 43380 3b 0 QCPAxis::deselectEvent
FUNC 433c0 170 0 QCPAxis::selectEvent
FUNC 43530 f7 0 QCPAxis::setRange
FUNC 43630 41 0 QCPAxis::setRange
FUNC 43680 a7 0 QCPAxis::setRangeLower
FUNC 43730 a7 0 QCPAxis::setRangeUpper
FUNC 437e0 19 0 QCPAxis::setRangeReversed
FUNC 43800 19 0 QCPAxis::setAutoTicks
FUNC 43820 1d5 0 QCPAxis::setAutoTickCount
FUNC 43a00 19 0 QCPAxis::setAutoTickLabels
FUNC 43a20 19 0 QCPAxis::setAutoTickStep
FUNC 43a40 19 0 QCPAxis::setAutoSubTicks
FUNC 43a60 19 0 QCPAxis::setTicks
FUNC 43a80 19 0 QCPAxis::setTickLabels
FUNC 43aa0 1e 0 QCPAxis::setTickLabelPadding
FUNC 43ac0 17 0 QCPAxis::setTickLabelType
FUNC 43ae0 37 0 QCPAxis::setTickLabelFont
FUNC 43b20 37 0 QCPAxis::setTickLabelColor
FUNC 43b60 7e 0 QCPAxis::setTickLabelRotation
FUNC 43be0 15 0 QCPAxis::setTickLabelSide
FUNC 43c00 34 0 QCPAxis::setDateTimeFormat
FUNC 43c40 9 0 QCPAxis::setDateTimeSpec
FUNC 43c50 50c 0 QCPAxis::setNumberFormat
FUNC 44160 17 0 QCPAxis::setNumberPrecision
FUNC 44180 24 0 QCPAxis::setTickStep
FUNC 441b0 17 0 QCPAxis::setTickLengthIn
FUNC 441d0 1e 0 QCPAxis::setTickLengthOut
FUNC 441f0 20 0 QCPAxis::setTickLength
FUNC 44210 7 0 QCPAxis::setSubTickCount
FUNC 44220 17 0 QCPAxis::setSubTickLengthIn
FUNC 44240 1e 0 QCPAxis::setSubTickLengthOut
FUNC 44260 20 0 QCPAxis::setSubTickLength
FUNC 44280 9 0 QCPAxis::setBasePen
FUNC 44290 c 0 QCPAxis::setTickPen
FUNC 442a0 c 0 QCPAxis::setSubTickPen
FUNC 442b0 31 0 QCPAxis::setLabelFont
FUNC 442f0 c 0 QCPAxis::setLabelColor
FUNC 44300 31 0 QCPAxis::setLabel
FUNC 44340 18 0 QCPAxis::setLabelPadding
FUNC 44360 11 0 QCPAxis::setPadding
FUNC 44380 14 0 QCPAxis::setOffset
FUNC 443a0 41 0 QCPAxis::setSelectedTickLabelFont
FUNC 443f0 9 0 QCPAxis::setSelectedLabelFont
FUNC 44400 41 0 QCPAxis::setSelectedTickLabelColor
FUNC 44450 c 0 QCPAxis::setSelectedLabelColor
FUNC 44460 9 0 QCPAxis::setSelectedBasePen
FUNC 44470 c 0 QCPAxis::setSelectedTickPen
FUNC 44480 c 0 QCPAxis::setSelectedSubTickPen
FUNC 44490 26 0 QCPAxis::setLowerEnding
FUNC 444c0 26 0 QCPAxis::setUpperEnding
FUNC 444f0 a2 0 QCPAxis::moveRange
FUNC 445a0 268 0 QCPAxis::scaleRange
FUNC 44810 ff 0 QCPAxis::setScaleRatio
FUNC 44910 1f5 0 QCPAxis::pixelToCoord
FUNC 44b10 267 0 QCPAxis::getPartAt
FUNC 44d80 1f2 0 QCPAxis::selectTest
FUNC 44f80 205 0 QCPAxis::marginSideToAxisType
FUNC 45190 1d4 0 QCPAxis::opposite
FUNC 45370 d0 0 QCPAxis::visibleTickBounds
FUNC 45440 13 0 QCPAxis::baseLog
FUNC 45460 31e 0 QCPAxis::coordToPixel
FUNC 45780 564 0 QCPItemPosition::pixelPoint
FUNC 45cf0 4d9 0 QCPGrid::drawGridLines
FUNC 461d0 1c2 0 QCPGrid::drawSubGridLines
FUNC 463a0 bc 0 QCPGrid::draw
FUNC 46460 11 0 QCPAxis::basePow
FUNC 46480 21 0 QCPAxis::getBasePen
FUNC 464b0 27 0 QCPAxis::getTickPen
FUNC 464e0 27 0 QCPAxis::getSubTickPen
FUNC 46510 27 0 QCPAxis::getTickLabelFont
FUNC 46540 24 0 QCPAxis::getLabelFont
FUNC 46570 2e 0 QCPAxis::getTickLabelColor
FUNC 465a0 2e 0 QCPAxis::getLabelColor
FUNC 465d0 3a9 0 QCPAxisPainterPrivate::QCPAxisPainterPrivate
FUNC 46980 74b 0 QCPAxisPainterPrivate::getTickLabelData
FUNC 470d0 9 0 QCPAbstractPlottable::setName
FUNC 470e0 5 0 QCPAbstractPlottable::setAntialiasedFill
FUNC 470f0 5 0 QCPAbstractPlottable::setAntialiasedScatters
FUNC 47100 5 0 QCPAbstractPlottable::setAntialiasedErrorBars
FUNC 47110 9 0 QCPAbstractPlottable::setPen
FUNC 47120 9 0 QCPAbstractPlottable::setSelectedPen
FUNC 47130 9 0 QCPAbstractPlottable::setBrush
FUNC 47140 9 0 QCPAbstractPlottable::setSelectedBrush
FUNC 47150 aa 0 QCPAbstractPlottable::setKeyAxis
FUNC 47200 bd 0 QCPAbstractPlottable::setValueAxis
FUNC 472c0 22 0 QCPAbstractPlottable::setSelectable
FUNC 472f0 22 0 QCPAbstractPlottable::setSelected
FUNC 47320 54 0 QCPAbstractPlottable::selectEvent
FUNC 47380 3f 0 QCPAbstractPlottable::deselectEvent
FUNC 473c0 2b5 0 QCPAbstractPlottable::rescaleKeyAxis
FUNC 47680 2b5 0 QCPAbstractPlottable::rescaleValueAxis
FUNC 47940 24 0 QCPAbstractPlottable::rescaleAxes
FUNC 47970 254 0 QCPAbstractPlottable::coordsToPixels
FUNC 47bd0 264 0 QCPAbstractPlottable::coordsToPixels
FUNC 47e40 d7 0 QCPStatisticalBox::drawMedian
FUNC 47f20 264 0 QCPAbstractPlottable::pixelsToCoords
FUNC 48190 17 0 QCPAbstractPlottable::pixelsToCoords
FUNC 481b0 38c 0 QCPColorMap::selectTest
FUNC 48540 484 0 QCPStatisticalBox::selectTest
FUNC 489d0 24 0 QCPAbstractPlottable::mainPen
FUNC 48a00 13e 0 QCPGraph::drawImpulsePlot
FUNC 48b40 358 0 QCPGraph::drawLinePlot
FUNC 48ea0 24 0 QCPAbstractPlottable::mainBrush
FUNC 48ed0 1a5 0 QCPStatisticalBox::drawQuartileBox
FUNC 49080 e 0 QCPAbstractPlottable::applyFillAntialiasingHint
FUNC 49090 e 0 QCPAbstractPlottable::applyScattersAntialiasingHint
FUNC 490a0 b9 0 QCPCurve::drawScatterPlot
FUNC 49160 85 0 QCPStatisticalBox::drawOutliers
FUNC 491f0 e 0 QCPAbstractPlottable::applyErrorBarsAntialiasingHint
FUNC 49200 2cb 0 QCPStatisticalBox::drawWhiskers
FUNC 494d0 21c 0 QCPAbstractPlottable::distSqrToLine
FUNC 496f0 42 0 QCPItemAnchor::QCPItemAnchor
FUNC 49740 104 0 QCPItemPosition::QCPItemPosition
FUNC 49850 1b 0 QCPItemPosition::axisRect
FUNC 49870 b 0 QCPItemPosition::setCoords
FUNC 49880 e 0 QCPItemPosition::setCoords
FUNC 49890 19c 0 QCPItemPosition::setAxes
FUNC 49a30 aa 0 QCPItemPosition::setAxisRect
FUNC 49ae0 5e2 0 QCPItemPosition::setPixelPoint
FUNC 4a0d0 e7 0 QCPItemPosition::setTypeX
FUNC 4a1c0 e7 0 QCPItemPosition::setTypeY
FUNC 4a2b0 20 0 QCPItemPosition::setType
FUNC 4a2d0 23 0 QCPAbstractItem::clipAxisRect
FUNC 4a300 32 0 QCPAbstractItem::setClipToAxisRect
FUNC 4a340 ec 0 QCPAbstractItem::setClipAxisRect
FUNC 4a430 1a 0 QCPAbstractItem::setSelectable
FUNC 4a450 1a 0 QCPAbstractItem::setSelected
FUNC 4a470 4c 0 QCPAbstractItem::selectEvent
FUNC 4a4c0 39 0 QCPAbstractItem::deselectEvent
FUNC 4a500 1b2 0 QCPAbstractItem::position
FUNC 4a6c0 1b2 0 QCPAbstractItem::anchor
FUNC 4a880 e0 0 QCPAbstractItem::hasAnchor
FUNC 4a960 21c 0 QCPAbstractItem::distSqrToLine
FUNC 4ab80 8a 0 QCPItemLine::selectTest
FUNC 4ac10 7f1 0 QCPItemBracket::selectTest
FUNC 4b410 1e 0 QCustomPlot::setAntialiasedElements
FUNC 4b430 74 0 QCustomPlot::setAntialiasedElement
FUNC 4b4b0 1e 0 QCustomPlot::setNotAntialiasedElements
FUNC 4b4d0 3d 0 QCPAxisRect::mouseReleaseEvent
FUNC 4b510 74 0 QCustomPlot::setNotAntialiasedElement
FUNC 4b590 5 0 QCustomPlot::setAutoAddPlottableToLegend
FUNC 4b5a0 9 0 QCustomPlot::setInteractions
FUNC 4b5b0 4a 0 QCustomPlot::setInteraction
FUNC 4b600 7 0 QCustomPlot::setSelectionTolerance
FUNC 4b610 8 0 QCustomPlot::setNoAntialiasingOnDrag
FUNC 4b620 9 0 QCustomPlot::setPlottingHints
FUNC 4b630 38 0 QCustomPlot::setPlottingHint
FUNC 4b670 7 0 QCustomPlot::setMultiSelectModifier
FUNC 4b680 2a 0 QCustomPlot::setViewport
FUNC 4b6b0 c 0 QCustomPlot::setBackground
FUNC 4b6c0 8 0 QCustomPlot::setBackgroundScaled
FUNC 4b6d0 7 0 QCustomPlot::setBackgroundScaledMode
FUNC 4b6e0 1cb 0 QCustomPlot::plottable
FUNC 4b8b0 bc 0 QCustomPlot::plottable
FUNC 4b970 b 0 QCustomPlot::plottableCount
FUNC 4b980 1cb 0 QCustomPlot::graph
FUNC 4bb50 2b 0 QCustomPlot::graph
FUNC 4bb80 e 0 QCustomPlot::graphCount
FUNC 4bb90 1cb 0 QCustomPlot::item
FUNC 4bd60 2b 0 QCustomPlot::item
FUNC 4bd90 e 0 QCustomPlot::itemCount
FUNC 4bda0 1cb 0 QCustomPlot::layer
FUNC 4bf70 8 0 QCustomPlot::currentLayer
FUNC 4bf80 e 0 QCustomPlot::layerCount
FUNC 4bf90 2e2 0 QCustomPlot::replot
FUNC 4c280 34b 0 QCPAxisRect::mouseMoveEvent
FUNC 4c5d0 26b 0 QCPAxisRect::wheelEvent
FUNC 4c840 32 0 QCustomPlot::updateLayerIndices
FUNC 4c880 284 0 QCustomPlot::toPainter
FUNC 4cb10 f0 0 QCPColorGradient::operator==
FUNC 4cc00 1d5 0 QCPColorGradient::setLevelCount
FUNC 4cde0 e 0 QCPColorGradient::setColorInterpolation
FUNC 4cdf0 5 0 QCPColorGradient::setPeriodic
FUNC 4ce00 7a 0 QCPColorGradient::clearColorStops
FUNC 4ce80 c 0 QCPAxisRect::setBackground
FUNC 4ce90 8 0 QCPAxisRect::setBackgroundScaled
FUNC 4cea0 7 0 QCPAxisRect::setBackgroundScaledMode
FUNC 4ceb0 52 0 QCPAxisRect::rangeDragAxis
FUNC 4cf10 52 0 QCPAxisRect::rangeZoomAxis
FUNC 4cf70 25 0 QCPAxisRect::rangeZoomFactor
FUNC 4cfa0 7 0 QCPAxisRect::setRangeDrag
FUNC 4cfb0 7 0 QCPAxisRect::setRangeZoom
FUNC 4cfc0 1cf 0 QCPAxisRect::setRangeDragAxes
FUNC 4d190 1cf 0 QCPAxisRect::setRangeZoomAxes
FUNC 4d360 11 0 QCPAxisRect::setRangeZoomFactor
FUNC 4d380 11 0 QCPAxisRect::setRangeZoomFactor
FUNC 4d3a0 c 0 QCPAbstractLegendItem::setFont
FUNC 4d3b0 c 0 QCPAbstractLegendItem::setTextColor
FUNC 4d3c0 c 0 QCPAbstractLegendItem::setSelectedFont
FUNC 4d3d0 c 0 QCPAbstractLegendItem::setSelectedTextColor
FUNC 4d3e0 22 0 QCPAbstractLegendItem::setSelectable
FUNC 4d410 22 0 QCPAbstractLegendItem::setSelected
FUNC 4d440 64 0 QCPAbstractLegendItem::selectEvent
FUNC 4d4b0 50 0 QCPAbstractLegendItem::deselectEvent
FUNC 4d500 39 0 QCPPlottableLegendItem::getIconBorderPen
FUNC 4d540 31 0 QCPPlottableLegendItem::getTextColor
FUNC 4d580 2a 0 QCPPlottableLegendItem::getFont
FUNC 4d5b0 1b7 0 QCPPlottableLegendItem::minimumSizeHint
FUNC 4d770 c 0 QCPLegend::setBorderPen
FUNC 4d780 c 0 QCPLegend::setBrush
FUNC 4d790 b 0 QCPLegend::setIconSize
FUNC 4d7a0 d 0 QCPLegend::setIconSize
FUNC 4d7b0 7 0 QCPLegend::setIconTextPadding
FUNC 4d7c0 c 0 QCPLegend::setIconBorderPen
FUNC 4d7d0 22 0 QCPLegend::setSelectableParts
FUNC 4d800 c 0 QCPLegend::setSelectedBorderPen
FUNC 4d810 c 0 QCPLegend::setSelectedIconBorderPen
FUNC 4d820 c 0 QCPLegend::setSelectedBrush
FUNC 4d830 20 0 QCPLegend::item
FUNC 4d850 c 0 QCPLegend::itemCount
FUNC 4d860 68 0 QCPLegend::selectedParts
FUNC 4d8d0 58 0 QCPLegend::setFont
FUNC 4d930 58 0 QCPLegend::setTextColor
FUNC 4d990 58 0 QCPLegend::setSelectedFont
FUNC 4d9f0 58 0 QCPLegend::setSelectedTextColor
FUNC 4da50 4d 0 QCPLegend::itemWithPlottable
FUNC 4daa0 132 0 QCPLegend::setSelectedParts
FUNC 4dbe0 62 0 QCPLegend::deselectEvent
FUNC 4dc50 17d 0 QCPLegend::selectEvent
FUNC 4ddd0 42 0 QCPLegend::hasItem
FUNC 4de20 14 0 QCPLegend::hasItemWithPlottable
FUNC 4de40 37 0 QCPLegend::removeItem
FUNC 4de80 25 0 QCPLegend::removeItem
FUNC 4deb0 34 0 QCPAbstractPlottable::removeFromLegend
FUNC 4def0 31 0 QCPLegend::clearItems
FUNC 4df30 2a 0 QCPLegend::getBorderPen
FUNC 4df60 2a 0 QCPLegend::getBrush
FUNC 4df90 8e 0 QCPLegend::draw
FUNC 4e020 c 0 QCPPlotTitle::setText
FUNC 4e030 c 0 QCPPlotTitle::setFont
FUNC 4e040 c 0 QCPPlotTitle::setTextColor
FUNC 4e050 c 0 QCPPlotTitle::setSelectedFont
FUNC 4e060 c 0 QCPPlotTitle::setSelectedTextColor
FUNC 4e070 22 0 QCPPlotTitle::setSelectable
FUNC 4e0a0 22 0 QCPPlotTitle::setSelected
FUNC 4e0d0 54 0 QCPPlotTitle::selectEvent
FUNC 4e130 3f 0 QCPPlotTitle::deselectEvent
FUNC 4e170 2a 0 QCPPlotTitle::mainFont
FUNC 4e1a0 31 0 QCPPlotTitle::mainTextColor
FUNC 4e1e0 af 0 QCPPlotTitle::draw
FUNC 4e290 d3 0 QCPColorScale::label
FUNC 4e370 170 0 QCPColorScale::rangeDrag
FUNC 4e4e0 170 0 QCPColorScale::rangeZoom
FUNC 4e650 83 0 QCPColorScale::setDataRange
FUNC 4e6e0 86 0 QCPColorScale::setDataScaleType
FUNC 4e770 b1 0 QCPColorScale::setLabel
FUNC 4e830 7 0 QCPColorScale::setBarWidth
FUNC 4e840 ec 0 QCPColorScale::setRangeDrag
FUNC 4e930 ec 0 QCPColorScale::setRangeZoom
FUNC 4ea20 22 0 QCPData::QCPData
FUNC 4ea50 22 0 QCPData::QCPData
FUNC 4ea80 7 0 QCPGraph::setLineStyle
FUNC 4ea90 6d 0 QCPGraph::setScatterStyle
FUNC 4eb00 7 0 QCPGraph::setErrorType
FUNC 4eb10 c 0 QCPGraph::setErrorPen
FUNC 4eb20 9 0 QCPGraph::setErrorBarSize
FUNC 4eb30 8 0 QCPGraph::setErrorBarSkipSymbol
FUNC 4eb40 375 0 QCPGraph::setChannelFillGraph
FUNC 4eec0 8 0 QCPGraph::setAdaptiveSampling
FUNC 4eed0 148 0 QCPGraph::rescaleKeyAxis
FUNC 4f020 163 0 QCPGraph::rescaleValueAxis
FUNC 4f190 2a 0 QCPGraph::rescaleAxes
FUNC 4f1c0 b9b 0 QCPGraph::drawError
FUNC 4fd60 382 0 QCPGraph::drawScatterPlot
FUNC 500f0 71 0 QCPGraph::countDataInBounds
FUNC 50170 363 0 QCPGraph::lowerFillBasePoint
FUNC 504e0 363 0 QCPGraph::upperFillBasePoint
FUNC 50850 58 0 QCPGraph::findIndexAboveX
FUNC 508b0 60 0 QCPGraph::findIndexBelowX
FUNC 50910 58 0 QCPGraph::findIndexAboveY
FUNC 50970 58 0 QCPGraph::findIndexBelowY
FUNC 509d0 13 0 QCPCurveData::QCPCurveData
FUNC 509f0 f 0 QCPCurveData::QCPCurveData
FUNC 50a00 6d 0 QCPCurve::setScatterStyle
FUNC 50a70 7 0 QCPCurve::setLineStyle
FUNC 50a80 60 0 QCPCurve::getRegion
FUNC 50ae0 1d9 0 QCPCurve::getOptimizedPoint
FUNC 50cc0 102 0 QCPCurve::mayTraverse
FUNC 50dd0 49 0 QCPBarsGroup::QCPBarsGroup
FUNC 50e20 4 0 QCPBarsGroup::setSpacingType
FUNC 50e30 6 0 QCPBarsGroup::setSpacing
FUNC 50e40 1cb 0 QCPBarsGroup::bars
FUNC 51010 12c 0 QCPBarsGroup::getPixelSpacing
FUNC 51140 e 0 QCPBarData::QCPBarData
FUNC 51150 a 0 QCPBarData::QCPBarData
FUNC 51160 9 0 QCPBars::setWidth
FUNC 51170 7 0 QCPBars::setWidthType
FUNC 51180 9 0 QCPBars::setBaseValue
FUNC 51190 2d0 0 QCPBars::getPixelWidth
FUNC 51460 3e7 0 QCPBars::connectBars
FUNC 51850 2e2 0 QCPBars::moveBelow
FUNC 51b40 2e2 0 QCPBars::moveAbove
FUNC 51e30 9 0 QCPStatisticalBox::setKey
FUNC 51e40 9 0 QCPStatisticalBox::setMinimum
FUNC 51e50 9 0 QCPStatisticalBox::setLowerQuartile
FUNC 51e60 9 0 QCPStatisticalBox::setMedian
FUNC 51e70 9 0 QCPStatisticalBox::setUpperQuartile
FUNC 51e80 9 0 QCPStatisticalBox::setMaximum
FUNC 51e90 8a 0 QCPStatisticalBox::setData
FUNC 51f20 9 0 QCPStatisticalBox::setWidth
FUNC 51f30 9 0 QCPStatisticalBox::setWhiskerWidth
FUNC 51f40 c 0 QCPStatisticalBox::setWhiskerPen
FUNC 51f50 c 0 QCPStatisticalBox::setWhiskerBarPen
FUNC 51f60 c 0 QCPStatisticalBox::setMedianPen
FUNC 51f70 6d 0 QCPStatisticalBox::setOutlierStyle
FUNC 51fe0 12 0 QCPColorMapData::~QCPColorMapData
FUNC 52000 85 0 QCPColorMapData::data
FUNC 52090 2d 0 QCPColorMapData::cell
FUNC 520c0 10 0 QCPColorMapData::setKeyRange
FUNC 520d0 10 0 QCPColorMapData::setValueRange
FUNC 520e0 22 0 QCPColorMapData::setRange
FUNC 52110 a1 0 QCPColorMapData::setData
FUNC 521c0 46 0 QCPColorMapData::setCell
FUNC 52210 5f 0 QCPColorMapData::recalculateDataBounds
FUNC 52270 54 0 QCPColorMapData::fill
FUNC 522d0 1ad 0 QCPColorMapData::setSize
FUNC 52480 ab 0 QCPColorMapData::operator=
FUNC 52530 56 0 QCPColorMapData::QCPColorMapData
FUNC 52590 8 0 QCPColorMapData::setKeySize
FUNC 525a0 9 0 QCPColorMapData::setValueSize
FUNC 525b0 9 0 QCPColorMapData::clear
FUNC 525c0 c 0 QCPColorMap::clearData
FUNC 525d0 6e 0 QCPColorMapData::QCPColorMapData
FUNC 52640 6f 0 QCPColorMapData::coordToCell
FUNC 526b0 64 0 QCPColorMapData::cellToCoord
FUNC 52720 10f 0 QCPColorMap::setData
FUNC 52830 a7 0 QCPColorMap::setDataRange
FUNC 528e0 60 0 QCPColorMap::setDataScaleType
FUNC 52940 f 0 QCPColorMap::setInterpolate
FUNC 52950 8 0 QCPColorMap::setTightBoundary
FUNC 52960 46 0 QCPColorMap::rescaleDataRange
FUNC 529b0 1d 0 QCPFinancialData::QCPFinancialData
FUNC 529d0 19 0 QCPFinancialData::QCPFinancialData
FUNC 529f0 7 0 QCPFinancial::setChartStyle
FUNC 52a00 9 0 QCPFinancial::setWidth
FUNC 52a10 8 0 QCPFinancial::setTwoColored
FUNC 52a20 c 0 QCPFinancial::setBrushPositive
FUNC 52a30 c 0 QCPFinancial::setBrushNegative
FUNC 52a40 c 0 QCPFinancial::setPenPositive
FUNC 52a50 c 0 QCPFinancial::setPenNegative
FUNC 52a60 557 0 QCPFinancial::drawOhlcPlot
FUNC 52fc0 6ae 0 QCPFinancial::drawCandlestickPlot
FUNC 53670 2da 0 QCPFinancial::ohlcSelectTest
FUNC 53950 5d1 0 QCPFinancial::candlestickSelectTest
FUNC 53f30 9 0 QCPItemStraightLine::setPen
FUNC 53f40 9 0 QCPItemStraightLine::setSelectedPen
FUNC 53f50 5a 0 QCPItemStraightLine::distToStraightLine
FUNC 53fb0 ce 0 QCPItemStraightLine::selectTest
FUNC 54080 24 0 QCPItemStraightLine::mainPen
FUNC 540b0 9 0 QCPItemLine::setPen
FUNC 540c0 9 0 QCPItemLine::setSelectedPen
FUNC 540d0 2b 0 QCPItemLine::setHead
FUNC 54100 2b 0 QCPItemLine::setTail
FUNC 54130 24 0 QCPItemLine::mainPen
FUNC 54160 c 0 QCPItemCurve::setPen
FUNC 54170 c 0 QCPItemCurve::setSelectedPen
FUNC 54180 2b 0 QCPItemCurve::setHead
FUNC 541b0 2b 0 QCPItemCurve::setTail
FUNC 541e0 27 0 QCPItemCurve::mainPen
FUNC 54210 574 0 QCPItemCurve::draw
FUNC 54790 c 0 QCPItemRect::setPen
FUNC 547a0 c 0 QCPItemRect::setSelectedPen
FUNC 547b0 c 0 QCPItemRect::setBrush
FUNC 547c0 c 0 QCPItemRect::setSelectedBrush
FUNC 547d0 27 0 QCPItemRect::mainPen
FUNC 54800 27 0 QCPItemRect::mainBrush
FUNC 54830 30f 0 QCPItemRect::draw
FUNC 54b40 c 0 QCPItemText::setColor
FUNC 54b50 c 0 QCPItemText::setSelectedColor
FUNC 54b60 c 0 QCPItemText::setPen
FUNC 54b70 c 0 QCPItemText::setSelectedPen
FUNC 54b80 c 0 QCPItemText::setBrush
FUNC 54b90 c 0 QCPItemText::setSelectedBrush
FUNC 54ba0 c 0 QCPItemText::setFont
FUNC 54bb0 c 0 QCPItemText::setSelectedFont
FUNC 54bc0 c 0 QCPItemText::setText
FUNC 54bd0 7 0 QCPItemText::setPositionAlignment
FUNC 54be0 7 0 QCPItemText::setTextAlignment
FUNC 54bf0 9 0 QCPItemText::setRotation
FUNC 54c00 16 0 QCPItemText::setPadding
FUNC 54c20 ba 0 QCPItemText::getTextDrawPoint
FUNC 54ce0 27 0 QCPItemText::mainFont
FUNC 54d10 2e 0 QCPItemText::mainColor
FUNC 54d40 27 0 QCPItemText::mainPen
FUNC 54d70 27 0 QCPItemText::mainBrush
FUNC 54da0 781 0 QCPItemText::draw
FUNC 55530 c 0 QCPItemEllipse::setPen
FUNC 55540 c 0 QCPItemEllipse::setSelectedPen
FUNC 55550 c 0 QCPItemEllipse::setBrush
FUNC 55560 c 0 QCPItemEllipse::setSelectedBrush
FUNC 55570 27 0 QCPItemEllipse::mainPen
FUNC 555a0 27 0 QCPItemEllipse::mainBrush
FUNC 555d0 468 0 QCPItemEllipse::draw
FUNC 55a40 1a1 0 QCPItemPixmap::setPixmap
FUNC 55bf0 c 0 QCPItemPixmap::setPen
FUNC 55c00 c 0 QCPItemPixmap::setSelectedPen
FUNC 55c10 27c 0 QCPItemPixmap::getFinalRect
FUNC 55e90 3a2 0 QCPItemPixmap::anchorPixelPoint
FUNC 56240 27 0 QCPItemPixmap::mainPen
FUNC 56270 9 0 QCPItemTracer::setPen
FUNC 56280 9 0 QCPItemTracer::setSelectedPen
FUNC 56290 9 0 QCPItemTracer::setBrush
FUNC 562a0 c 0 QCPItemTracer::setSelectedBrush
FUNC 562b0 9 0 QCPItemTracer::setSize
FUNC 562c0 7 0 QCPItemTracer::setStyle
FUNC 562d0 9 0 QCPItemTracer::setGraphKey
FUNC 562e0 8 0 QCPItemTracer::setInterpolating
FUNC 562f0 21 0 QCPItemTracer::mainPen
FUNC 56320 27 0 QCPItemTracer::mainBrush
FUNC 56350 9 0 QCPItemBracket::setPen
FUNC 56360 c 0 QCPItemBracket::setSelectedPen
FUNC 56370 9 0 QCPItemBracket::setLength
FUNC 56380 7 0 QCPItemBracket::setStyle
FUNC 56390 27 0 QCPItemBracket::mainPen
FUNC 563c0 57f 0 QCPItemText::anchorPixelPoint
FUNC 56940 250 0 QCustomPlot::layerableAt
FUNC 56b90 3d 0 QList<QList<QCPLayoutElement*> >::dealloc
FUNC 56bd0 ea 0 QCPLayoutElement::parentPlotInitialized
FUNC 56cc0 18e 0 QCustomPlot::layoutElementAt
FUNC 56e50 449 0 QCustomPlot::mouseDoubleClickEvent
FUNC 572a0 19 0 QCPAxis::setTickVector
FUNC 572c0 c 0 QCPStatisticalBox::setOutliers
FUNC 572d0 b9 0 QCPStatisticalBox::clearData
FUNC 57390 19 0 QCPAxis::setTickVectorLabels
FUNC 573b0 cb 0 QCPAxis::plottables
FUNC 57480 2cd 0 QCPAxis::rescale
FUNC 57750 c3 0 QCPAxisRect::plottables
FUNC 57820 cb 0 QCPAxis::graphs
FUNC 578f0 c3 0 QCPAxisRect::graphs
FUNC 579c0 18e 0 QCustomPlot::selectedGraphs
FUNC 57b50 13a 0 QCPAxis::items
FUNC 57c90 1a6 0 QCPAxisRect::items
FUNC 57e40 1c 0 QCPBarsGroup::unregisterBars
FUNC 57e60 163 0 QCPMarginGroup::commonMargin
FUNC 57fd0 f9 0 QCPColorGradient::setColorStops
FUNC 580d0 3eb 0 QCPColorMap::setGradient
FUNC 584c0 3fc 0 QCPColorScale::setGradient
FUNC 588c0 6d8 0 QCPColorMap::setColorScale
FUNC 58fa0 28a 0 QCPLayer::addChild
FUNC 59230 f5 0 QCPLayout::elements
FUNC 59330 135 0 QCPLayoutGrid::elements
FUNC 59470 ad 0 QCPAxisRect::elements
FUNC 59520 133 0 QCPLayoutInset::addElement
FUNC 59660 11b 0 QCPLayoutInset::addElement
FUNC 59780 7e7 0 QCPAxis::generateAutoTicks
FUNC 59f70 531 0 QCPAxis::draw
FUNC 5a4b0 301 0 QCPAxis::calculateMargin
FUNC 5a7c0 7b4 0 QCPAxis::setupTickVectors
FUNC 5af80 282 0 QCPAbstractItem::createAnchor
FUNC 5b210 ef 0 QCustomPlot::selectedPlottables
FUNC 5b300 273 0 QCustomPlot::plottableAt
FUNC 5b580 f4 0 QCustomPlot::selectedItems
FUNC 5b680 1eb 0 QCustomPlot::itemAt
FUNC 5b870 142 0 QCustomPlot::layer
FUNC 5b9c0 16a 0 QCustomPlot::deselectAll
FUNC 5bb30 58 0 QVector<unsigned int>::fill
FUNC 5bb90 166 0 QCPAxisRect::updateAxesOffset
FUNC 5bd00 7f 0 QCPAxisRect::axisCount
FUNC 5bd80 16f 0 QCPAxisRect::axis
FUNC 5bef0 2d4 0 QCPAxisRect::calculateAutoMargin
FUNC 5c1d0 276 0 QCPAxisRect::axes
FUNC 5c450 89 0 QCPLegend::selectedItems
FUNC 5c4e0 b1 0 QCPColorScale::colorMaps
FUNC 5c5a0 378 0 QCPColorScale::rescaleDataRange
FUNC 5c920 356 0 QCPCurve::getTraverseCornerPoints
FUNC 5cc80 ee5 0 QCPCurve::getOptimizedCornerPoints
FUNC 5db70 ad 0 QCPGraph::removeFillBasePoints
FUNC 5dc20 28e 0 QCPGraph::addFillBasePoints
FUNC 5deb0 7e5 0 QCPBarsGroup::keyPixelOffset
FUNC 5e6a0 2a4 0 QCPBars::getKeyRange
FUNC 5e950 229 0 QCPStatisticalBox::getValueRange
FUNC 5eb80 64e 0 QCPItemStraightLine::getRectClippedStraightLine
FUNC 5f1d0 278 0 QCPItemStraightLine::draw
FUNC 5f450 6a1 0 QCPItemLine::getRectClippedLine
FUNC 5fb00 45f 0 QCPItemLine::draw
FUNC 5ff60 90 0 QCPPainter::save
FUNC 5fff0 26f 0 QCPPainter::restore
FUNC 60260 377 0 QCPPlottableLegendItem::draw
FUNC 605e0 254 0 QCPStatisticalBox::draw
FUNC 60840 12d 0 QCPMarginGroup::isEmpty
FUNC 60970 2e8 0 QCPMarginGroup::removeChild
FUNC 60c60 563 0 QCPMarginGroup::addChild
FUNC 611d0 449 0 QCPLayoutElement::setMarginGroup
FUNC 61620 197 0 QCPMarginGroup::clear
FUNC 617c0 57 0 QCPMarginGroup::~QCPMarginGroup
FUNC 61820 12 0 QCPMarginGroup::~QCPMarginGroup
FUNC 61840 512 0 QCPMarginGroup::QCPMarginGroup
FUNC 61d60 44f 0 QCPLayoutElement::update
FUNC 621b0 7f 0 QCPLayout::update
FUNC 62230 2b1 0 QCPColorScale::update
FUNC 624f0 258 0 QCPAbstractItem::rectSelectTest
FUNC 62750 ca 0 QCPItemRect::selectTest
FUNC 62820 2c2 0 QCPItemText::selectTest
FUNC 62af0 8f 0 QCPItemPixmap::selectTest
FUNC 62b80 885 0 QCPItemTracer::selectTest
FUNC 63410 2d5 0 QCustomPlot::selectedLegends
FUNC 636f0 29b 0 QCustomPlot::axisRects
FUNC 63990 2c 0 QCustomPlot::axisRectCount
FUNC 639c0 10c 0 QCustomPlot::axisRect
FUNC 63ad0 20a 0 QCPAbstractItem::createPosition
FUNC 63ce0 eb 0 QCPColorGradient::setColorStopAt
FUNC 63dd0 a66 0 QCPColorGradient::loadPreset
FUNC 64840 77 0 QCPColorGradient::QCPColorGradient
FUNC 648c0 21c 0 QCPColorGradient::inverted
FUNC 64ae0 664 0 QCPColorGradient::updateColorBuffer
FUNC 65150 395 0 QCPColorGradient::colorize
FUNC 654f0 12f 0 QCPColorGradient::color
FUNC 65620 11f 0 QCPAxisRect::axes
FUNC 65740 e2 0 QCPAxisRect::update
FUNC 65830 1f7 0 QCustomPlot::selectedAxes
FUNC 65a30 1bb 0 QCustomPlot::rescaleAxes
FUNC 65bf0 1e2 0 QCPColorScaleAxisRectPrivate::axisSelectionChanged
FUNC 65de0 1e2 0 QCPColorScaleAxisRectPrivate::axisSelectableChanged
FUNC 65fd0 665 0 QCPColorScale::setType
FUNC 66640 227 0 QCPGraph::setData
FUNC 66870 27f 0 QCPGraph::setDataBothError
FUNC 66af0 60 0 QCPGraph::removeData
FUNC 66b50 a3 0 QCPGraph::removeDataBefore
FUNC 66c00 ee 0 QCPGraph::removeDataAfter
FUNC 66cf0 2a0 0 QCPGraph::getVisibleDataBounds
FUNC 66f90 d05 0 QCPGraph::getPreparedData
FUNC 67ca0 a 0 QCPGraph::getScatterPlotData
FUNC 67cb0 45b 0 QCPGraph::getLinePlotData
FUNC 68110 6be 0 QCPGraph::getImpulsePlotData
FUNC 687d0 159 0 QCPGraph::removeData
FUNC 68930 cb 0 QCPGraph::addData
FUNC 68a00 1f9 0 QCPGraph::addData
FUNC 68c00 fb 0 QCPGraph::addData
FUNC 68d00 152 0 QCPGraph::addData
FUNC 68e60 1c4 0 QCPGraph::setData
FUNC 69030 207 0 QCPGraph::setDataValueError
FUNC 69240 207 0 QCPGraph::setDataKeyError
FUNC 69450 22f 0 QCPGraph::setDataValueError
FUNC 69680 22f 0 QCPGraph::setDataKeyError
FUNC 698b0 247 0 QCPGraph::setDataBothError
FUNC 69b00 78f 0 QCPGraph::getStepLeftPlotData
FUNC 6a290 78f 0 QCPGraph::getStepRightPlotData
FUNC 6aa20 967 0 QCPGraph::getStepCenterPlotData
FUNC 6b390 5a 0 QCPGraph::getPlotData
FUNC 6b3f0 3e4 0 QCPGraph::draw
FUNC 6b7e0 10b2 0 QCPGraph::getChannelFillPolygon
FUNC 6c8a0 244 0 QCPGraph::drawFill
FUNC 6caf0 37b 0 QCPGraph::pointDistance
FUNC 6ce70 314 0 QCPGraph::selectTest
FUNC 6d190 227 0 QCPCurve::setData
FUNC 6d3c0 130 0 QCPCurve::addData
FUNC 6d4f0 a3 0 QCPCurve::removeDataBefore
FUNC 6d5a0 ee 0 QCPCurve::removeDataAfter
FUNC 6d690 60 0 QCPCurve::removeData
FUNC 6d6f0 159 0 QCPCurve::removeData
FUNC 6d850 ab 0 QCPCurve::addData
FUNC 6d900 1d9 0 QCPCurve::addData
FUNC 6dae0 f0 0 QCPCurve::addData
FUNC 6dbd0 1a4 0 QCPCurve::setData
FUNC 6dd80 168 0 QCPCurve::addData
FUNC 6def0 1d9 0 QCPCurve::setData
FUNC 6e0d0 227 0 QCPBars::setData
FUNC 6e300 19a 0 QCPBars::setData
FUNC 6e4a0 60 0 QCPBars::removeData
FUNC 6e500 a3 0 QCPBars::removeDataBefore
FUNC 6e5b0 a3 0 QCPBars::addData
FUNC 6e660 1d1 0 QCPBars::addData
FUNC 6e840 cf 0 QCPBars::addData
FUNC 6e910 123 0 QCPBars::addData
FUNC 6ea40 159 0 QCPBars::removeData
FUNC 6eba0 de 0 QCPBars::removeDataAfter
FUNC 6ec80 269 0 QCPBars::getStackedBaseValue
FUNC 6eef0 11c 0 QCPBars::getValueRange
FUNC 6f010 5b8 0 QCPBars::getBarPolygon
FUNC 6f5d0 2ed 0 QCPBars::selectTest
FUNC 6f8c0 632 0 QCPBars::getVisibleDataBounds
FUNC 6ff00 3fd 0 QCPBars::draw
FUNC 70300 227 0 QCPFinancial::setData
FUNC 70530 256 0 QCPFinancial::setData
FUNC 70790 60 0 QCPFinancial::removeData
FUNC 707f0 a3 0 QCPFinancial::removeDataBefore
FUNC 708a0 de 0 QCPFinancial::removeDataAfter
FUNC 70980 2a0 0 QCPFinancial::getVisibleDataBounds
FUNC 70c20 3b5 0 QCPFinancial::selectTest
FUNC 70fe0 ae 0 QCPFinancial::draw
FUNC 71090 159 0 QCPFinancial::removeData
FUNC 711f0 c3 0 QCPFinancial::addData
FUNC 712c0 3ee 0 QCPFinancial::timeSeriesToOhlc
FUNC 716b0 1f1 0 QCPFinancial::addData
FUNC 718b0 e0 0 QCPFinancial::addData
FUNC 71990 1cf 0 QCPFinancial::addData
FUNC 71b60 17f4 0 QCPFinancial::drawLegendIcon
FUNC 73360 1355 0 QCPItemBracket::draw
FUNC 746c0 55 0 QCPBarsGroup::registerBars
FUNC 74720 47 0 QCPBars::setBarsGroup
FUNC 74770 a1 0 QCPBarsGroup::clear
FUNC 74820 29 0 QCPBarsGroup::~QCPBarsGroup
FUNC 74850 12 0 QCPBarsGroup::~QCPBarsGroup
FUNC 74870 202 0 QCPBarsGroup::insert
FUNC 74a80 2ad 0 QCPBarsGroup::remove
FUNC 74d30 2ad 0 QCPBarsGroup::append
FUNC 74fe0 43a 0 QCPLayoutGrid::setColumnStretchFactors
FUNC 75420 3d6 0 QCPLayoutGrid::setColumnStretchFactor
FUNC 75800 3d6 0 QCPLayoutGrid::setRowStretchFactor
FUNC 75be0 43a 0 QCPLayoutGrid::setRowStretchFactors
FUNC 76020 3a7 0 QCPLayoutGrid::getMinimumRowColSizes
FUNC 763d0 17a 0 QCPLayoutGrid::minimumSizeHint
FUNC 76550 3b7 0 QCPLayoutGrid::getMaximumRowColSizes
FUNC 76910 19a 0 QCPLayoutGrid::maximumSizeHint
FUNC 76ab0 eb2 0 QCPLayout::getSectionSizes
FUNC 77970 677 0 QCPLayoutGrid::updateLayout
FUNC 77ff0 16c 0 QCPLayoutGrid::expandTo
FUNC 78160 158 0 QCPLayoutGrid::takeAt
FUNC 782c0 39b 0 QCPLayoutGrid::addElement
FUNC 78660 3d 0 QCPLegend::addItem
FUNC 786a0 276 0 QCPLayoutGrid::simplify
FUNC 78920 1b4 0 QCPLayoutGrid::insertColumn
FUNC 78ae0 21c 0 QCPLayoutGrid::insertRow
FUNC 78d00 1e5 0 QCPLayoutInset::setInsetPlacement
FUNC 78ef0 1e5 0 QCPLayoutInset::setInsetAlignment
FUNC 790e0 1e8 0 QCPLayoutInset::takeAt
FUNC 792d0 218 0 QCPLayoutInset::setInsetRect
FUNC 794f0 1e1 0 QCPAxisPainterPrivate::getMaxTickLabelSize
FUNC 796e0 282 0 QCPItemAnchor::addChildY
FUNC 79970 1e1 0 QCPItemAnchor::removeChildX
FUNC 79b60 1e1 0 QCPItemAnchor::removeChildY
FUNC 79d50 314 0 QCPItemPosition::setParentAnchorY
FUNC 7a070 282 0 QCPItemAnchor::addChildX
FUNC 7a300 314 0 QCPItemPosition::setParentAnchorX
FUNC 7a620 207 0 QCPItemAnchor::~QCPItemAnchor
FUNC 7a830 12 0 QCPItemAnchor::~QCPItemAnchor
FUNC 7a850 22f 0 QCPItemPosition::~QCPItemPosition
FUNC 7aa80 12 0 QCPItemPosition::~QCPItemPosition
FUNC 7aaa0 3b 0 QCPItemPosition::setParentAnchor
FUNC 7aae0 3d 0 QCustomPlot::hasPlottable
FUNC 7ab20 4f2 0 QCPItemTracer::updatePosition
FUNC 7b020 20e 0 QCPItemTracer::setGraph
FUNC 7b230 76d 0 QCPItemTracer::draw
FUNC 7b9a0 27c 0 QCustomPlot::removePlottable
FUNC 7bc20 293 0 QCustomPlot::removePlottable
FUNC 7bec0 123 0 QCustomPlot::clearPlottables
FUNC 7bff0 5 0 QCustomPlot::removeGraph
FUNC 7c000 94 0 QCustomPlot::clearGraphs
FUNC 7c0a0 69 0 QCustomPlot::removeGraph
FUNC 7c110 236 0 QCustomPlot::addItem
FUNC 7c350 40 0 QCustomPlot::hasItem
FUNC 7c390 229 0 QCustomPlot::removeItem
FUNC 7c5c0 94 0 QCustomPlot::clearItems
FUNC 7c660 205 0 QCustomPlot::removeItem
FUNC 7c870 219 0 QCustomPlot::setCurrentLayer
FUNC 7ca90 1e2 0 QCustomPlot::setCurrentLayer
FUNC 7cc80 52a 0 QCustomPlot::addLayer
FUNC 7d1b0 3ec 0 QCustomPlot::moveLayer
FUNC 7d5a0 390 0 QCPAxisRect::removeAxis
FUNC 7d930 5ba 0 QCPCurve::getTraverse
FUNC 7def0 8f0 0 QCPCurve::getCurveData
FUNC 7e7e0 639 0 QCPCurve::draw
FUNC 7ee20 259 0 QCPCurve::pointDistance
FUNC 7f080 324 0 QCPCurve::selectTest
FUNC 7f3b0 245 0 QCPLayer::removeChild
FUNC 7f600 56 0 QCPLayerable::~QCPLayerable
FUNC 7f660 12 0 QCPLayerable::~QCPLayerable
FUNC 7f680 8a 0 QCPLayoutElement::~QCPLayoutElement
FUNC 7f710 12 0 QCPLayoutElement::~QCPLayoutElement
FUNC 7f730 79 0 QCPLayoutGrid::~QCPLayoutGrid
FUNC 7f7b0 12 0 QCPLayoutGrid::~QCPLayoutGrid
FUNC 7f7d0 a5 0 QCPLegend::~QCPLegend
FUNC 7f880 12 0 QCPLegend::~QCPLegend
FUNC 7f8a0 d0 0 QCPLayoutInset::~QCPLayoutInset
FUNC 7f970 12 0 QCPLayoutInset::~QCPLayoutInset
FUNC 7f990 142 0 QCPColorScale::~QCPColorScale
FUNC 7fae0 12 0 QCPColorScale::~QCPColorScale
FUNC 7fb00 1f4 0 QCPAxis::~QCPAxis
FUNC 7fd00 12 0 QCPAxis::~QCPAxis
FUNC 7fd20 9f 0 QCPAbstractItem::~QCPAbstractItem
FUNC 7fdc0 12 0 QCPAbstractItem::~QCPAbstractItem
FUNC 7fde0 31 0 QCPItemStraightLine::~QCPItemStraightLine
FUNC 7fe20 12 0 QCPItemStraightLine::~QCPItemStraightLine
FUNC 7fe40 31 0 QCPItemLine::~QCPItemLine
FUNC 7fe80 12 0 QCPItemLine::~QCPItemLine
FUNC 7fea0 37 0 QCPItemCurve::~QCPItemCurve
FUNC 7fee0 12 0 QCPItemCurve::~QCPItemCurve
FUNC 7ff00 4f 0 QCPItemRect::~QCPItemRect
FUNC 7ff50 12 0 QCPItemRect::~QCPItemRect
FUNC 7ff70 99 0 QCPItemText::~QCPItemText
FUNC 80010 12 0 QCPItemText::~QCPItemText
FUNC 80030 4f 0 QCPItemEllipse::~QCPItemEllipse
FUNC 80080 12 0 QCPItemEllipse::~QCPItemEllipse
FUNC 800a0 49 0 QCPItemTracer::~QCPItemTracer
FUNC 800f0 12 0 QCPItemTracer::~QCPItemTracer
FUNC 80110 37 0 QCPItemBracket::~QCPItemBracket
FUNC 80150 12 0 QCPItemBracket::~QCPItemBracket
FUNC 80170 1a8 0 QCPFinancial::~QCPFinancial
FUNC 80320 12 0 QCPFinancial::~QCPFinancial
FUNC 80340 268 0 QCPBars::~QCPBars
FUNC 805b0 12 0 QCPBars::~QCPBars
FUNC 805d0 3d6 0 QCPLayerable::moveToLayer
FUNC 809b0 7 0 QCPLayerable::setLayer
FUNC 809c0 362 0 QCPLayerable::setLayer
FUNC 80d30 30c 0 QCPLayerable::QCPLayerable
FUNC 81040 14c 0 QCPLayoutElement::QCPLayoutElement
FUNC 81190 1b 0 QCPLayout::QCPLayout
FUNC 811b0 49 0 QCPLayoutGrid::QCPLayoutGrid
FUNC 81200 41c 0 QCPLegend::QCPLegend
FUNC 81620 3c 0 QCPLayoutInset::QCPLayoutInset
FUNC 81660 18b 0 QCPAbstractLegendItem::QCPAbstractLegendItem
FUNC 817f0 2d 0 QCPPlottableLegendItem::QCPPlottableLegendItem
FUNC 81820 7f 0 QCPAbstractPlottable::addToLegend
FUNC 818a0 2c0 0 QCPPlotTitle::QCPPlotTitle
FUNC 81b60 2df 0 QCPGrid::QCPGrid
FUNC 81e40 412 0 QCPAbstractPlottable::QCPAbstractPlottable
FUNC 82260 18b 0 QCPBars::QCPBars
FUNC 823f0 272 0 QCPFinancial::QCPFinancial
FUNC 82670 1d2 0 QCPAbstractItem::QCPAbstractItem
FUNC 82850 242 0 QCPItemStraightLine::QCPItemStraightLine
FUNC 82aa0 259 0 QCPItemLine::QCPItemLine
FUNC 82d00 369 0 QCPItemCurve::QCPItemCurve
FUNC 83070 5ac 0 QCPItemRect::QCPItemRect
FUNC 83620 73a 0 QCPItemText::QCPItemText
FUNC 83d60 715 0 QCPItemEllipse::QCPItemEllipse
FUNC 84480 291 0 QCPItemTracer::QCPItemTracer
FUNC 84720 2d7 0 QCPItemBracket::QCPItemBracket
FUNC 84a00 85d 0 QCPAxis::QCPAxis
FUNC 85260 650 0 QCPAxisRect::addAxis
FUNC 858b0 f8 0 QCPAxisRect::addAxes
FUNC 859b0 554 0 QCPAxisRect::setupFullAxesBox
FUNC 85f10 358 0 QCustomPlot::addPlottable
FUNC 86270 3d9 0 QCPPlotTitle::QCPPlotTitle
FUNC 86650 300 0 QCustomPlot::removeLayer
FUNC 86950 126 0 QCPLayer::~QCPLayer
FUNC 86a80 12 0 QCPLayer::~QCPLayer
FUNC 86aa0 355 0 QCPItemCurve::selectTest
FUNC 86e00 a6 0 QCPScatterStyle::QCPScatterStyle
FUNC 86eb0 b9 0 QCPScatterStyle::QCPScatterStyle
FUNC 86f70 153f 0 QCPAxisPainterPrivate::draw
FUNC 884b0 14c 0 QCustomPlot::~QCustomPlot
FUNC 88610 12 0 QCustomPlot::~QCustomPlot
FUNC 88640 44 0 QCustomPlot::setBackground
FUNC 88690 60 0 QCustomPlot::setBackground
FUNC 886f0 7b 0 QCustomPlot::resizeEvent
FUNC 88770 280 0 QCustomPlot::drawBackground
FUNC 889f0 250 0 QCustomPlot::draw
FUNC 88c40 48c 0 QCustomPlot::toPixmap
FUNC 890d0 6f 0 QCustomPlot::saveRastered
FUNC 89140 f 0 QCustomPlot::savePng
FUNC 89150 f 0 QCustomPlot::saveJpg
FUNC 89160 12 0 QCustomPlot::saveBmp
FUNC 89180 905 0 QCPAxisRect::QCPAxisRect
FUNC 89a90 d00 0 QCustomPlot::QCustomPlot
FUNC 8a790 1ad 0 QCPAxisRect::~QCPAxisRect
FUNC 8a940 12 0 QCPAxisRect::~QCPAxisRect
FUNC 8a960 44 0 QCPAxisRect::setBackground
FUNC 8a9b0 60 0 QCPAxisRect::setBackground
FUNC 8aa10 2c3 0 QCPAxisRect::drawBackground
FUNC 8ace0 5 0 QCPAxisRect::draw
FUNC 8acf0 292 0 QCPGraph::QCPGraph
FUNC 8af90 31a 0 QCustomPlot::addGraph
FUNC 8b2b0 1a7 0 QCPColorMap::drawLegendIcon
FUNC 8b460 4f 0 QCPItemPixmap::~QCPItemPixmap
FUNC 8b4b0 12 0 QCPItemPixmap::~QCPItemPixmap
FUNC 8b4d0 1a8 0 QCPCurve::~QCPCurve
FUNC 8b680 12 0 QCPCurve::~QCPCurve
FUNC 8b6a0 1d8 0 QCPGraph::~QCPGraph
FUNC 8b880 12 0 QCPGraph::~QCPGraph
FUNC 8b8a0 a3 0 QCPAxisPainterPrivate::clearCache
FUNC 8b950 178 0 QCPCurve::QCPCurve
FUNC 8bad0 29d 0 QCPAxisPainterPrivate::~QCPAxisPainterPrivate
FUNC 8bd70 12 0 QCPAxisPainterPrivate::~QCPAxisPainterPrivate
FUNC 8bd90 3d7 0 QCPStatisticalBox::QCPStatisticalBox
FUNC 8c170 72d 0 QCPAxisPainterPrivate::placeTickLabel
FUNC 8c8a0 443 0 QCPCurve::drawLegendIcon
FUNC 8ccf0 443 0 QCPGraph::drawLegendIcon
FUNC 8d140 4b2 0 QCustomPlot::savePdf
FUNC 8d600 28f 0 QCustomPlot::mousePressEvent
FUNC 8d890 4d 0 QCustomPlot::mouseMoveEvent
FUNC 8d8e0 650 0 QCustomPlot::mouseReleaseEvent
FUNC 8df30 e7 0 QCustomPlot::wheelEvent
FUNC 8e020 690 0 QCPColorScaleAxisRectPrivate::QCPColorScaleAxisRectPrivate
FUNC 8e6b0 16c 0 QCPColorScale::QCPColorScale
FUNC 8e820 4bd 0 QCPColorScaleAxisRectPrivate::updateGradientImage
FUNC 8ece0 1a4 0 QCPColorScaleAxisRectPrivate::draw
FUNC 8ee90 15f 0 QCPColorMap::QCPColorMap
FUNC 8eff0 21a 0 QCPColorMap::~QCPColorMap
FUNC 8f210 12 0 QCPColorMap::~QCPColorMap
FUNC 8f230 1f2 0 QCPColorMap::updateLegendIcon
FUNC 8f430 4dc 0 QCPColorMap::updateMapImage
FUNC 8f910 a56 0 QCPColorMap::draw
FUNC 90370 236 0 QCPItemPixmap::updateScaledPixmap
FUNC 905b0 2f 0 QCPItemPixmap::setScaled
FUNC 905e0 522 0 QCPItemPixmap::QCPItemPixmap
FUNC 90b10 1fa 0 QCPItemPixmap::draw
FUNC 90d10 3 0 QCPItemAnchor::toQCPItemPosition
FUNC 90d20 4 0 QCPItemPosition::toQCPItemPosition
FUNC 90d30 2 0 QHash<QCP::MarginSide, QCPMarginGroup*>::deleteNode2
FUNC 90d40 2 0 QtMetaTypePrivate::QMetaTypeFunctionHelper<QCPAxis::SelectablePart, true>::Destruct
FUNC 90d50 13 0 QtMetaTypePrivate::QMetaTypeFunctionHelper<QCPAxis::SelectablePart, true>::Construct
FUNC 90d70 2 0 QtMetaTypePrivate::QMetaTypeFunctionHelper<QCPLegend::SelectablePart, true>::Destruct
FUNC 90d80 13 0 QtMetaTypePrivate::QMetaTypeFunctionHelper<QCPLegend::SelectablePart, true>::Construct
FUNC 90da0 2 0 QHash<QCPItemPosition*, QHashDummyValue>::deleteNode2
FUNC 90db0 22 0 QHash<QCP::MarginSide, QCPMarginGroup*>::duplicateNode
FUNC 90de0 55 0 QHash<QString, QCache<QString, QCPAxisPainterPrivate::CachedLabel>::Node>::duplicateNode
FUNC 90e40 1c 0 QHash<QCPItemPosition*, QHashDummyValue>::duplicateNode
FUNC 90e60 38 0 QHash<QString, QCache<QString, QCPAxisPainterPrivate::CachedLabel>::Node>::deleteNode2
FUNC 90ea0 9c 0 QPointF::toPoint
FUNC 90f40 24 0 QDebug::operator<<
FUNC 90f70 aa 0 QDebug::operator<<
FUNC 91020 ac 0 QMetaTypeId<QCPAxis::SelectablePart>::qt_metatype_id
FUNC 910d0 ac 0 QMetaTypeId<QCPLegend::SelectablePart>::qt_metatype_id
FUNC 91180 32 0 QCPPainter::drawLine
FUNC 911c0 87 0 QCPAxisPainterPrivate::TickLabelData::~TickLabelData
FUNC 91250 37 0 QVector<QPoint>::~QVector
FUNC 91290 37 0 QVector<QPointF>::~QVector
FUNC 912d0 105 0 QVector<QPointF>::QVector
FUNC 913e0 77 0 QList<QCPLayerable*>::QList
FUNC 91460 32 0 QList<QCPLayerable*>::~QList
FUNC 914a0 32 0 QList<QCPLayoutElement*>::~QList
FUNC 914e0 9 0 QHash<QCP::MarginSide, QList<QCPLayoutElement*> >::deleteNode2
FUNC 914f0 77 0 QList<QCPLayoutElement*>::QList
FUNC 91570 32 0 QHash<QCP::MarginSide, QList<QCPLayoutElement*> >::duplicateNode
FUNC 915b0 32 0 QList<double>::~QList
FUNC 915f0 77 0 QList<QCPItemPosition*>::QList
FUNC 91670 32 0 QList<QCPItemPosition*>::~QList
FUNC 916b0 32 0 QList<QCPItemAnchor*>::~QList
FUNC 916f0 64 0 QMap<double, QColor>::~QMap
FUNC 91760 37 0 QVector<unsigned int>::~QVector
FUNC 917a0 77 0 QList<QCPBars*>::QList
FUNC 91820 32 0 QList<QCPBars*>::~QList
FUNC 91860 38 0 QHash<QCP::MarginSide, QList<QCPLayoutElement*> >::~QHash
FUNC 918a0 37 0 QVector<QCP::MarginSide>::~QVector
FUNC 918e0 32 0 QList<QCP::MarginSide>::~QList
FUNC 91920 e3 0 QList<QCP::MarginSide>::QList
FUNC 91a10 6a 0 QVector<double>::QVector
FUNC 91a80 6a 0 QVector<int>::QVector
FUNC 91af0 db 0 QVector<int>::QVector
FUNC 91bd0 90 0 QVector<int>::QVector
FUNC 91c60 127 0 QVector<double>::operator=
FUNC 91d90 164 0 QVector<QString>::operator=
FUNC 91f00 32 0 QList<QCPAbstractPlottable*>::~QList
FUNC 91f40 15b 0 QList<QCPAbstractPlottable*>::append
FUNC 920a0 32 0 QList<QCPGraph*>::~QList
FUNC 920e0 15b 0 QList<QCPGraph*>::append
FUNC 92240 32 0 QList<QCPAbstractItem*>::~QList
FUNC 92280 15b 0 QList<QCPAbstractItem*>::append
FUNC 923e0 17d 0 QVector<double>::clear
FUNC 92560 32 0 QList<QCPAxisRect*>::~QList
FUNC 925a0 32 0 QList<QLineF>::~QList
FUNC 925e0 15b 0 QList<QCPItemPosition*>::append
FUNC 92740 32 0 QList<QCPLayer*>::~QList
FUNC 92780 f5 0 QList<QCPAbstractPlottable*>::removeOne
FUNC 92880 f5 0 QList<QCPLayer*>::removeOne
FUNC 92980 15b 0 QList<QCPAxisRect*>::append
FUNC 92ae0 32 0 QList<QCPAxis*>::~QList
FUNC 92b20 9 0 QHash<QCPAxis::AxisType, QList<QCPAxis*> >::deleteNode2
FUNC 92b30 38 0 QHash<QCPAxis::AxisType, QList<QCPAxis*> >::~QHash
FUNC 92b70 77 0 QList<QCPAxis*>::QList
FUNC 92bf0 32 0 QHash<QCPAxis::AxisType, QList<QCPAxis*> >::duplicateNode
FUNC 92c30 f5 0 QList<QCPAxis*>::removeOne
FUNC 92d30 32 0 QList<QCPAbstractLegendItem*>::~QList
FUNC 92d70 32 0 QList<QCPAxis::AxisType>::~QList
FUNC 92db0 e3 0 QList<QCPAxis::AxisType>::QList
FUNC 92ea0 127 0 QVector<unsigned int>::operator=
FUNC 92fd0 32 0 QList<QCPColorMap*>::~QList
FUNC 93010 37 0 QVector<unsigned int*>::~QVector
FUNC 93050 37 0 QVector<QCPData>::~QVector
FUNC 93090 182 0 QVector<QCPData>::operator=
FUNC 93220 64 0 QMap<double, QCPCurveData>::~QMap
FUNC 93290 32 0 QList<QPointF>::~QList
FUNC 932d0 15b 0 QList<QCPBars*>::append
FUNC 93430 f5 0 QList<QCPBars*>::removeOne
FUNC 93530 32 0 QList<const QCPBars*>::~QList
FUNC 93570 64 0 QMap<double, QCPBarData>::~QMap
FUNC 935e0 64 0 QMap<double, QCPFinancialData>::~QMap
FUNC 93650 32 0 QList<QVector2D>::~QList
FUNC 93690 32 0 QList<QPolygonF>::~QList
FUNC 936d0 2a 0 QWeakPointer<QObject>::~QWeakPointer
FUNC 93700 82 0 QHash<QCP::MarginSide, QList<QCPLayoutElement*> >::findNode
FUNC 93790 82 0 QHash<QCP::MarginSide, QCPMarginGroup*>::findNode
FUNC 93820 d6 0 QMapNode<double, QColor>::copy
FUNC 93900 f4 0 QList<QCPLayerable*>::detach_helper_grow
FUNC 93a00 66 0 QList<QCPLayerable*>::append
FUNC 93a70 99 0 QWeakPointer<QObject>::assign<QObject>
FUNC 93b10 f4 0 QList<QCPLayoutElement*>::detach_helper_grow
FUNC 93c10 66 0 QList<QCPLayoutElement*>::append
FUNC 93c80 1d4 0 QVector<QCP::MarginSide>::reallocData
FUNC 93e60 9f 0 QVector<QCP::MarginSide>::append
FUNC 93f00 76 0 QList<QCPLayoutElement*>::detach_helper
FUNC 93f80 22 0 QList<QCPLayoutElement*>::reserve
FUNC 93fb0 c8 0 QList<QCPLayoutElement*>::operator+=
FUNC 94080 222 0 QList<QList<QCPLayoutElement*> >::detach_helper_grow
FUNC 942b0 ac 0 QList<QList<QCPLayoutElement*> >::append
FUNC 94360 f4 0 QList<double>::detach_helper_grow
FUNC 94460 66 0 QList<double>::append
FUNC 944d0 234 0 QList<QCPLayoutInset::InsetPlacement>::detach_helper_grow
FUNC 94710 a8 0 QList<QCPLayoutInset::InsetPlacement>::append
FUNC 947c0 f4 0 QList<QFlags<Qt::AlignmentFlag> >::detach_helper_grow
FUNC 948c0 64 0 QList<QFlags<Qt::AlignmentFlag> >::append
FUNC 94930 26c 0 QList<QRectF>::detach_helper_grow
FUNC 94ba0 b6 0 QList<QRectF>::append
FUNC 94c60 3a 0 QVector<double>::resize
FUNC 94ca0 43 0 QVector<double>::reserve
FUNC 94cf0 cb 0 QList<double>::toVector
FUNC 94dc0 43 0 QVector<QString>::reserve
FUNC 94e10 94 0 QList<QCPItemPosition*>::reserve
FUNC 94eb0 9b 0 QSet<QCPItemPosition*>::toList
FUNC 94f50 f4 0 QList<QCPItemAnchor*>::detach_helper_grow
FUNC 95050 66 0 QList<QCPItemAnchor*>::append
FUNC 950c0 f4 0 QList<QCPLayer*>::detach_helper_grow
FUNC 951c0 66 0 QList<QCPLayer*>::append
FUNC 95230 77 0 QList<QCPAbstractPlottable*>::QList
FUNC 952b0 77 0 QList<QCPAbstractItem*>::QList
FUNC 95330 77 0 QList<QCPLayer*>::QList
FUNC 953b0 77 0 QList<QCPAxisRect*>::QList
FUNC 95430 f4 0 QList<QCPAxis*>::detach_helper_grow
FUNC 95530 66 0 QList<QCPAxis*>::append
FUNC 955a0 c8 0 QList<QCPAxis*>::operator+=
FUNC 95670 f4 0 QList<QCPLegend*>::detach_helper_grow
FUNC 95770 66 0 QList<QCPLegend*>::append
FUNC 957e0 1bb 0 QVector<unsigned int>::reallocData
FUNC 959a0 3a 0 QVector<unsigned int>::resize
FUNC 959e0 82 0 QHash<QCPAxis::AxisType, QList<QCPAxis*> >::findNode
FUNC 95a70 f4 0 QList<QCPAbstractLegendItem*>::detach_helper_grow
FUNC 95b70 66 0 QList<QCPAbstractLegendItem*>::append
FUNC 95be0 f4 0 QList<QCPColorMap*>::detach_helper_grow
FUNC 95ce0 66 0 QList<QCPColorMap*>::append
FUNC 95d50 1bb 0 QVector<unsigned int*>::reallocData
FUNC 95f10 94 0 QVector<unsigned int*>::append
FUNC 95fb0 53 0 QMapData<double, QCPData>::findNode
FUNC 96010 24b 0 QVector<QPointF>::reallocData
FUNC 96260 43 0 QVector<QPointF>::reserve
FUNC 962b0 3a 0 QVector<QPointF>::resize
FUNC 962f0 d8 0 QVector<QPointF>::append
FUNC 963d0 43 0 QVector<QPointF>::detach
FUNC 96420 5b 0 QVector<QPointF>::last
FUNC 96480 b5 0 QVector<QPointF>::remove
FUNC 96540 2cb 0 QVector<QCPData>::reallocData
FUNC 96810 16c 0 QVector<QCPData>::append
FUNC 96980 53 0 QMapData<double, QCPCurveData>::findNode
FUNC 969e0 c0 0 QVector<QPointF>::operator+=
FUNC 96aa0 23c 0 QList<QPointF>::detach_helper_grow
FUNC 96ce0 ac 0 QList<QPointF>::append
FUNC 96d90 ed 0 QList<QPointF>::QList
FUNC 96e80 f4 0 QList<const QCPBars*>::detach_helper_grow
FUNC 96f80 66 0 QList<const QCPBars*>::append
FUNC 96ff0 53 0 QMapData<double, QCPBarData>::findNode
FUNC 97050 ad 0 QVector<double>::operator+=
FUNC 97100 53 0 QMapData<double, QCPFinancialData>::findNode
FUNC 97160 ed 0 QList<QVector2D>::detach_helper_grow
FUNC 97250 5a 0 QList<QVector2D>::append
FUNC 972b0 66 0 QHash<QCP::MarginSide, QCPMarginGroup*>::detach_helper
FUNC 97320 1c0 0 QVector<bool>::reallocData
FUNC 974e0 66 0 QHash<QCP::MarginSide, QList<QCPLayoutElement*> >::detach_helper
FUNC 97550 234 0 QList<QCP::MarginSide>::detach_helper_grow
FUNC 97790 a8 0 QList<QCP::MarginSide>::append
FUNC 97840 b3 0 QHash<QString, QCache<QString, QCPAxisPainterPrivate::CachedLabel>::Node>::findNode
FUNC 97900 92 0 QHash<QCPItemPosition*, QHashDummyValue>::findNode
FUNC 979a0 26c 0 QList<QLineF>::detach_helper_grow
FUNC 97c10 b6 0 QList<QLineF>::append
FUNC 97cd0 1bb 0 QVector<QCPLayoutElement*>::reallocData
FUNC 97e90 94 0 QVector<QCPLayoutElement*>::append
FUNC 97f30 a6 0 QMap<double, QColor>::detach_helper
FUNC 97fe0 66 0 QHash<QCPAxis::AxisType, QList<QCPAxis*> >::detach_helper
FUNC 98050 234 0 QList<QCPAxis::AxisType>::detach_helper_grow
FUNC 98290 a8 0 QList<QCPAxis::AxisType>::append
FUNC 98340 e9 0 QMap<double, QCPData>::erase
FUNC 98430 43 0 QVector<QCPData>::detach
FUNC 98480 d6 0 QMapNode<double, QCPCurveData>::copy
FUNC 98560 a6 0 QMap<double, QCPCurveData>::detach_helper
FUNC 98610 e9 0 QMap<double, QCPCurveData>::erase
FUNC 98700 c6 0 QMapNode<double, QCPBarData>::copy
FUNC 987d0 a6 0 QMap<double, QCPBarData>::detach_helper
FUNC 98880 e9 0 QMap<double, QCPBarData>::erase
FUNC 98970 e6 0 QMapNode<double, QCPFinancialData>::copy
FUNC 98a60 a6 0 QMap<double, QCPFinancialData>::detach_helper
FUNC 98b10 e9 0 QMap<double, QCPFinancialData>::erase
FUNC 98c00 d8 0 QMap<double, QCPFinancialData>::insert
FUNC 98ce0 23b 0 QVector<QPoint>::reallocData
FUNC 98f20 a7 0 QVector<QPoint>::append
FUNC 98fd0 ed 0 std::__find<QCPBars* const*, QCPBars*>
FUNC 990c0 76 0 QList<int>::detach_helper
FUNC 99140 2a9 0 operator<< <int>
FUNC 993f0 98 0 QList<int>::removeOne
FUNC 99490 76 0 QList<double>::detach_helper
FUNC 99510 2a9 0 operator<< <double>
FUNC 997c0 105 0 QList<QList<QCPLayoutElement*> >::detach_helper
FUNC 998d0 112 0 QList<QCPLayoutInset::InsetPlacement>::detach_helper
FUNC 999f0 76 0 QList<QFlags<Qt::AlignmentFlag> >::detach_helper
FUNC 99a70 12a 0 QList<QRectF>::detach_helper
FUNC 99ba0 66 0 QHash<QString, QCache<QString, QCPAxisPainterPrivate::CachedLabel>::Node>::detach_helper
FUNC 99c10 142 0 QHash<QString, QCache<QString, QCPAxisPainterPrivate::CachedLabel>::Node>::remove
FUNC 99d60 66 0 QHash<QCPItemPosition*, QHashDummyValue>::detach_helper
FUNC 99dd0 135 0 QHash<QCPItemPosition*, QHashDummyValue>::remove
FUNC 99f10 ed 0 std::__find<QCPAbstractPlottable* const*, QCPAbstractPlottable*>
FUNC 9a000 76 0 QList<QCPGraph*>::detach_helper
FUNC 9a080 98 0 QList<QCPGraph*>::removeOne
FUNC 9a120 ed 0 std::__find<QCPAbstractItem* const*, QCPAbstractItem*>
FUNC 9a210 76 0 QList<QCPAbstractItem*>::detach_helper
FUNC 9a290 98 0 QList<QCPAbstractItem*>::removeOne
FUNC 9a330 ed 0 std::__find<QCPLayer* const*, QCPLayer*>
FUNC 9a420 ed 0 std::__find<QCPAxis* const*, QCPAxis*>
FUNC 9a510 11a 0 QList<QPointF>::detach_helper
FUNC 9a630 76 0 QList<QCPLayerable*>::detach_helper
FUNC 9a6b0 c0 0 QCPAbstractPlottable::~QCPAbstractPlottable
FUNC 9a770 d3 0 QCPAbstractPlottable::~QCPAbstractPlottable
FUNC 9a850 238 0 QList<QPolygonF>::detach_helper
FUNC 9aa90 29 0 QCPScatterStyle::~QCPScatterStyle
FUNC 9aac0 301 0 QCache<QString, QCPAxisPainterPrivate::CachedLabel>::insert
FUNC 9add0 234 0 GZipFile::readLine
FUNC 9b010 1a8 0 GZipFile::readLine
FUNC 9b1c0 37 0 GZipFile::completionRate
FUNC 9b200 2c 0 GZipFile::close
FUNC 9b230 5 0 GZipFile::~GZipFile
FUNC 9b240 1ae 0 GZipFile::GZipFile
FUNC 9b3f0 37 0 operator<<
FUNC 9b430 27 0 operator>>
FUNC 9b460 13 0 getAppDataDir
FUNC 9b480 13 0 getDocumentDir
FUNC 9b4a0 298 0 getVersionStr
FUNC 9b740 160 0 splitString
FUNC 9b8a0 1c0 0 QList<QString>::detach_helper_grow
FUNC 9ba60 197 0 std::vector<std::basic_string<char, std::char_traits<char>, std::allocator<char> >, std::allocator<std::basic_string<char, std::char_traits<char>, std::allocator<char> > > >::_M_emplace_back_aux<std::basic_string<char, std::char_traits<char>, std::allocator<char> > >
FUNC 9bc00 35 0 std::vector<std::basic_string<char, std::char_traits<char>, std::allocator<char> >, std::allocator<std::basic_string<char, std::char_traits<char>, std::allocator<char> > > >::emplace_back<std::basic_string<char, std::char_traits<char>, std::allocator<char> > >
FUNC 9bc40 36 0 StatisticsNameModel::canFetchMore
FUNC 9bc80 24 0 StatisticsNameModel::rowCount
FUNC 9bcb0 9e 0 StatisticsNameModel::data
FUNC 9bd50 8a 0 StatisticsNameModel::fetchMore
FUNC 9bde0 10e 0 StatisticsNameModel::~StatisticsNameModel
FUNC 9bef0 12 0 StatisticsNameModel::~StatisticsNameModel
FUNC 9bf10 6e 0 StatisticsNameModel::beforeDataContainerUpdate
FUNC 9bf80 5 0 StatisticsNameModel::getDataContainer
FUNC 9bf90 d 0 StatisticsNameModel::actualCount
FUNC 9bfa0 b2 0 StatisticsNameModel::StatisticsNameModel
FUNC 9c060 b5 0 StatisticsNameModel::endDataContainerUpdate
FUNC 9c120 2d7 0 StatisticsNameModel::setFilterPattern
FUNC 9c400 c9 0 StatisticsNameModel::clearStatisticsNames
FUNC 9c4d0 97 0 std::vector<std::basic_string<char, std::char_traits<char>, std::allocator<char> >, std::allocator<std::basic_string<char, std::char_traits<char>, std::allocator<char> > > >::~vector
FUNC 9c570 bc 0 std::vector<int, std::allocator<int> >::reserve
FUNC 9c630 d6 0 std::vector<int, std::allocator<int> >::_M_emplace_back_aux<int const&>
FUNC 9c710 155 0 std::vector<int, std::allocator<int> >::_M_default_append
FUNC 9c870 2e 0 AboutDialog::~AboutDialog
FUNC 9c8b0 12 0 AboutDialog::~AboutDialog
FUNC 9c8e0 556 0 AboutDialog::AboutDialog
FUNC 9ce40 d 0 AboutDialog::setLabelText
FUNC 9ce50 2d 0 qInitResources_VisualStatistics
FUNC 9ce80 2d 0 qCleanupResources_VisualStatistics
FUNC 9ceb0 5 0 initializer::~initializer
FUNC 9cec0 18 0 ProgressBar::metaObject
FUNC 9cee0 18 0 MainWindow::metaObject
FUNC 9cf00 10 0 MainWindow::aboutToBeClosed
FUNC 9cf10 11d 0 MainWindow::qt_static_metacall
FUNC 9d030 1b 0 ProgressBar::qt_static_metacall
FUNC 9d050 4c 0 ProgressBar::qt_metacast
FUNC 9d0a0 60 0 ProgressBar::qt_metacall
FUNC 9d100 4c 0 MainWindow::qt_metacast
FUNC 9d150 69 0 MainWindow::qt_metacall
FUNC 9d1c0 1d 0 ProgressBar::~ProgressBar
FUNC 9d1f0 2a 0 ProgressBar::~ProgressBar
FUNC 9d230 18 0 PlotWindow::metaObject
FUNC 9d250 e2 0 PlotWindow::qt_static_metacall
FUNC 9d340 12 0 PlotWindow::qt_static_metacall
FUNC 9d360 4c 0 PlotWindow::qt_metacast
FUNC 9d3b0 66 0 PlotWindow::qt_metacall
FUNC 9d420 2 0 QCPMarginGroup::qt_static_metacall
FUNC 9d430 2 0 QCPLayout::qt_static_metacall
FUNC 9d440 2 0 QCPLayoutInset::qt_static_metacall
FUNC 9d450 2 0 QCPPlottableLegendItem::qt_static_metacall
FUNC 9d460 18 0 QCPLayer::metaObject
FUNC 9d480 18 0 QCPLayerable::metaObject
FUNC 9d4a0 18 0 QCPMarginGroup::metaObject
FUNC 9d4c0 18 0 QCPLayoutElement::metaObject
FUNC 9d4e0 18 0 QCPLayout::metaObject
FUNC 9d500 18 0 QCPLayoutGrid::metaObject
FUNC 9d520 18 0 QCPLayoutInset::metaObject
FUNC 9d540 18 0 QCPGrid::metaObject
FUNC 9d560 18 0 QCPAxis::metaObject
FUNC 9d580 18 0 QCPAbstractPlottable::metaObject
FUNC 9d5a0 18 0 QCPAbstractItem::metaObject
FUNC 9d5c0 18 0 QCustomPlot::metaObject
FUNC 9d5e0 18 0 QCPAxisRect::metaObject
FUNC 9d600 18 0 QCPAbstractLegendItem::metaObject
FUNC 9d620 18 0 QCPPlottableLegendItem::metaObject
FUNC 9d640 18 0 QCPLegend::metaObject
FUNC 9d660 18 0 QCPPlotTitle::metaObject
FUNC 9d680 18 0 QCPColorScaleAxisRectPrivate::metaObject
FUNC 9d6a0 18 0 QCPColorScale::metaObject
FUNC 9d6c0 18 0 QCPGraph::metaObject
FUNC 9d6e0 18 0 QCPCurve::metaObject
FUNC 9d700 18 0 QCPBarsGroup::metaObject
FUNC 9d720 18 0 QCPBars::metaObject
FUNC 9d740 18 0 QCPStatisticalBox::metaObject
FUNC 9d760 18 0 QCPColorMap::metaObject
FUNC 9d780 18 0 QCPFinancial::metaObject
FUNC 9d7a0 18 0 QCPItemStraightLine::metaObject
FUNC 9d7c0 18 0 QCPItemLine::metaObject
FUNC 9d7e0 18 0 QCPItemCurve::metaObject
FUNC 9d800 18 0 QCPItemRect::metaObject
FUNC 9d820 18 0 QCPItemText::metaObject
FUNC 9d840 18 0 QCPItemEllipse::metaObject
FUNC 9d860 18 0 QCPItemPixmap::metaObject
FUNC 9d880 18 0 QCPItemTracer::metaObject
FUNC 9d8a0 18 0 QCPItemBracket::metaObject
FUNC 9d8c0 34 0 QCPLayerable::layerChanged
FUNC 9d900 10 0 QCPAxis::ticksRequest
FUNC 9d910 2a 0 QCPAxis::rangeChanged
FUNC 9d940 2f 0 QCPAxis::rangeChanged
FUNC 9d970 36 0 QCPAxis::scaleTypeChanged
FUNC 9d9b0 2a 0 QCPAxis::selectionChanged
FUNC 9d9e0 2a 0 QCPAxis::selectableChanged
FUNC 9da10 34 0 QCPAbstractPlottable::selectionChanged
FUNC 9da50 37 0 QCPAbstractPlottable::selectableChanged
FUNC 9da90 34 0 QCPAbstractItem::selectionChanged
FUNC 9dad0 37 0 QCPAbstractItem::selectableChanged
FUNC 9db10 34 0 QCustomPlot::mouseDoubleClick
FUNC 9db50 37 0 QCustomPlot::mousePress
FUNC 9db90 37 0 QCustomPlot::mouseMove
FUNC 9dbd0 37 0 QCustomPlot::mouseRelease
FUNC 9dc10 37 0 QCustomPlot::mouseWheel
FUNC 9dc50 40 0 QCustomPlot::plottableClick
FUNC 9dc90 40 0 QCustomPlot::plottableDoubleClick
FUNC 9dcd0 40 0 QCustomPlot::itemClick
FUNC 9dd10 40 0 QCustomPlot::itemDoubleClick
FUNC 9dd50 54 0 QCustomPlot::axisClick
FUNC 9ddb0 54 0 QCustomPlot::axisDoubleClick
FUNC 9de10 55 0 QCustomPlot::legendClick
FUNC 9de70 55 0 QCustomPlot::legendDoubleClick
FUNC 9ded0 40 0 QCustomPlot::titleClick
FUNC 9df10 40 0 QCustomPlot::titleDoubleClick
FUNC 9df50 13 0 QCustomPlot::selectionChangedByUser
FUNC 9df70 13 0 QCustomPlot::beforeReplot
FUNC 9df90 13 0 QCustomPlot::afterReplot
FUNC 9dfb0 34 0 QCPAbstractLegendItem::selectionChanged
FUNC 9dff0 37 0 QCPAbstractLegendItem::selectableChanged
FUNC 9e030 2d 0 QCPLegend::selectionChanged
FUNC 9e060 30 0 QCPLegend::selectableChanged
FUNC 9e090 34 0 QCPPlotTitle::selectionChanged
FUNC 9e0d0 37 0 QCPPlotTitle::selectableChanged
FUNC 9e110 45 0 QCPColorScale::dataRangeChanged
FUNC 9e160 36 0 QCPColorScale::dataScaleTypeChanged
FUNC 9e1a0 2a 0 QCPColorScale::gradientChanged
FUNC 9e1d0 45 0 QCPColorMap::dataRangeChanged
FUNC 9e220 36 0 QCPColorMap::dataScaleTypeChanged
FUNC 9e260 2a 0 QCPColorMap::gradientChanged
FUNC 9e290 13a 0 QCPGrid::qt_static_metacall
FUNC 9e3d0 18a 0 QCPFinancial::qt_static_metacall
FUNC 9e560 2b 0 QCPColorScaleAxisRectPrivate::qt_static_metacall
FUNC 9e590 12 0 QCPColorScaleAxisRectPrivate::qt_static_metacall
FUNC 9e5b0 69 0 QCPBarsGroup::qt_static_metacall
FUNC 9e620 87 0 QCPItemStraightLine::qt_static_metacall
FUNC 9e6b0 15a 0 QCPItemLine::qt_static_metacall
FUNC 9e810 15a 0 QCPItemCurve::qt_static_metacall
FUNC 9e970 fe 0 QCPItemBracket::qt_static_metacall
FUNC 9ea70 34 0 QMapNode<double, QColor>::destroySubTree
FUNC 9eab0 12a 0 QCPItemRect::qt_static_metacall
FUNC 9ebe0 12a 0 QCPItemEllipse::qt_static_metacall
FUNC 9ed10 369 0 QCPLegend::qt_static_metacall
FUNC 9f080 2b9 0 QCPPlotTitle::qt_static_metacall
FUNC 9f340 30a 0 QCPItemText::qt_static_metacall
FUNC 9f650 409 0 QCPLayerable::qt_static_metacall
FUNC 9fa60 25c 0 QCPLayer::qt_static_metacall
FUNC 9fcc0 2ef 0 QCPLayoutElement::qt_static_metacall
FUNC 9ffb0 14a 0 QCPLayoutGrid::qt_static_metacall
FUNC a0100 1b9 0 QCPAbstractItem::qt_static_metacall
FUNC a02c0 c54 0 QCPAxis::qt_static_metacall
FUNC a0f20 349 0 QCPAbstractPlottable::qt_static_metacall
FUNC a1270 2a9 0 QCPAbstractLegendItem::qt_static_metacall
FUNC a1520 33f 0 QCPItemTracer::qt_static_metacall
FUNC a1860 3ac 0 QCPBars::qt_static_metacall
FUNC a1c10 69f 0 QCPColorScale::qt_static_metacall
FUNC a22b0 8d2 0 QCPColorMap::qt_static_metacall
FUNC a2b90 4c 0 QCPLayer::qt_metacast
FUNC a2be0 4c 0 QCPLayerable::qt_metacast
FUNC a2c30 4c 0 QCPLayoutElement::qt_metacast
FUNC a2c80 4c 0 QCPLayout::qt_metacast
FUNC a2cd0 4c 0 QCPLayoutGrid::qt_metacast
FUNC a2d20 4c 0 QCPLegend::qt_metacast
FUNC a2d70 4c 0 QCPLayoutInset::qt_metacast
FUNC a2dc0 4c 0 QCPAxisRect::qt_metacast
FUNC a2e10 4c 0 QCPColorScaleAxisRectPrivate::qt_metacast
FUNC a2e60 4c 0 QCPAbstractLegendItem::qt_metacast
FUNC a2eb0 4c 0 QCPPlottableLegendItem::qt_metacast
FUNC a2f00 4c 0 QCPPlotTitle::qt_metacast
FUNC a2f50 4c 0 QCPColorScale::qt_metacast
FUNC a2fa0 4c 0 QCPGrid::qt_metacast
FUNC a2ff0 4c 0 QCPAxis::qt_metacast
FUNC a3040 4c 0 QCPAbstractPlottable::qt_metacast
FUNC a3090 4c 0 QCPGraph::qt_metacast
FUNC a30e0 4c 0 QCPCurve::qt_metacast
FUNC a3130 4c 0 QCPBars::qt_metacast
FUNC a3180 4c 0 QCPStatisticalBox::qt_metacast
FUNC a31d0 4c 0 QCPColorMap::qt_metacast
FUNC a3220 4c 0 QCPFinancial::qt_metacast
FUNC a3270 4c 0 QCPAbstractItem::qt_metacast
FUNC a32c0 4c 0 QCPItemStraightLine::qt_metacast
FUNC a3310 4c 0 QCPItemLine::qt_metacast
FUNC a3360 4c 0 QCPItemCurve::qt_metacast
FUNC a33b0 4c 0 QCPItemRect::qt_metacast
FUNC a3400 4c 0 QCPItemText::qt_metacast
FUNC a3450 4c 0 QCPItemEllipse::qt_metacast
FUNC a34a0 4c 0 QCPItemPixmap::qt_metacast
FUNC a34f0 4c 0 QCPItemTracer::qt_metacast
FUNC a3540 4c 0 QCPItemBracket::qt_metacast
FUNC a3590 4c 0 QCPMarginGroup::qt_metacast
FUNC a35e0 4c 0 QCPBarsGroup::qt_metacast
FUNC a3630 84 0 QCPLayer::qt_metacall
FUNC a36c0 ec 0 QCPLayerable::qt_metacall
FUNC a37b0 84 0 QCPLayoutElement::qt_metacall
FUNC a3840 5 0 QCPLayout::qt_metacall
FUNC a3850 84 0 QCPLayoutGrid::qt_metacall
FUNC a38e0 d9 0 QCPLegend::qt_metacall
FUNC a39c0 5 0 QCPLayoutInset::qt_metacall
FUNC a39d0 d9 0 QCPAbstractLegendItem::qt_metacall
FUNC a3ab0 5 0 QCPPlottableLegendItem::qt_metacall
FUNC a3ac0 d9 0 QCPPlotTitle::qt_metacall
FUNC a3ba0 d9 0 QCPColorScale::qt_metacall
FUNC a3c80 84 0 QCPGrid::qt_metacall
FUNC a3d10 d9 0 QCPAxis::qt_metacall
FUNC a3df0 d9 0 QCPAbstractPlottable::qt_metacall
FUNC a3ed0 84 0 QCPBars::qt_metacall
FUNC a3f60 d9 0 QCPColorMap::qt_metacall
FUNC a4040 84 0 QCPFinancial::qt_metacall
FUNC a40d0 c9 0 QCPAbstractItem::qt_metacall
FUNC a41a0 84 0 QCPItemStraightLine::qt_metacall
FUNC a4230 84 0 QCPItemLine::qt_metacall
FUNC a42c0 84 0 QCPItemCurve::qt_metacall
FUNC a4350 84 0 QCPItemRect::qt_metacall
FUNC a43e0 84 0 QCPItemText::qt_metacall
FUNC a4470 84 0 QCPItemEllipse::qt_metacall
FUNC a4500 84 0 QCPItemTracer::qt_metacall
FUNC a4590 84 0 QCPItemBracket::qt_metacall
FUNC a4620 5 0 QCPMarginGroup::qt_metacall
FUNC a4630 84 0 QCPBarsGroup::qt_metacall
FUNC a46c0 861 0 QCustomPlot::qt_static_metacall
FUNC a4f30 11c 0 QCPAxisRect::qt_static_metacall
FUNC a5050 84 0 QCPAxisRect::qt_metacall
FUNC a50e0 67 0 QCPColorScaleAxisRectPrivate::qt_metacall
FUNC a5150 13d 0 QCPItemPixmap::qt_static_metacall
FUNC a5290 84 0 QCPItemPixmap::qt_metacall
FUNC a5320 198 0 QCPCurve::qt_static_metacall
FUNC a54c0 84 0 QCPCurve::qt_metacall
FUNC a5550 5f4 0 QCPStatisticalBox::qt_static_metacall
FUNC a5b50 84 0 QCPStatisticalBox::qt_metacall
FUNC a5be0 39f 0 QCPGraph::qt_static_metacall
FUNC a5f80 84 0 QCPGraph::qt_metacall
FUNC a6010 4c 0 QCustomPlot::qt_metacast
FUNC a6060 ec 0 QCustomPlot::qt_metacall
FUNC a6150 2 0 QCPLayoutElement::mousePressEvent
FUNC a6160 2 0 QCPLayoutElement::mouseMoveEvent
FUNC a6170 2 0 QCPLayoutElement::mouseReleaseEvent
FUNC a6180 2 0 QCPLayoutElement::mouseDoubleClickEvent
FUNC a6190 2 0 QCPLayoutElement::wheelEvent
FUNC a61a0 2 0 QCPLayoutElement::applyDefaultAntialiasingHint
FUNC a61b0 2 0 QCPLayoutElement::draw
FUNC a61c0 2 0 QCPLayoutInset::simplify
FUNC a61d0 2 0 QtMetaTypePrivate::QMetaTypeFunctionHelper<QtMetaTypePrivate::QSequentialIterableImpl, true>::Destruct
FUNC a61e0 2 0 QtMetaTypePrivate::QMetaTypeFunctionHelper<QCustomPlot*, true>::Destruct
FUNC a61f0 15 0 QtMetaTypePrivate::QMetaTypeFunctionHelper<QCustomPlot*, true>::Construct
FUNC a6210 2 0 QtMetaTypePrivate::QMetaTypeFunctionHelper<QCPLayer*, true>::Destruct
FUNC a6220 15 0 QtMetaTypePrivate::QMetaTypeFunctionHelper<QCPLayer*, true>::Construct
FUNC a6240 2 0 QtMetaTypePrivate::QMetaTypeFunctionHelper<QCPLayerable*, true>::Destruct
FUNC a6250 15 0 QtMetaTypePrivate::QMetaTypeFunctionHelper<QCPLayerable*, true>::Construct
FUNC a6270 2 0 QtMetaTypePrivate::QMetaTypeFunctionHelper<QCPLayout*, true>::Destruct
FUNC a6280 15 0 QtMetaTypePrivate::QMetaTypeFunctionHelper<QCPLayout*, true>::Construct
FUNC a62a0 2 0 QtMetaTypePrivate::QMetaTypeFunctionHelper<QCPAxisRect*, true>::Destruct
FUNC a62b0 15 0 QtMetaTypePrivate::QMetaTypeFunctionHelper<QCPAxisRect*, true>::Construct
FUNC a62d0 2 0 QtMetaTypePrivate::QMetaTypeFunctionHelper<QCPGrid*, true>::Destruct
FUNC a62e0 15 0 QtMetaTypePrivate::QMetaTypeFunctionHelper<QCPGrid*, true>::Construct
FUNC a6300 2 0 QtMetaTypePrivate::QMetaTypeFunctionHelper<QCPAxis*, true>::Destruct
FUNC a6310 15 0 QtMetaTypePrivate::QMetaTypeFunctionHelper<QCPAxis*, true>::Construct
FUNC a6330 2 0 QtMetaTypePrivate::QMetaTypeFunctionHelper<QCPAbstractPlottable*, true>::Destruct
FUNC a6340 15 0 QtMetaTypePrivate::QMetaTypeFunctionHelper<QCPAbstractPlottable*, true>::Construct
FUNC a6360 2 0 QtMetaTypePrivate::QMetaTypeFunctionHelper<QCPAbstractItem*, true>::Destruct
FUNC a6370 15 0 QtMetaTypePrivate::QMetaTypeFunctionHelper<QCPAbstractItem*, true>::Construct
FUNC a6390 2 0 QtMetaTypePrivate::QMetaTypeFunctionHelper<QCPAbstractLegendItem*, true>::Destruct
FUNC a63a0 15 0 QtMetaTypePrivate::QMetaTypeFunctionHelper<QCPAbstractLegendItem*, true>::Construct
FUNC a63c0 2 0 QtMetaTypePrivate::QMetaTypeFunctionHelper<QCPLegend*, true>::Destruct
FUNC a63d0 15 0 QtMetaTypePrivate::QMetaTypeFunctionHelper<QCPLegend*, true>::Construct
FUNC a63f0 2 0 QtMetaTypePrivate::QMetaTypeFunctionHelper<QCPPlotTitle*, true>::Destruct
FUNC a6400 15 0 QtMetaTypePrivate::QMetaTypeFunctionHelper<QCPPlotTitle*, true>::Construct
FUNC a6420 2 0 QtMetaTypePrivate::QMetaTypeFunctionHelper<QCPLayoutGrid*, true>::Destruct
FUNC a6430 15 0 QtMetaTypePrivate::QMetaTypeFunctionHelper<QCPLayoutGrid*, true>::Construct
FUNC a6450 2 0 QtMetaTypePrivate::QMetaTypeFunctionHelper<QCPGraph*, true>::Destruct
FUNC a6460 15 0 QtMetaTypePrivate::QMetaTypeFunctionHelper<QCPGraph*, true>::Construct
FUNC a6480 2 0 QtMetaTypePrivate::QMetaTypeFunctionHelper<QCPBars*, true>::Destruct
FUNC a6490 15 0 QtMetaTypePrivate::QMetaTypeFunctionHelper<QCPBars*, true>::Construct
FUNC a64b0 2 0 QtMetaTypePrivate::QMetaTypeFunctionHelper<QCPBarsGroup*, true>::Destruct
FUNC a64c0 15 0 QtMetaTypePrivate::QMetaTypeFunctionHelper<QCPBarsGroup*, true>::Construct
FUNC a64e0 2 0 QtMetaTypePrivate::QMetaTypeFunctionHelper<QCPColorScale*, true>::Destruct
FUNC a64f0 15 0 QtMetaTypePrivate::QMetaTypeFunctionHelper<QCPColorScale*, true>::Construct
FUNC a6510 89 0 QtPrivate::ConverterFunctor<QList<double>, QtMetaTypePrivate::QSequentialIterableImpl, QtMetaTypePrivate::QSequentialIterableConvertFunctor<QList<double> > >::convert
FUNC a65a0 89 0 QtPrivate::ConverterFunctor<QVector<QString>, QtMetaTypePrivate::QSequentialIterableImpl, QtMetaTypePrivate::QSequentialIterableConvertFunctor<QVector<QString> > >::convert
FUNC a6630 89 0 QtPrivate::ConverterFunctor<QVector<double>, QtMetaTypePrivate::QSequentialIterableImpl, QtMetaTypePrivate::QSequentialIterableConvertFunctor<QVector<double> > >::convert
FUNC a66c0 e 0 QtMetaTypePrivate::IteratorOwnerCommon<QList<QCPLayerable*>::const_iterator>::advance
FUNC a66d0 10 0 QtMetaTypePrivate::IteratorOwnerCommon<QList<QCPLayerable*>::const_iterator>::equal
FUNC a66e0 a 0 QtMetaTypePrivate::QSequentialIterableImpl::sizeImpl<QList<QCPLayerable*> >
FUNC a66f0 14 0 QtMetaTypePrivate::QSequentialIterableImpl::atImpl<QList<QCPLayerable*> >
FUNC a6710 13 0 QtMetaTypePrivate::QSequentialIterableImpl::getImpl<QList<QCPLayerable*> >
FUNC a6730 e 0 QtMetaTypePrivate::IteratorOwnerCommon<QList<double>::const_iterator>::advance
FUNC a6740 10 0 QtMetaTypePrivate::IteratorOwnerCommon<QList<double>::const_iterator>::equal
FUNC a6750 a 0 QtMetaTypePrivate::QSequentialIterableImpl::sizeImpl<QList<double> >
FUNC a6760 14 0 QtMetaTypePrivate::QSequentialIterableImpl::atImpl<QList<double> >
FUNC a6780 13 0 QtMetaTypePrivate::QSequentialIterableImpl::getImpl<QList<double> >
FUNC a67a0 b 0 QtMetaTypePrivate::IteratorOwner<const QString*>::advance
FUNC a67b0 2 0 QtMetaTypePrivate::IteratorOwner<const QString*>::destroy
FUNC a67c0 a 0 QtMetaTypePrivate::IteratorOwner<const QString*>::equal
FUNC a67d0 7 0 QtMetaTypePrivate::QSequentialIterableImpl::sizeImpl<QVector<QString> >
FUNC a67e0 f 0 QtMetaTypePrivate::QSequentialIterableImpl::atImpl<QVector<QString> >
FUNC a67f0 b 0 QtMetaTypePrivate::QSequentialIterableImpl::moveToBeginImpl<QVector<QString> >
FUNC a6800 16 0 QtMetaTypePrivate::QSequentialIterableImpl::moveToEndImpl<QVector<QString> >
FUNC a6820 10 0 QtMetaTypePrivate::QSequentialIterableImpl::getImpl<QVector<QString> >
FUNC a6830 7 0 QtMetaTypePrivate::IteratorOwner<const QString*>::assign
FUNC a6840 b 0 QtMetaTypePrivate::IteratorOwner<double const*>::advance
FUNC a6850 2 0 QtMetaTypePrivate::IteratorOwner<double const*>::destroy
FUNC a6860 a 0 QtMetaTypePrivate::IteratorOwner<double const*>::equal
FUNC a6870 7 0 QtMetaTypePrivate::QSequentialIterableImpl::sizeImpl<QVector<double> >
FUNC a6880 f 0 QtMetaTypePrivate::QSequentialIterableImpl::atImpl<QVector<double> >
FUNC a6890 b 0 QtMetaTypePrivate::QSequentialIterableImpl::moveToBeginImpl<QVector<double> >
FUNC a68a0 16 0 QtMetaTypePrivate::QSequentialIterableImpl::moveToEndImpl<QVector<double> >
FUNC a68c0 10 0 QtMetaTypePrivate::QSequentialIterableImpl::getImpl<QVector<double> >
FUNC a68d0 7 0 QtMetaTypePrivate::IteratorOwner<double const*>::assign
FUNC a68e0 8 0 QtMetaTypePrivate::IteratorOwnerCommon<QList<QCPLayerable*>::const_iterator>::destroy
FUNC a68f0 8 0 QtMetaTypePrivate::IteratorOwnerCommon<QList<double>::const_iterator>::destroy
FUNC a6900 2a 0 QtMetaTypePrivate::IteratorOwnerCommon<QList<QCPLayerable*>::const_iterator>::assign
FUNC a6930 2a 0 QtMetaTypePrivate::IteratorOwnerCommon<QList<double>::const_iterator>::assign
FUNC a6960 2c 0 QtMetaTypePrivate::QSequentialIterableImpl::moveToEndImpl<QList<QCPLayerable*> >
FUNC a6990 2c 0 QtMetaTypePrivate::QSequentialIterableImpl::moveToBeginImpl<QList<QCPLayerable*> >
FUNC a69c0 2c 0 QtMetaTypePrivate::QSequentialIterableImpl::moveToEndImpl<QList<double> >
FUNC a69f0 2c 0 QtMetaTypePrivate::QSequentialIterableImpl::moveToBeginImpl<QList<double> >
FUNC a6a20 37 0 QCPGrid::~QCPGrid
FUNC a6a60 37 0 QCPAbstractLegendItem::~QCPAbstractLegendItem
FUNC a6aa0 13 0 QCPLayout::~QCPLayout
FUNC a6ac0 20 0 QCPLayout::~QCPLayout
FUNC a6ae0 f3 0 QtMetaTypePrivate::QMetaTypeFunctionHelper<QtMetaTypePrivate::QSequentialIterableImpl, true>::Construct
FUNC a6be0 3f 0 QCPGrid::~QCPGrid
FUNC a6c20 37 0 QCPPlottableLegendItem::~QCPPlottableLegendItem
FUNC a6c60 3f 0 QCPAbstractLegendItem::~QCPAbstractLegendItem
FUNC a6ca0 3f 0 QCPPlottableLegendItem::~QCPPlottableLegendItem
FUNC a6ce0 37 0 QtMetaTypePrivate::QMetaTypeFunctionHelper<QVector<double>, true>::Destruct
FUNC a6d20 9f 0 QtMetaTypePrivate::QMetaTypeFunctionHelper<QVector<QString>, true>::Destruct
FUNC a6dc0 71 0 QCPPlotTitle::~QCPPlotTitle
FUNC a6e40 79 0 QCPPlotTitle::~QCPPlotTitle
FUNC a6ec0 144 0 QtMetaTypePrivate::QMetaTypeFunctionHelper<QVector<QString>, true>::Construct
FUNC a7010 114 0 QtMetaTypePrivate::QMetaTypeFunctionHelper<QVector<double>, true>::Construct
FUNC a7130 ac 0 QMetaTypeId<QtMetaTypePrivate::QSequentialIterableImpl>::qt_metatype_id
FUNC a71e0 34 0 QtMetaTypePrivate::QMetaTypeFunctionHelper<QList<QCPLayerable*>, true>::Construct
FUNC a7220 5 0 QtMetaTypePrivate::QMetaTypeFunctionHelper<QList<QCPLayerable*>, true>::Destruct
FUNC a7230 77 0 QList<double>::QList
FUNC a72b0 34 0 QtMetaTypePrivate::QMetaTypeFunctionHelper<QList<double>, true>::Construct
FUNC a72f0 5 0 QtMetaTypePrivate::QMetaTypeFunctionHelper<QList<double>, true>::Destruct
FUNC a7300 db 0 QVector<double>::QVector
FUNC a73e0 133 0 QMetaTypeIdQObject<QCustomPlot*, 8>::qt_metatype_id
FUNC a7520 133 0 QMetaTypeIdQObject<QCPLayer*, 8>::qt_metatype_id
FUNC a7660 133 0 QMetaTypeIdQObject<QCPLayerable*, 8>::qt_metatype_id
FUNC a77a0 1d5 0 QtPrivate::ConverterFunctor<QList<QCPLayerable*>, QtMetaTypePrivate::QSequentialIterableImpl, QtMetaTypePrivate::QSequentialIterableConvertFunctor<QList<QCPLayerable*> > >::convert
FUNC a7980 401 0 QMetaTypeId<QList<QCPLayerable*> >::qt_metatype_id
FUNC a7d90 ae 0 QtPrivate::ConverterFunctor<QList<QCPLayerable*>, QtMetaTypePrivate::QSequentialIterableImpl, QtMetaTypePrivate::QSequentialIterableConvertFunctor<QList<QCPLayerable*> > >::~ConverterFunctor
FUNC a7e40 133 0 QMetaTypeIdQObject<QCPLayout*, 8>::qt_metatype_id
FUNC a7f80 2d4 0 QMetaTypeId<QList<double> >::qt_metatype_id
FUNC a8260 ae 0 QtPrivate::ConverterFunctor<QList<double>, QtMetaTypePrivate::QSequentialIterableImpl, QtMetaTypePrivate::QSequentialIterableConvertFunctor<QList<double> > >::~ConverterFunctor
FUNC a8310 133 0 QMetaTypeIdQObject<QCPAxisRect*, 8>::qt_metatype_id
FUNC a8450 133 0 QMetaTypeIdQObject<QCPGrid*, 8>::qt_metatype_id
FUNC a8590 2d4 0 QMetaTypeId<QVector<QString> >::qt_metatype_id
FUNC a8870 ae 0 QtPrivate::ConverterFunctor<QVector<QString>, QtMetaTypePrivate::QSequentialIterableImpl, QtMetaTypePrivate::QSequentialIterableConvertFunctor<QVector<QString> > >::~ConverterFunctor
FUNC a8920 2d4 0 QMetaTypeId<QVector<double> >::qt_metatype_id
FUNC a8c00 ae 0 QtPrivate::ConverterFunctor<QVector<double>, QtMetaTypePrivate::QSequentialIterableImpl, QtMetaTypePrivate::QSequentialIterableConvertFunctor<QVector<double> > >::~ConverterFunctor
FUNC a8cb0 133 0 QMetaTypeIdQObject<QCPAxis*, 8>::qt_metatype_id
FUNC a8df0 133 0 QMetaTypeIdQObject<QCPAbstractPlottable*, 8>::qt_metatype_id
FUNC a8f30 133 0 QMetaTypeIdQObject<QCPAbstractItem*, 8>::qt_metatype_id
FUNC a9070 133 0 QMetaTypeIdQObject<QCPAbstractLegendItem*, 8>::qt_metatype_id
FUNC a91b0 133 0 QMetaTypeIdQObject<QCPLegend*, 8>::qt_metatype_id
FUNC a92f0 133 0 QMetaTypeIdQObject<QCPPlotTitle*, 8>::qt_metatype_id
FUNC a9430 133 0 QMetaTypeIdQObject<QCPLayoutGrid*, 8>::qt_metatype_id
FUNC a9570 133 0 QMetaTypeIdQObject<QCPGraph*, 8>::qt_metatype_id
FUNC a96b0 133 0 QMetaTypeIdQObject<QCPBars*, 8>::qt_metatype_id
FUNC a97f0 133 0 QMetaTypeIdQObject<QCPBarsGroup*, 8>::qt_metatype_id
FUNC a9930 133 0 QMetaTypeIdQObject<QCPColorScale*, 8>::qt_metatype_id
FUNC a9a70 18f 0 QCPColorGradient::QCPColorGradient
FUNC a9c00 97 0 QCPScatterStyle::QCPScatterStyle
FUNC a9ca0 177 0 QCPStatisticalBox::~QCPStatisticalBox
FUNC a9e20 187 0 QCPStatisticalBox::~QCPStatisticalBox
FUNC a9fb0 2b 0 QCPColorScaleAxisRectPrivate::~QCPColorScaleAxisRectPrivate
FUNC a9fe0 33 0 QCPColorScaleAxisRectPrivate::~QCPColorScaleAxisRectPrivate
FUNC aa020 2 0 AboutDialog::qt_static_metacall
FUNC aa030 18 0 AboutDialog::metaObject
FUNC aa050 4c 0 AboutDialog::qt_metacast
FUNC aa0a0 5 0 AboutDialog::qt_metacall
FUNC aa0b0 72 0 first_significant_code
FUNC aa130 33d 0 find_fixedlength
FUNC aa470 439 0 could_be_empty_branch
FUNC aa8b0 ab 0 check_posix_syntax
FUNC aa960 190 0 is_anchored
FUNC aaaf0 238 0 is_startline
FUNC aad30 15a 0 find_firstassertedchar
FUNC aae90 aa 0 expand_workspace
FUNC aaf40 78 0 is_counted_repeat
FUNC aafc0 81b 0 check_escape
FUNC ab7e0 27d 0 get_chr_property_list
FUNC aba60 19e 0 adjust_recurse
FUNC abc00 91 0 add_to_class
FUNC abca0 7dc 0 compare_opcodes
FUNC ac480 137 0 _pcre_find_bracket
FUNC ac5c0 523d 0 compile_regex
FUNC b1800 156d 0 pcre_compile2
FUNC b2d70 10 0 pcre_compile
FUNC b2d80 5b 0 sljit_free_compiler
FUNC b2de0 41c 0 scan_prefix
FUNC b3200 d1 0 do_callout
FUNC b32e0 63 0 jit_machine_stack_exec
FUNC b3350 34 0 set_jumps
FUNC b3390 5b 0 do_search_mark
FUNC b33f0 5a 0 next_opcode
FUNC b3450 24a 0 get_framesize
FUNC b36a0 56 0 get_class_iterator_size
FUNC b3700 7d 0 ensure_buf
FUNC b3780 74 0 emit_load_imm64
FUNC b3800 69d 0 emit_x86_instruction
FUNC b3ea0 164 0 emit_mov_byte
FUNC b4010 154 0 emit_mov_half
FUNC b4170 9e 0 emit_do_imm32
FUNC b4210 1fc 0 emit_mov
FUNC b4410 24f 0 emit_cmp_binary
FUNC b4660 50b 0 emit_non_cum_binary
FUNC b4b70 654 0 emit_cum_binary
FUNC b51d0 34a 0 emit_shift
FUNC b5520 228 0 emit_shift_with_flags
FUNC b5750 1e0 0 emit_mov_int
FUNC b5930 135 0 emit_unary
FUNC b5a70 844 0 sljit_emit_op1
FUNC b62c0 6f0 0 copy_private_data
FUNC b69b0 1e2 0 emit_lea_binary
FUNC b6ba0 d6c 0 sljit_emit_op2
FUNC b7910 7d 0 ensure_abuf
FUNC b7990 23 0 sljit_alloc_memory
FUNC b79c0 3f 0 add_jump
FUNC b7a00 ad 0 sljit_emit_label
FUNC b7ab0 1ac 0 sljit_emit_jump
FUNC b7c60 126 0 sljit_emit_cmp
FUNC b7d90 33 0 skip_char_back
FUNC b7dd0 68 0 add_label_addr
FUNC b7e40 55 0 read_char_range
FUNC b7ea0 5a2 0 init_frame
FUNC b8450 76 0 read_char8_type
FUNC b84d0 1a 0 peek_char
FUNC b84f0 77 0 sljit_stack_resize
FUNC b8570 105 0 sljit_emit_fast_enter
FUNC b8680 16a 0 sljit_emit_fast_return
FUNC b87f0 e7 0 sljit_get_local_base
FUNC b88e0 2be 0 sljit_emit_op_flags
FUNC b8ba0 ed 0 check_hspace
FUNC b8c90 11f 0 sljit_free_exec
FUNC b8db0 1ee 0 sljit_emit_ijump
FUNC b8fa0 813 0 set_then_offsets
FUNC b97c0 d2 0 flush_stubs
FUNC b98a0 3b5 0 byte_sequence_compare
FUNC b9c60 1e4 0 check_newlinechar
FUNC b9e50 168 0 check_partial
FUNC b9fc0 513 0 compile_ref_matchingpath
FUNC ba4e0 1e9 0 detect_partial_match
FUNC ba6d0 218 0 check_str_end
FUNC ba8f0 69b 0 check_class_ranges
FUNC baf90 1eb 0 compile_dnref_search
FUNC bb180 675 0 fast_forward_newline
FUNC bb800 5da 0 mainloop_entry
FUNC bbde0 3c5 0 compile_assert_backtrackingpath
FUNC bc1b0 1131 0 compile_ref_iterator_matchingpath
FUNC bd2f0 1c17 0 compile_char1_matchingpath
FUNC bef10 1681 0 compile_iterator_matchingpath
FUNC c05a0 1d33 0 compile_backtrackingpath
FUNC c22e0 173b 0 compile_assert_matchingpath
FUNC c3a20 23d4 0 compile_bracket_matchingpath
FUNC c5e00 217e 0 compile_matchingpath
FUNC c7f80 107a 0 compile_bracketpos_matchingpath
FUNC c9000 2088 0 compile_bracket_backtrackingpath
FUNC cb090 adb 0 compile_recurse
FUNC cbb70 5af4 0 _pcre_jit_compile
FUNC d1670 18b 0 _pcre_jit_exec
FUNC d1800 168 0 pcre_jit_exec
FUNC d1970 53 0 _pcre_jit_free
FUNC d19d0 d 0 _pcre_jit_get_size
FUNC d19e0 6 0 _pcre_jit_get_target
FUNC d19f0 141 0 pcre_jit_stack_alloc
FUNC d1b40 21 0 pcre_jit_stack_free
FUNC d1b70 1d 0 pcre_assign_jit_stack
FUNC d1b90 89 0 pcre_jit_free_unused_memory
FUNC d1c20 79 0 _pcre_is_newline
FUNC d1ca0 79 0 _pcre_was_newline
FUNC d1d20 6a3 0 find_minlength
FUNC d23d0 52 0 set_table_bit
FUNC d2430 5de 0 set_start_bits
FUNC d2a10 32 0 pcre_free_study
FUNC d2a50 3bd 0 pcre_study
FUNC d2e10 2ba 0 pcre_fullinfo
FUNC d30d0 fa 0 google_breakpad::ExceptionHandler::InstallHandlersLocked()
FUNC d31d0 8b 0 google_breakpad::ExceptionHandler::RestoreHandlersLocked()
FUNC d3260 10d 0 google_breakpad::ExceptionHandler::SendContinueSignalToChild()
FUNC d3370 4c8 0 google_breakpad::ExceptionHandler::GenerateDump(google_breakpad::ExceptionHandler::CrashContext*)
FUNC d3840 1a4 0 google_breakpad::ExceptionHandler::HandleSignal(int, siginfo*, void*)
FUNC d39f0 68 0 google_breakpad::ExceptionHandler::HandleSignal(int, siginfo*, void*)
FUNC d3a60 59 0 google_breakpad::ExceptionHandler::SimulateSignalDelivery(int)
FUNC d3ac0 1c4 0 google_breakpad::ExceptionHandler::SignalHandler(int, siginfo*, void*)
FUNC d3c90 ea 0 google_breakpad::ExceptionHandler::WaitForContinueSignal()
FUNC d3d80 8a 0 google_breakpad::ExceptionHandler::DoDump(int, void const*, unsigned long)
FUNC d3e10 28 0 google_breakpad::ExceptionHandler::ThreadEntry(void*)
FUNC d3e40 175 0 google_breakpad::ExceptionHandler::WriteMinidump()
FUNC d3fc0 f8 0 google_breakpad::ExceptionHandler::AddMappingInfo(std::string const&, unsigned char const*, unsigned long, unsigned long, unsigned long)
FUNC d40c0 5d 0 google_breakpad::ExceptionHandler::RegisterAppMemory(void*, unsigned long)
FUNC d4120 31 0 google_breakpad::ExceptionHandler::UnregisterAppMemory(void*)
FUNC d4160 1b1 0 google_breakpad::ExceptionHandler::WriteMinidumpForChild(int, int, std::string const&, bool (*)(google_breakpad::MinidumpDescriptor const&, void*, bool), void*)
FUNC d4320 35a 0 google_breakpad::ExceptionHandler::ExceptionHandler
FUNC d4680 2b2 0 google_breakpad::ExceptionHandler::~ExceptionHandler
FUNC d4940 1b1 0 google_breakpad::ExceptionHandler::WriteMinidump(std::string const&, bool (*)(google_breakpad::MinidumpDescriptor const&, void*, bool), void*)
FUNC d4b00 1b7 0 std::vector<google_breakpad::ExceptionHandler*, std::allocator<google_breakpad::ExceptionHandler*> >::_M_insert_aux(__gnu_cxx::__normal_iterator<google_breakpad::ExceptionHandler**, std::vector<google_breakpad::ExceptionHandler*, std::allocator<google_breakpad::ExceptionHandler*> > >, google_breakpad::ExceptionHandler* const&)
FUNC d4cc0 d6 0 __gnu_cxx::__normal_iterator<google_breakpad::ExceptionHandler**, std::vector<google_breakpad::ExceptionHandler*, std::allocator<google_breakpad::ExceptionHandler*> > > std::__find<__gnu_cxx::__normal_iterator<google_breakpad::ExceptionHandler**, std::vector<google_breakpad::ExceptionHandler*, std::allocator<google_breakpad::ExceptionHandler*> > >, google_breakpad::ExceptionHandler*>(__gnu_cxx::__normal_iterator<google_breakpad::ExceptionHandler**, std::vector<google_breakpad::ExceptionHandler*, std::allocator<google_breakpad::ExceptionHandler*> > >, __gnu_cxx::__normal_iterator<google_breakpad::ExceptionHandler**, std::vector<google_breakpad::ExceptionHandler*, std::allocator<google_breakpad::ExceptionHandler*> > >, google_breakpad::ExceptionHandler* const&, std::random_access_iterator_tag)
FUNC d4da0 83 0 google_breakpad::MinidumpDescriptor::MinidumpDescriptor
FUNC d4e30 2af 0 google_breakpad::MinidumpDescriptor::UpdatePath()
FUNC d50e0 9b 0 google_breakpad::MinidumpDescriptor::operator=(google_breakpad::MinidumpDescriptor const&)
FUNC d5180 31 0 google_breakpad::MinidumpDescriptor::SetMicrodumpBuildFingerprint(char const*)
FUNC d51c0 31 0 google_breakpad::MinidumpDescriptor::SetMicrodumpProductInfo(char const*)
FUNC d5200 32 0 logger::write(char const*, unsigned long)
FUNC d5240 a 0 MicrodumpWriter::LogAppend
FUNC d5250 16d9 0 google_breakpad::WriteMicrodump(int, void const*, unsigned long, std::list<google_breakpad::MappingEntry, std::allocator<google_breakpad::MappingEntry> > const&, char const*, char const*)
FUNC d6930 6 0 google_breakpad::LinuxDumper::LateInit()
FUNC d6940 227 0 google_breakpad::::ElfFileSoName
FUNC d6b70 6a 0 google_breakpad::LinuxDumper::~LinuxDumper
FUNC d6be0 12 0 google_breakpad::LinuxDumper::~LinuxDumper
FUNC d6c00 114 0 google_breakpad::LinuxDumper::GetMappingEffectiveNameAndPath(google_breakpad::MappingInfo const&, char*, unsigned long, char*, unsigned long)
FUNC d6d20 121 0 google_breakpad::LinuxDumper::ReadAuxv()
FUNC d6e50 32 0 google_breakpad::LinuxDumper::Init()
FUNC d6e90 4c 0 google_breakpad::LinuxDumper::FindMapping(void const*) const
FUNC d6ee0 91 0 google_breakpad::LinuxDumper::GetStackInfo(void const**, unsigned long*, unsigned long)
FUNC d6f80 23e 0 google_breakpad::LinuxDumper::HandleDeletedFileInMapping(char*) const
FUNC d71c0 383 0 google_breakpad::LinuxDumper::ElfFileIdentifierForMapping(google_breakpad::MappingInfo const&, bool, unsigned int, unsigned char*)
FUNC d7550 1b7 0 google_breakpad::LinuxDumper::LinuxDumper
FUNC d7710 80f 0 google_breakpad::LinuxDumper::EnumerateMappings()
FUNC d7f20 4c 0 google_breakpad::LineReader::PopLine(unsigned int)
FUNC d7f70 20b 0 std::vector<int, google_breakpad::PageStdAllocator<int> >::reserve(unsigned long)
FUNC d8180 20b 0 std::vector<google_breakpad::MappingInfo*, google_breakpad::PageStdAllocator<google_breakpad::MappingInfo*> >::reserve(unsigned long)
FUNC d8390 20b 0 std::vector<unsigned long, google_breakpad::PageStdAllocator<unsigned long> >::reserve(unsigned long)
FUNC d85a0 2ff 0 std::vector<google_breakpad::MappingInfo*, google_breakpad::PageStdAllocator<google_breakpad::MappingInfo*> >::_M_insert_aux(__gnu_cxx::__normal_iterator<google_breakpad::MappingInfo**, std::vector<google_breakpad::MappingInfo*, google_breakpad::PageStdAllocator<google_breakpad::MappingInfo*> > >, google_breakpad::MappingInfo* const&)
FUNC d88a0 41a 0 std::vector<unsigned long, google_breakpad::PageStdAllocator<unsigned long> >::_M_fill_insert(__gnu_cxx::__normal_iterator<unsigned long*, std::vector<unsigned long, google_breakpad::PageStdAllocator<unsigned long> > >, unsigned long, unsigned long const&)
FUNC d8cc0 412 0 std::vector<google_breakpad::MappingInfo*, google_breakpad::PageStdAllocator<google_breakpad::MappingInfo*> >::_M_fill_insert(__gnu_cxx::__normal_iterator<google_breakpad::MappingInfo**, std::vector<google_breakpad::MappingInfo*, google_breakpad::PageStdAllocator<google_breakpad::MappingInfo*> > >, unsigned long, google_breakpad::MappingInfo* const&)
FUNC d90e0 3 0 google_breakpad::LinuxPtraceDumper::IsPostMortem() const
FUNC d90f0 e5 0 google_breakpad::LinuxPtraceDumper::BuildProcPath(char*, int, char const*) const
FUNC d91e0 b4 0 google_breakpad::LinuxPtraceDumper::CopyFromProcess(void*, int, void const*, unsigned long)
FUNC d92a0 c2 0 google_breakpad::LinuxPtraceDumper::ThreadsResume()
FUNC d9370 539 0 google_breakpad::LinuxPtraceDumper::GetThreadInfoByIndex(unsigned long, google_breakpad::ThreadInfo*)
FUNC d98b0 20 0 google_breakpad::LinuxPtraceDumper::LinuxPtraceDumper
FUNC d98d0 373 0 google_breakpad::LinuxPtraceDumper::EnumerateThreads()
FUNC d9c50 234 0 google_breakpad::LinuxPtraceDumper::ThreadsSuspend()
FUNC d9e90 13 0 google_breakpad::LinuxPtraceDumper::~LinuxPtraceDumper
FUNC d9eb0 20 0 google_breakpad::LinuxPtraceDumper::~LinuxPtraceDumper
FUNC d9ed0 304 0 std::vector<int, google_breakpad::PageStdAllocator<int> >::_M_insert_aux(__gnu_cxx::__normal_iterator<int*, std::vector<int, google_breakpad::PageStdAllocator<int> > >, int const&)
FUNC da1e0 401 0 std::vector<int, google_breakpad::PageStdAllocator<int> >::_M_fill_insert(__gnu_cxx::__normal_iterator<int*, std::vector<int, google_breakpad::PageStdAllocator<int> > >, unsigned long, int const&)
FUNC da5f0 5d 0 MinidumpWriter::~MinidumpWriter
FUNC da650 3f 0 google_breakpad::TypedMDRVA<MDRawDirectory>::CopyIndex(unsigned int, MDRawDirectory*)
FUNC da690 2cd3 0 MinidumpWriter::Dump
FUNC dd370 2f3 0 google_breakpad::WriteMinidump(char const*, int, int)
FUNC dd670 31a 0 WriteMinidumpImpl
FUNC dd990 2b 0 google_breakpad::WriteMinidump(int, long, int, void const*, unsigned long, std::list<google_breakpad::MappingEntry, std::allocator<google_breakpad::MappingEntry> > const&, std::list<google_breakpad::AppMemory, std::allocator<google_breakpad::AppMemory> > const&)
FUNC dd9c0 2c 0 google_breakpad::WriteMinidump(char const*, long, int, void const*, unsigned long, std::list<google_breakpad::MappingEntry, std::allocator<google_breakpad::MappingEntry> > const&, std::list<google_breakpad::AppMemory, std::allocator<google_breakpad::AppMemory> > const&)
FUNC dd9f0 2a 0 google_breakpad::WriteMinidump(int, int, void const*, unsigned long, std::list<google_breakpad::MappingEntry, std::allocator<google_breakpad::MappingEntry> > const&, std::list<google_breakpad::AppMemory, std::allocator<google_breakpad::AppMemory> > const&)
FUNC dda20 2b 0 google_breakpad::WriteMinidump(char const*, int, void const*, unsigned long, std::list<google_breakpad::MappingEntry, std::allocator<google_breakpad::MappingEntry> > const&, std::list<google_breakpad::AppMemory, std::allocator<google_breakpad::AppMemory> > const&)
FUNC dda50 b9 0 google_breakpad::WriteMinidump(int, int, void const*, unsigned long)
FUNC ddb10 b9 0 google_breakpad::WriteMinidump(char const*, int, void const*, unsigned long)
FUNC ddbd0 1ae 0 google_breakpad::WriteMinidump(char const*, std::list<google_breakpad::MappingEntry, std::allocator<google_breakpad::MappingEntry> > const&, std::list<google_breakpad::AppMemory, std::allocator<google_breakpad::AppMemory> > const&, google_breakpad::LinuxDumper*)
FUNC ddd80 5a 0 google_breakpad::PageAllocator::~PageAllocator
FUNC ddde0 14c 0 google_breakpad::PageAllocator::Alloc(unsigned long)
FUNC ddf30 2f 0 std::list<google_breakpad::MappingEntry, std::allocator<google_breakpad::MappingEntry> >::~list
FUNC ddf60 2f 0 std::list<google_breakpad::AppMemory, std::allocator<google_breakpad::AppMemory> >::~list
FUNC ddf90 22 0 google_breakpad::TypedMDRVA<unsigned int>::~TypedMDRVA
FUNC ddfc0 22 0 google_breakpad::TypedMDRVA<MDRawContextAMD64>::~TypedMDRVA
FUNC ddff0 217 0 std::vector<MDMemoryDescriptor, google_breakpad::PageStdAllocator<MDMemoryDescriptor> >::reserve(unsigned long)
FUNC de210 340 0 std::vector<MDMemoryDescriptor, google_breakpad::PageStdAllocator<MDMemoryDescriptor> >::_M_insert_aux(__gnu_cxx::__normal_iterator<MDMemoryDescriptor*, std::vector<MDMemoryDescriptor, google_breakpad::PageStdAllocator<MDMemoryDescriptor> > >, MDMemoryDescriptor const&)
FUNC de550 346 0 std::vector<char, google_breakpad::PageStdAllocator<char> >::_M_fill_insert(__gnu_cxx::__normal_iterator<char*, std::vector<char, google_breakpad::PageStdAllocator<char> > >, unsigned long, char const&)
FUNC de8a0 1a 0 google_breakpad::MinidumpFileWriter::MinidumpFileWriter
FUNC de8c0 7c 0 google_breakpad::MinidumpFileWriter::Open(char const*)
FUNC de940 33 0 google_breakpad::MinidumpFileWriter::SetFile(int)
FUNC de980 7d 0 google_breakpad::MinidumpFileWriter::Close()
FUNC dea00 15 0 google_breakpad::MinidumpFileWriter::~MinidumpFileWriter
FUNC dea20 e1 0 google_breakpad::MinidumpFileWriter::Allocate(unsigned long)
FUNC deb10 116 0 google_breakpad::MinidumpFileWriter::Copy(unsigned int, void const*, long)
FUNC dec30 98 0 google_breakpad::MinidumpFileWriter::CopyStringToMDString(char const*, unsigned int, google_breakpad::TypedMDRVA<MDString>*)
FUNC decd0 c4 0 google_breakpad::MinidumpFileWriter::CopyStringToMDString(wchar_t const*, unsigned int, google_breakpad::TypedMDRVA<MDString>*)
FUNC deda0 41 0 google_breakpad::UntypedMDRVA::Allocate(unsigned long)
FUNC dedf0 88 0 google_breakpad::UntypedMDRVA::Copy(unsigned int, void const*, unsigned long)
FUNC dee80 d8 0 google_breakpad::MinidumpFileWriter::WriteMemory(void const*, unsigned long, MDMemoryDescriptor*)
FUNC def60 5 0 google_breakpad::MinidumpFileWriter::WriteString(char const*, unsigned int, MDLocationDescriptor*)
FUNC def70 5 0 google_breakpad::MinidumpFileWriter::WriteString(wchar_t const*, unsigned int, MDLocationDescriptor*)
FUNC def80 22 0 google_breakpad::TypedMDRVA<MDString>::~TypedMDRVA
FUNC defb0 203 0 bool google_breakpad::MinidumpFileWriter::WriteStringCore<char>(char const*, unsigned int, MDLocationDescriptor*)
FUNC df1c0 203 0 bool google_breakpad::MinidumpFileWriter::WriteStringCore<wchar_t>(wchar_t const*, unsigned int, MDLocationDescriptor*)
FUNC df3d0 7d 0 google_breakpad::UTF8ToUTF16Char(char const*, int, unsigned short*)
FUNC df450 56 0 google_breakpad::UTF32ToUTF16Char(wchar_t, unsigned short*)
FUNC df4b0 183 0 google_breakpad::UTF16ToUTF8(std::vector<unsigned short, std::allocator<unsigned short> > const&, bool)
FUNC df640 e3 0 google_breakpad::UTF32ToUTF16(wchar_t const*, std::vector<unsigned short, std::allocator<unsigned short> >*)
FUNC df730 e3 0 google_breakpad::UTF8ToUTF16(char const*, std::vector<unsigned short, std::allocator<unsigned short> >*)
FUNC df820 2a3 0 std::vector<unsigned short, std::allocator<unsigned short> >::_M_fill_insert(__gnu_cxx::__normal_iterator<unsigned short*, std::vector<unsigned short, std::allocator<unsigned short> > >, unsigned long, unsigned short const&)
FUNC dfad0 1f 0 google_breakpad::IsValidElf(void const*)
FUNC dfaf0 5 0 google_breakpad::ElfClass(void const*)
FUNC dfb00 2a7 0 google_breakpad::FindElfSegment(void const*, unsigned int, void const**, unsigned long*, int*)
FUNC dfdb0 28d 0 google_breakpad::FindElfSection(void const*, char const*, unsigned int, void const**, unsigned long*, int*)
FUNC e0040 129 0 google_breakpad::ElfClass32::Shdr const* google_breakpad::FindElfSectionByName<google_breakpad::ElfClass32>(char const*, google_breakpad::ElfClass32::Word, google_breakpad::ElfClass32::Shdr const*, char const*, char const*, int)
FUNC e0170 129 0 google_breakpad::ElfClass64::Shdr const* google_breakpad::FindElfSectionByName<google_breakpad::ElfClass64>(char const*, google_breakpad::ElfClass64::Word, google_breakpad::ElfClass64::Shdr const*, char const*, char const*, int)
FUNC e02a0 13 0 google_breakpad::FileID::FileID
FUNC e02c0 213 0 google_breakpad::FileID::ElfFileIdentifierFromMappedFile(void const*, unsigned char*)
FUNC e04e0 65 0 google_breakpad::FileID::ElfFileIdentifier(unsigned char*)
FUNC e0550 10b 0 google_breakpad::FileID::ConvertIdentifierToString(unsigned char const*, char*, int)
FUNC e0660 73 0 CreateGUID(MDGUID*)
FUNC e06e0 c0 0 GUIDToString(MDGUID const*, char*, int)
FUNC e07a0 16 0 GUIDGenerator::InitOnceImpl()
FUNC e07c0 1c 0 my_strlen
FUNC e07e0 4e 0 my_strcmp
FUNC e0830 66 0 my_strncmp
FUNC e08a0 5b 0 my_strtoui
FUNC e0900 36 0 my_uint_len
FUNC e0940 3a 0 my_uitos
FUNC e0980 42 0 my_strchr
FUNC e09d0 24 0 my_strrchr
FUNC e0a00 36 0 my_memchr
FUNC e0a40 74 0 my_read_hex_ptr
FUNC e0ac0 3d 0 my_read_decimal_ptr
FUNC e0b00 17 0 my_memset
FUNC e0b20 38 0 my_strlcpy
FUNC e0b60 3e 0 my_strlcat
FUNC e0ba0 64 0 my_isspace
FUNC e0c10 10 0 google_breakpad::MemoryMappedFile::MemoryMappedFile
FUNC e0c20 5b 0 google_breakpad::MemoryMappedFile::Unmap()
FUNC e0c80 1c6 0 google_breakpad::MemoryMappedFile::Map(char const*, unsigned long)
FUNC e0e50 14 0 google_breakpad::MemoryMappedFile::MemoryMappedFile
FUNC e0e70 5 0 google_breakpad::MemoryMappedFile::~MemoryMappedFile
FUNC e0e80 3c 0 google_breakpad::SafeReadLink(char const*, char*, unsigned long)
FUNC e0ec0 f 0 google_breakpad::::CrashGenerationClientImpl::~CrashGenerationClientImpl
FUNC e0ed0 13 0 google_breakpad::::CrashGenerationClientImpl::~CrashGenerationClientImpl
FUNC e0ef0 207 0 google_breakpad::::CrashGenerationClientImpl::RequestDump
FUNC e1100 22 0 google_breakpad::CrashGenerationClient::TryCreate(int)
FUNC e1130 f 0 google_breakpad::CrashGenerationClient::~CrashGenerationClient
FUNC e1140 13 0 google_breakpad::CrashGenerationClient::~CrashGenerationClient
FUNC e1160 8 0 google_breakpad::ThreadInfo::GetInstructionPointer() const
FUNC e1170 37d 0 google_breakpad::ThreadInfo::FillCPUContext(MDRawContextAMD64*) const
FUNC e14f0 49 0 google_breakpad::ThreadInfo::GetGeneralPurposeRegisters(void**, unsigned long*)
FUNC e1540 4c 0 google_breakpad::ThreadInfo::GetFloatingPointRegisters(void**, unsigned long*)
FUNC e1590 8 0 google_breakpad::UContextReader::GetStackPointer(ucontext const*)
FUNC e15a0 8 0 google_breakpad::UContextReader::GetInstructionPointer(ucontext const*)
FUNC e15b0 2e4 0 google_breakpad::UContextReader::FillCPUContext(MDRawContextAMD64*, ucontext const*, _libc_fpstate const*)
FUNC e18a0 e3 0 isLegalUTF8
FUNC e1990 f4 0 ConvertUTF32toUTF16
FUNC e1a90 dd 0 ConvertUTF16toUTF32
FUNC e1b70 1ed 0 ConvertUTF16toUTF8
FUNC e1d60 2b 0 isLegalUTF8Sequence
FUNC e1d90 234 0 ConvertUTF8toUTF16
FUNC e1fd0 184 0 ConvertUTF32toUTF8
FUNC e2160 279 0 ConvertUTF8toUTF32
PUBLIC 1cfe0 0 _init
PUBLIC 215e0 0 MainWindow::updateFilterPattern()
PUBLIC 21650 0 MainWindow::listViewDoubleClicked(QModelIndex const&)
PUBLIC 21720 0 MainWindow::logEditContextMenuRequest(QPoint const&)
PUBLIC 21800 0 MainWindow::listViewContextMenuRequest(QPoint const&)
PUBLIC 29270 0 QtPrivate::QSlotObject<void (MainWindow::*)(), QtPrivate::List<>, void>::impl(int, QtPrivate::QSlotObjectBase*, QObject*, void**, bool*)
PUBLIC 292f0 0 QtPrivate::QSlotObject<void (MainWindow::*)(QModelIndex const&), QtPrivate::List<QModelIndex const&>, void>::impl(int, QtPrivate::QSlotObjectBase*, QObject*, void**, bool*)
PUBLIC 29370 0 QtPrivate::QSlotObject<void (MainWindow::*)(QPoint const&), QtPrivate::List<QPoint const&>, void>::impl(int, QtPrivate::QSlotObjectBase*, QObject*, void**, bool*)
PUBLIC 34730 0 PlotWindow::mousePress(QMouseEvent*)
PUBLIC 34790 0 PlotWindow::mouseWheel(QWheelEvent*)
PUBLIC 34830 0 PlotWindow::selectionChanged()
PUBLIC 34a30 0 PlotWindow::contextMenuRequest(QPoint const&)
PUBLIC 367c0 0 PlotWindow::adjustTicks()
PUBLIC 388d0 0 QtPrivate::QSlotObject<void (PlotWindow::*)(), QtPrivate::List<>, void>::impl(int, QtPrivate::QSlotObjectBase*, QObject*, void**, bool*)
PUBLIC 38950 0 QtPrivate::QSlotObject<void (PlotWindow::*)(QMouseEvent*), QtPrivate::List<QMouseEvent*>, void>::impl(int, QtPrivate::QSlotObjectBase*, QObject*, void**, bool*)
PUBLIC 389d0 0 QtPrivate::QSlotObject<void (PlotWindow::*)(QWheelEvent*), QtPrivate::List<QWheelEvent*>, void>::impl(int, QtPrivate::QSlotObjectBase*, QObject*, void**, bool*)
PUBLIC 38a50 0 QtPrivate::QSlotObject<void (PlotWindow::*)(QPoint const&), QtPrivate::List<QPoint const&>, void>::impl(int, QtPrivate::QSlotObjectBase*, QObject*, void**, bool*)
PUBLIC 90d30 0 QHash<QCP::MarginSide, QCPMarginGroup*>::deleteNode2(QHashData::Node*)
PUBLIC 90d40 0 QtMetaTypePrivate::QMetaTypeFunctionHelper<QCPAxis::SelectablePart, true>::Destruct(void*)
PUBLIC 90d50 0 QtMetaTypePrivate::QMetaTypeFunctionHelper<QCPAxis::SelectablePart, true>::Construct(void*, void const*)
PUBLIC 90d70 0 QtMetaTypePrivate::QMetaTypeFunctionHelper<QCPLegend::SelectablePart, true>::Destruct(void*)
PUBLIC 90d80 0 QtMetaTypePrivate::QMetaTypeFunctionHelper<QCPLegend::SelectablePart, true>::Construct(void*, void const*)
PUBLIC 90da0 0 QHash<QCPItemPosition*, QHashDummyValue>::deleteNode2(QHashData::Node*)
PUBLIC 90db0 0 QHash<QCP::MarginSide, QCPMarginGroup*>::duplicateNode(QHashData::Node*, void*)
PUBLIC 90de0 0 QHash<QString, QCache<QString, QCPAxisPainterPrivate::CachedLabel>::Node>::duplicateNode(QHashData::Node*, void*)
PUBLIC 90e40 0 QHash<QCPItemPosition*, QHashDummyValue>::duplicateNode(QHashData::Node*, void*)
PUBLIC 90e60 0 QHash<QString, QCache<QString, QCPAxisPainterPrivate::CachedLabel>::Node>::deleteNode2(QHashData::Node*)
PUBLIC 914e0 0 QHash<QCP::MarginSide, QList<QCPLayoutElement*> >::deleteNode2(QHashData::Node*)
PUBLIC 91570 0 QHash<QCP::MarginSide, QList<QCPLayoutElement*> >::duplicateNode(QHashData::Node*, void*)
PUBLIC 92b20 0 QHash<QCPAxis::AxisType, QList<QCPAxis*> >::deleteNode2(QHashData::Node*)
PUBLIC 92bf0 0 QHash<QCPAxis::AxisType, QList<QCPAxis*> >::duplicateNode(QHashData::Node*, void*)
PUBLIC 9cf00 0 MainWindow::aboutToBeClosed()
PUBLIC 9d8c0 0 QCPLayerable::layerChanged(QCPLayer*)
PUBLIC 9d900 0 QCPAxis::ticksRequest()
PUBLIC 9d910 0 QCPAxis::rangeChanged(QCPRange const&)
PUBLIC 9d940 0 QCPAxis::rangeChanged(QCPRange const&, QCPRange const&)
PUBLIC 9d970 0 QCPAxis::scaleTypeChanged(QCPAxis::ScaleType)
PUBLIC 9d9b0 0 QCPAxis::selectionChanged(QFlags<QCPAxis::SelectablePart> const&)
PUBLIC 9d9e0 0 QCPAxis::selectableChanged(QFlags<QCPAxis::SelectablePart> const&)
PUBLIC 9da10 0 QCPAbstractPlottable::selectionChanged(bool)
PUBLIC 9da50 0 QCPAbstractPlottable::selectableChanged(bool)
PUBLIC 9da90 0 QCPAbstractItem::selectionChanged(bool)
PUBLIC 9dad0 0 QCPAbstractItem::selectableChanged(bool)
PUBLIC 9db10 0 QCustomPlot::mouseDoubleClick(QMouseEvent*)
PUBLIC 9db50 0 QCustomPlot::mousePress(QMouseEvent*)
PUBLIC 9db90 0 QCustomPlot::mouseMove(QMouseEvent*)
PUBLIC 9dbd0 0 QCustomPlot::mouseRelease(QMouseEvent*)
PUBLIC 9dc10 0 QCustomPlot::mouseWheel(QWheelEvent*)
PUBLIC 9dc50 0 QCustomPlot::plottableClick(QCPAbstractPlottable*, QMouseEvent*)
PUBLIC 9dc90 0 QCustomPlot::plottableDoubleClick(QCPAbstractPlottable*, QMouseEvent*)
PUBLIC 9dcd0 0 QCustomPlot::itemClick(QCPAbstractItem*, QMouseEvent*)
PUBLIC 9dd10 0 QCustomPlot::itemDoubleClick(QCPAbstractItem*, QMouseEvent*)
PUBLIC 9dd50 0 QCustomPlot::axisClick(QCPAxis*, QCPAxis::SelectablePart, QMouseEvent*)
PUBLIC 9ddb0 0 QCustomPlot::axisDoubleClick(QCPAxis*, QCPAxis::SelectablePart, QMouseEvent*)
PUBLIC 9de10 0 QCustomPlot::legendClick(QCPLegend*, QCPAbstractLegendItem*, QMouseEvent*)
PUBLIC 9de70 0 QCustomPlot::legendDoubleClick(QCPLegend*, QCPAbstractLegendItem*, QMouseEvent*)
PUBLIC 9ded0 0 QCustomPlot::titleClick(QMouseEvent*, QCPPlotTitle*)
PUBLIC 9df10 0 QCustomPlot::titleDoubleClick(QMouseEvent*, QCPPlotTitle*)
PUBLIC 9df50 0 QCustomPlot::selectionChangedByUser()
PUBLIC 9df70 0 QCustomPlot::beforeReplot()
PUBLIC 9df90 0 QCustomPlot::afterReplot()
PUBLIC 9dfb0 0 QCPAbstractLegendItem::selectionChanged(bool)
PUBLIC 9dff0 0 QCPAbstractLegendItem::selectableChanged(bool)
PUBLIC 9e030 0 QCPLegend::selectionChanged(QFlags<QCPLegend::SelectablePart>)
PUBLIC 9e060 0 QCPLegend::selectableChanged(QFlags<QCPLegend::SelectablePart>)
PUBLIC 9e090 0 QCPPlotTitle::selectionChanged(bool)
PUBLIC 9e0d0 0 QCPPlotTitle::selectableChanged(bool)
PUBLIC 9e110 0 QCPColorScale::dataRangeChanged(QCPRange)
PUBLIC 9e160 0 QCPColorScale::dataScaleTypeChanged(QCPAxis::ScaleType)
PUBLIC 9e1a0 0 QCPColorScale::gradientChanged(QCPColorGradient)
PUBLIC 9e1d0 0 QCPColorMap::dataRangeChanged(QCPRange)
PUBLIC 9e220 0 QCPColorMap::dataScaleTypeChanged(QCPAxis::ScaleType)
PUBLIC 9e260 0 QCPColorMap::gradientChanged(QCPColorGradient)
PUBLIC a61d0 0 QtMetaTypePrivate::QMetaTypeFunctionHelper<QtMetaTypePrivate::QSequentialIterableImpl, true>::Destruct(void*)
PUBLIC a61e0 0 QtMetaTypePrivate::QMetaTypeFunctionHelper<QCustomPlot*, true>::Destruct(void*)
PUBLIC a61f0 0 QtMetaTypePrivate::QMetaTypeFunctionHelper<QCustomPlot*, true>::Construct(void*, void const*)
PUBLIC a6210 0 QtMetaTypePrivate::QMetaTypeFunctionHelper<QCPLayer*, true>::Destruct(void*)
PUBLIC a6220 0 QtMetaTypePrivate::QMetaTypeFunctionHelper<QCPLayer*, true>::Construct(void*, void const*)
PUBLIC a6240 0 QtMetaTypePrivate::QMetaTypeFunctionHelper<QCPLayerable*, true>::Destruct(void*)
PUBLIC a6250 0 QtMetaTypePrivate::QMetaTypeFunctionHelper<QCPLayerable*, true>::Construct(void*, void const*)
PUBLIC a6270 0 QtMetaTypePrivate::QMetaTypeFunctionHelper<QCPLayout*, true>::Destruct(void*)
PUBLIC a6280 0 QtMetaTypePrivate::QMetaTypeFunctionHelper<QCPLayout*, true>::Construct(void*, void const*)
PUBLIC a62a0 0 QtMetaTypePrivate::QMetaTypeFunctionHelper<QCPAxisRect*, true>::Destruct(void*)
PUBLIC a62b0 0 QtMetaTypePrivate::QMetaTypeFunctionHelper<QCPAxisRect*, true>::Construct(void*, void const*)
PUBLIC a62d0 0 QtMetaTypePrivate::QMetaTypeFunctionHelper<QCPGrid*, true>::Destruct(void*)
PUBLIC a62e0 0 QtMetaTypePrivate::QMetaTypeFunctionHelper<QCPGrid*, true>::Construct(void*, void const*)
PUBLIC a6300 0 QtMetaTypePrivate::QMetaTypeFunctionHelper<QCPAxis*, true>::Destruct(void*)
PUBLIC a6310 0 QtMetaTypePrivate::QMetaTypeFunctionHelper<QCPAxis*, true>::Construct(void*, void const*)
PUBLIC a6330 0 QtMetaTypePrivate::QMetaTypeFunctionHelper<QCPAbstractPlottable*, true>::Destruct(void*)
PUBLIC a6340 0 QtMetaTypePrivate::QMetaTypeFunctionHelper<QCPAbstractPlottable*, true>::Construct(void*, void const*)
PUBLIC a6360 0 QtMetaTypePrivate::QMetaTypeFunctionHelper<QCPAbstractItem*, true>::Destruct(void*)
PUBLIC a6370 0 QtMetaTypePrivate::QMetaTypeFunctionHelper<QCPAbstractItem*, true>::Construct(void*, void const*)
PUBLIC a6390 0 QtMetaTypePrivate::QMetaTypeFunctionHelper<QCPAbstractLegendItem*, true>::Destruct(void*)
PUBLIC a63a0 0 QtMetaTypePrivate::QMetaTypeFunctionHelper<QCPAbstractLegendItem*, true>::Construct(void*, void const*)
PUBLIC a63c0 0 QtMetaTypePrivate::QMetaTypeFunctionHelper<QCPLegend*, true>::Destruct(void*)
PUBLIC a63d0 0 QtMetaTypePrivate::QMetaTypeFunctionHelper<QCPLegend*, true>::Construct(void*, void const*)
PUBLIC a63f0 0 QtMetaTypePrivate::QMetaTypeFunctionHelper<QCPPlotTitle*, true>::Destruct(void*)
PUBLIC a6400 0 QtMetaTypePrivate::QMetaTypeFunctionHelper<QCPPlotTitle*, true>::Construct(void*, void const*)
PUBLIC a6420 0 QtMetaTypePrivate::QMetaTypeFunctionHelper<QCPLayoutGrid*, true>::Destruct(void*)
PUBLIC a6430 0 QtMetaTypePrivate::QMetaTypeFunctionHelper<QCPLayoutGrid*, true>::Construct(void*, void const*)
PUBLIC a6450 0 QtMetaTypePrivate::QMetaTypeFunctionHelper<QCPGraph*, true>::Destruct(void*)
PUBLIC a6460 0 QtMetaTypePrivate::QMetaTypeFunctionHelper<QCPGraph*, true>::Construct(void*, void const*)
PUBLIC a6480 0 QtMetaTypePrivate::QMetaTypeFunctionHelper<QCPBars*, true>::Destruct(void*)
PUBLIC a6490 0 QtMetaTypePrivate::QMetaTypeFunctionHelper<QCPBars*, true>::Construct(void*, void const*)
PUBLIC a64b0 0 QtMetaTypePrivate::QMetaTypeFunctionHelper<QCPBarsGroup*, true>::Destruct(void*)
PUBLIC a64c0 0 QtMetaTypePrivate::QMetaTypeFunctionHelper<QCPBarsGroup*, true>::Construct(void*, void const*)
PUBLIC a64e0 0 QtMetaTypePrivate::QMetaTypeFunctionHelper<QCPColorScale*, true>::Destruct(void*)
PUBLIC a64f0 0 QtMetaTypePrivate::QMetaTypeFunctionHelper<QCPColorScale*, true>::Construct(void*, void const*)
PUBLIC a6510 0 QtPrivate::ConverterFunctor<QList<double>, QtMetaTypePrivate::QSequentialIterableImpl, QtMetaTypePrivate::QSequentialIterableConvertFunctor<QList<double> > >::convert(QtPrivate::AbstractConverterFunction const*, void const*, void*)
PUBLIC a65a0 0 QtPrivate::ConverterFunctor<QVector<QString>, QtMetaTypePrivate::QSequentialIterableImpl, QtMetaTypePrivate::QSequentialIterableConvertFunctor<QVector<QString> > >::convert(QtPrivate::AbstractConverterFunction const*, void const*, void*)
PUBLIC a6630 0 QtPrivate::ConverterFunctor<QVector<double>, QtMetaTypePrivate::QSequentialIterableImpl, QtMetaTypePrivate::QSequentialIterableConvertFunctor<QVector<double> > >::convert(QtPrivate::AbstractConverterFunction const*, void const*, void*)
PUBLIC a66c0 0 QtMetaTypePrivate::IteratorOwnerCommon<QList<QCPLayerable*>::const_iterator>::advance(void**, int)
PUBLIC a66d0 0 QtMetaTypePrivate::IteratorOwnerCommon<QList<QCPLayerable*>::const_iterator>::equal(void* const*, void* const*)
PUBLIC a66e0 0 int QtMetaTypePrivate::QSequentialIterableImpl::sizeImpl<QList<QCPLayerable*> >(void const*)
PUBLIC a66f0 0 void const* QtMetaTypePrivate::QSequentialIterableImpl::atImpl<QList<QCPLayerable*> >(void const*, int)
PUBLIC a6710 0 QtMetaTypePrivate::VariantData QtMetaTypePrivate::QSequentialIterableImpl::getImpl<QList<QCPLayerable*> >(void* const*, int, unsigned int)
PUBLIC a6730 0 QtMetaTypePrivate::IteratorOwnerCommon<QList<double>::const_iterator>::advance(void**, int)
PUBLIC a6740 0 QtMetaTypePrivate::IteratorOwnerCommon<QList<double>::const_iterator>::equal(void* const*, void* const*)
PUBLIC a6750 0 int QtMetaTypePrivate::QSequentialIterableImpl::sizeImpl<QList<double> >(void const*)
PUBLIC a6760 0 void const* QtMetaTypePrivate::QSequentialIterableImpl::atImpl<QList<double> >(void const*, int)
PUBLIC a6780 0 QtMetaTypePrivate::VariantData QtMetaTypePrivate::QSequentialIterableImpl::getImpl<QList<double> >(void* const*, int, unsigned int)
PUBLIC a67a0 0 QtMetaTypePrivate::IteratorOwner<QString const*>::advance(void**, int)
PUBLIC a67b0 0 QtMetaTypePrivate::IteratorOwner<QString const*>::destroy(void**)
PUBLIC a67c0 0 QtMetaTypePrivate::IteratorOwner<QString const*>::equal(void* const*, void* const*)
PUBLIC a67d0 0 int QtMetaTypePrivate::QSequentialIterableImpl::sizeImpl<QVector<QString> >(void const*)
PUBLIC a67e0 0 void const* QtMetaTypePrivate::QSequentialIterableImpl::atImpl<QVector<QString> >(void const*, int)
PUBLIC a67f0 0 void QtMetaTypePrivate::QSequentialIterableImpl::moveToBeginImpl<QVector<QString> >(void const*, void**)
PUBLIC a6800 0 void QtMetaTypePrivate::QSequentialIterableImpl::moveToEndImpl<QVector<QString> >(void const*, void**)
PUBLIC a6820 0 QtMetaTypePrivate::VariantData QtMetaTypePrivate::QSequentialIterableImpl::getImpl<QVector<QString> >(void* const*, int, unsigned int)
PUBLIC a6830 0 QtMetaTypePrivate::IteratorOwner<QString const*>::assign(void**, void* const*)
PUBLIC a6840 0 QtMetaTypePrivate::IteratorOwner<double const*>::advance(void**, int)
PUBLIC a6850 0 QtMetaTypePrivate::IteratorOwner<double const*>::destroy(void**)
PUBLIC a6860 0 QtMetaTypePrivate::IteratorOwner<double const*>::equal(void* const*, void* const*)
PUBLIC a6870 0 int QtMetaTypePrivate::QSequentialIterableImpl::sizeImpl<QVector<double> >(void const*)
PUBLIC a6880 0 void const* QtMetaTypePrivate::QSequentialIterableImpl::atImpl<QVector<double> >(void const*, int)
PUBLIC a6890 0 void QtMetaTypePrivate::QSequentialIterableImpl::moveToBeginImpl<QVector<double> >(void const*, void**)
PUBLIC a68a0 0 void QtMetaTypePrivate::QSequentialIterableImpl::moveToEndImpl<QVector<double> >(void const*, void**)
PUBLIC a68c0 0 QtMetaTypePrivate::VariantData QtMetaTypePrivate::QSequentialIterableImpl::getImpl<QVector<double> >(void* const*, int, unsigned int)
PUBLIC a68d0 0 QtMetaTypePrivate::IteratorOwner<double const*>::assign(void**, void* const*)
PUBLIC a68e0 0 QtMetaTypePrivate::IteratorOwnerCommon<QList<QCPLayerable*>::const_iterator>::destroy(void**)
PUBLIC a68f0 0 QtMetaTypePrivate::IteratorOwnerCommon<QList<double>::const_iterator>::destroy(void**)
PUBLIC a6900 0 QtMetaTypePrivate::IteratorOwnerCommon<QList<QCPLayerable*>::const_iterator>::assign(void**, void* const*)
PUBLIC a6930 0 QtMetaTypePrivate::IteratorOwnerCommon<QList<double>::const_iterator>::assign(void**, void* const*)
PUBLIC a6960 0 void QtMetaTypePrivate::QSequentialIterableImpl::moveToEndImpl<QList<QCPLayerable*> >(void const*, void**)
PUBLIC a6990 0 void QtMetaTypePrivate::QSequentialIterableImpl::moveToBeginImpl<QList<QCPLayerable*> >(void const*, void**)
PUBLIC a69c0 0 void QtMetaTypePrivate::QSequentialIterableImpl::moveToEndImpl<QList<double> >(void const*, void**)
PUBLIC a69f0 0 void QtMetaTypePrivate::QSequentialIterableImpl::moveToBeginImpl<QList<double> >(void const*, void**)
PUBLIC a6ae0 0 QtMetaTypePrivate::QMetaTypeFunctionHelper<QtMetaTypePrivate::QSequentialIterableImpl, true>::Construct(void*, void const*)
PUBLIC a6ce0 0 QtMetaTypePrivate::QMetaTypeFunctionHelper<QVector<double>, true>::Destruct(void*)
PUBLIC a6d20 0 QtMetaTypePrivate::QMetaTypeFunctionHelper<QVector<QString>, true>::Destruct(void*)
PUBLIC a6ec0 0 QtMetaTypePrivate::QMetaTypeFunctionHelper<QVector<QString>, true>::Construct(void*, void const*)
PUBLIC a7010 0 QtMetaTypePrivate::QMetaTypeFunctionHelper<QVector<double>, true>::Construct(void*, void const*)
PUBLIC a71e0 0 QtMetaTypePrivate::QMetaTypeFunctionHelper<QList<QCPLayerable*>, true>::Construct(void*, void const*)
PUBLIC a7220 0 QtMetaTypePrivate::QMetaTypeFunctionHelper<QList<QCPLayerable*>, true>::Destruct(void*)
PUBLIC a72b0 0 QtMetaTypePrivate::QMetaTypeFunctionHelper<QList<double>, true>::Construct(void*, void const*)
PUBLIC a72f0 0 QtMetaTypePrivate::QMetaTypeFunctionHelper<QList<double>, true>::Destruct(void*)
PUBLIC a77a0 0 QtPrivate::ConverterFunctor<QList<QCPLayerable*>, QtMetaTypePrivate::QSequentialIterableImpl, QtMetaTypePrivate::QSequentialIterableConvertFunctor<QList<QCPLayerable*> > >::convert(QtPrivate::AbstractConverterFunction const*, void const*, void*)
PUBLIC a7d90 0 QtPrivate::ConverterFunctor<QList<QCPLayerable*>, QtMetaTypePrivate::QSequentialIterableImpl, QtMetaTypePrivate::QSequentialIterableConvertFunctor<QList<QCPLayerable*> > >::~ConverterFunctor()
PUBLIC a8260 0 QtPrivate::ConverterFunctor<QList<double>, QtMetaTypePrivate::QSequentialIterableImpl, QtMetaTypePrivate::QSequentialIterableConvertFunctor<QList<double> > >::~ConverterFunctor()
PUBLIC a8870 0 QtPrivate::ConverterFunctor<QVector<QString>, QtMetaTypePrivate::QSequentialIterableImpl, QtMetaTypePrivate::QSequentialIterableConvertFunctor<QVector<QString> > >::~ConverterFunctor()
PUBLIC a8c00 0 QtPrivate::ConverterFunctor<QVector<double>, QtMetaTypePrivate::QSequentialIterableImpl, QtMetaTypePrivate::QSequentialIterableConvertFunctor<QVector<double> > >::~ConverterFunctor()
PUBLIC b1800 0 pcre_compile2
PUBLIC b2d70 0 pcre_compile
PUBLIC d2a50 0 pcre_study
PUBLIC d2e10 0 pcre_fullinfo
PUBLIC d3ac0 0 google_breakpad::ExceptionHandler::SignalHandler(int, siginfo*, void*)
PUBLIC d3e10 0 google_breakpad::ExceptionHandler::ThreadEntry(void*)
PUBLIC e07a0 0 GUIDGenerator::InitOnceImpl()
PUBLIC e2474 0 _fini
STACK CFI INIT 1cff0 30e0 .cfa: $rsp 16 + .ra: .cfa -8 + ^
STACK CFI 1cff6 .cfa: $rsp 24 +
STACK CFI INIT 20b60 9a .cfa: $rsp 8 + .ra: .cfa -8 + ^
STACK CFI 20b61 $rbp: .cfa -16 + ^ .cfa: $rsp 16 +
STACK CFI 20b62 $rbx: .cfa -24 + ^ .cfa: $rsp 24 +
STACK CFI 20b68 .cfa: $rsp 64 +
STACK CFI 20b70 .cfa: $rsp 24 +
STACK CFI 20b73 .cfa: $rsp 16 +
STACK CFI 20b74 .cfa: $rsp 8 +
STACK CFI 20b78 .cfa: $rsp 64 +
STACK CFI 20b99 .cfa: $rsp 24 +
STACK CFI 20b9c .cfa: $rsp 16 +
STACK CFI 20b9d .cfa: $rsp 8 +
STACK CFI 20ba0 .cfa: $rsp 64 +
STACK CFI INIT 20c00 37 .cfa: $rsp 8 + .ra: .cfa -8 + ^
STACK CFI INIT 20c40 a3 .cfa: $rsp 8 + .ra: .cfa -8 + ^
STACK CFI 20c41 $rbx: .cfa -16 + ^ .cfa: $rsp 16 +
STACK CFI 20c48 .cfa: $rsp 48 +
STACK CFI 20c8a .cfa: $rsp 16 +
STACK CFI 20c8e .cfa: $rsp 8 +
STACK CFI 20c90 .cfa: $rsp 48 +
STACK CFI INIT 20cf0 95 .cfa: $rsp 8 + .ra: .cfa -8 + ^
STACK CFI 20cf1 $rbp: .cfa -16 + ^ .cfa: $rsp 16 +
STACK CFI 20cf5 $rbx: .cfa -24 + ^ .cfa: $rsp 24 +
STACK CFI 20cf9 .cfa: $rsp 48 +
STACK CFI 20d1e .cfa: $rsp 24 +
STACK CFI 20d1f .cfa: $rsp 16 +
STACK CFI 20d20 .cfa: $rsp 8 +
STACK CFI 20d21 .cfa: $rsp 48 +
STACK CFI INIT 20520 465 .cfa: $rsp 8 + .ra: .cfa -8 + ^
STACK CFI 20522 $r15: .cfa -16 + ^ .cfa: $rsp 16 +
STACK CFI 2052c $r14: .cfa -24 + ^ .cfa: $rsp 24 +
STACK CFI 2052e $r13: .cfa -32 + ^ .cfa: $rsp 32 +
STACK CFI 20530 $r12: .cfa -40 + ^ .cfa: $rsp 40 +
STACK CFI 20531 $rbp: .cfa -48 + ^ .cfa: $rsp 48 +
STACK CFI 20532 $rbx: .cfa -56 + ^ .cfa: $rsp 56 +
STACK CFI 20539 .cfa: $rsp 352 +
STACK CFI 2084d .cfa: $rsp 56 +
STACK CFI 20850 .cfa: $rsp 48 +
STACK CFI 20851 .cfa: $rsp 40 +
STACK CFI 20853 .cfa: $rsp 32 +
STACK CFI 20855 .cfa: $rsp 24 +
STACK CFI 20857 .cfa: $rsp 16 +
STACK CFI 20859 .cfa: $rsp 8 +
STACK CFI 2085a .cfa: $rsp 352 +
STACK CFI INIT 28cf0 f .cfa: $rsp 8 + .ra: .cfa -8 + ^
STACK CFI INIT 28d00 2 .cfa: $rsp 8 + .ra: .cfa -8 + ^
STACK CFI INIT 28d10 2 .cfa: $rsp 8 + .ra: .cfa -8 + ^
STACK CFI INIT 28d20 6 .cfa: $rsp 8 + .ra: .cfa -8 + ^
STACK CFI INIT 28d30 3 .cfa: $rsp 8 + .ra: .cfa -8 + ^
STACK CFI INIT 28d40 50 .cfa: $rsp 8 + .ra: .cfa -8 + ^
STACK CFI 28d42 $r14: .cfa -16 + ^ .cfa: $rsp 16 +
STACK CFI 28d4c $r13: .cfa -24 + ^ .cfa: $rsp 24 +
STACK CFI 28d51 $r12: .cfa -32 + ^ .cfa: $rsp 32 +
STACK CFI 28d55 $rbp: .cfa -40 + ^ .cfa: $rsp 40 +
STACK CFI 28d5a $rbx: .cfa -48 + ^ .cfa: $rsp 48 +
STACK CFI 28d83 .cfa: $rsp 40 +
STACK CFI 28d84 .cfa: $rsp 32 +
STACK CFI 28d86 .cfa: $rsp 24 +
STACK CFI 28d88 .cfa: $rsp 16 +
STACK CFI 28d8f .cfa: $rsp 8 +
STACK CFI INIT 28d90 3 .cfa: $rsp 8 + .ra: .cfa -8 + ^
STACK CFI INIT 28da0 3 .cfa: $rsp 8 + .ra: .cfa -8 + ^
STACK CFI INIT 28db0 5 .cfa: $rsp 8 + .ra: .cfa -8 + ^
STACK CFI INIT 28dc0 3 .cfa: $rsp 8 + .ra: .cfa -8 + ^
STACK CFI INIT 28dd0 3 .cfa: $rsp 8 + .ra: .cfa -8 + ^
STACK CFI INIT 28de0 3 .cfa: $rsp 8 + .ra: .cfa -8 + ^
STACK CFI INIT 28df0 2 .cfa: $rsp 8 + .ra: .cfa -8 + ^
STACK CFI INIT 28e00 6 .cfa: $rsp 8 + .ra: .cfa -8 + ^
STACK CFI INIT 28e10 5 .cfa: $rsp 8 + .ra: .cfa -8 + ^
STACK CFI INIT 28e20 5 .cfa: $rsp 8 + .ra: .cfa -8 + ^
STACK CFI INIT 28e30 5 .cfa: $rsp 8 + .ra: .cfa -8 + ^
STACK CFI INIT 28e40 5 .cfa: $rsp 8 + .ra: .cfa -8 + ^
STACK CFI INIT 28e50 13 .cfa: $rsp 8 + .ra: .cfa -8 + ^
STACK CFI INIT 28e70 20 .cfa: $rsp 8 + .ra: .cfa -8 + ^
STACK CFI 28e82 .cfa: $rsp 16 +
STACK CFI 28e8b .cfa: $rsp 8 +
STACK CFI INIT 28e90 13 .cfa: $rsp 8 + .ra: .cfa -8 + ^
STACK CFI INIT 20d90 2e .cfa: $rsp 8 + .ra: .cfa -8 + ^
STACK CFI 20d98 $rbx: .cfa -16 + ^ .cfa: $rsp 16 +
STACK CFI 20db9 .cfa: $rsp 8 +
STACK CFI INIT 20dc0 6 .cfa: $rsp 8 + .ra: .cfa -8 + ^
STACK CFI INIT 20dd0 12 .cfa: $rsp 8 + .ra: .cfa -8 + ^
STACK CFI 20dd1 $rbx: .cfa -16 + ^ .cfa: $rsp 16 +
STACK CFI 20ddd .cfa: $rsp 8 +
STACK CFI INIT 20df0 6 .cfa: $rsp 8 + .ra: .cfa -8 + ^
STACK CFI INIT 28eb0 21 .cfa: $rsp 8 + .ra: .cfa -8 + ^
STACK CFI INIT 28ee0 9 .cfa: $rsp 8 + .ra: .cfa -8 + ^
STACK CFI INIT 28ef0 2e .cfa: $rsp 8 + .ra: .cfa -8 + ^
STACK CFI 28ef8 $rbx: .cfa -16 + ^ .cfa: $rsp 16 +
STACK CFI 28f19 .cfa: $rsp 8 +
STACK CFI INIT 28f20 9 .cfa: $rsp 8 + .ra: .cfa -8 + ^
STACK CFI INIT 28f30 21 .cfa: $rsp 8 + .ra: .cfa -8 + ^
STACK CFI INIT 28f60 9 .cfa: $rsp 8 + .ra: .cfa -8 + ^
STACK CFI INIT 28f70 2e .cfa: $rsp 8 + .ra: .cfa -8 + ^
STACK CFI 28f78 $rbx: .cfa -16 + ^ .cfa: $rsp 16 +
STACK CFI 28f99 .cfa: $rsp 8 +
STACK CFI INIT 28fa0 9 .cfa: $rsp 8 + .ra: .cfa -8 + ^
STACK CFI INIT 28fb0 1e .cfa: $rsp 8 + .ra: .cfa -8 + ^
STACK CFI INIT 28fd0 9 .cfa: $rsp 8 + .ra: .cfa -8 + ^
STACK CFI INIT 28fe0 2b .cfa: $rsp 8 + .ra: .cfa -8 + ^
STACK CFI 28fe8 $rbx: .cfa -16 + ^ .cfa: $rsp 16 +
STACK CFI 29006 .cfa: $rsp 8 +
STACK CFI INIT 29010 9 .cfa: $rsp 8 + .ra: .cfa -8 + ^
STACK CFI INIT 29020 1e .cfa: $rsp 8 + .ra: .cfa -8 + ^
STACK CFI INIT 29040 9 .cfa: $rsp 8 + .ra: .cfa -8 + ^
STACK CFI INIT 29050 2b .cfa: $rsp 8 + .ra: .cfa -8 + ^
STACK CFI 29058 $rbx: .cfa -16 + ^ .cfa: $rsp 16 +
STACK CFI 29076 .cfa: $rsp 8 +
STACK CFI INIT 29080 9 .cfa: $rsp 8 + .ra: .cfa -8 + ^
STACK CFI INIT 29090 52 .cfa: $rsp 8 + .ra: .cfa -8 + ^
STACK CFI 29098 $rbx: .cfa -16 + ^ .cfa: $rsp 16 +
STACK CFI 290dd .cfa: $rsp 8 +
STACK CFI INIT 290f0 9 .cfa: $rsp 8 + .ra: .cfa -8 + ^
STACK CFI INIT 20e00 5 .cfa: $rsp 8 + .ra: .cfa -8 + ^
STACK CFI INIT 29100 32 .cfa: $rsp 8 + .ra: .cfa -8 + ^
STACK CFI 29101 $rbx: .cfa -16 + ^ .cfa: $rsp 16 +
STACK CFI 2912b .cfa: $rsp 8 +
STACK CFI 29130 .cfa: $rsp 16 +
STACK CFI 29131 .cfa: $rsp 8 +
STACK CFI INIT 29140 9 .cfa: $rsp 8 + .ra: .cfa -8 + ^
STACK CFI INIT 29150 32 .cfa: $rsp 8 + .ra: .cfa -8 + ^
STACK CFI 29151 $rbx: .cfa -16 + ^ .cfa: $rsp 16 +
STACK CFI 2917b .cfa: $rsp 8 +
STACK CFI 29180 .cfa: $rsp 16 +
STACK CFI 29181 .cfa: $rsp 8 +
STACK CFI INIT 29190 9 .cfa: $rsp 8 + .ra: .cfa -8 + ^
STACK CFI INIT 291a0 41 .cfa: $rsp 8 + .ra: .cfa -8 + ^
STACK CFI 291cc .cfa: $rsp 16 +
STACK CFI 291dd .cfa: $rsp 8 +
STACK CFI INIT 291f0 9 .cfa: $rsp 8 + .ra: .cfa -8 + ^
STACK CFI INIT 29200 54 .cfa: $rsp 8 + .ra: .cfa -8 + ^
STACK CFI 29205 $rbx: .cfa -16 + ^ .cfa: $rsp 16 +
STACK CFI 2922e .cfa: $rsp 8 +
STACK CFI 29230 .cfa: $rsp 16 +
STACK CFI INIT 29260 9 .cfa: $rsp 8 + .ra: .cfa -8 + ^
STACK CFI INIT 20e10 3d .cfa: $rsp 8 + .ra: .cfa -8 + ^
STACK CFI 20e12 $r12: .cfa -16 + ^ .cfa: $rsp 16 +
STACK CFI 20e16 $rbp: .cfa -24 + ^ .cfa: $rsp 24 +
STACK CFI 20e17 $rbx: .cfa -32 + ^ .cfa: $rsp 32 +
STACK CFI 20e42 .cfa: $rsp 24 +
STACK CFI 20e43 .cfa: $rsp 16 +
STACK CFI 20e48 .cfa: $rsp 8 +
STACK CFI INIT 20e50 62 .cfa: $rsp 8 + .ra: .cfa -8 + ^
STACK CFI 20e54 $rbx: .cfa -16 + ^ .cfa: $rsp 16 +
STACK CFI 20e70 .cfa: $rsp 8 +
STACK CFI 20e78 .cfa: $rsp 16 +
STACK CFI 20e88 .cfa: $rsp 8 +
STACK CFI 20e90 .cfa: $rsp 16 +
STACK CFI 20ea1 .cfa: $rsp 8 +
STACK CFI 20ea8 .cfa: $rsp 16 +
STACK CFI 20eb1 .cfa: $rsp 8 +
STACK CFI INIT 20ec0 8f .cfa: $rsp 8 + .ra: .cfa -8 + ^
STACK CFI 20ec1 $rbp: .cfa -16 + ^ .cfa: $rsp 16 +
STACK CFI 20ec2 $rbx: .cfa -24 + ^ .cfa: $rsp 24 +
STACK CFI 20ec9 .cfa: $rsp 32 +
STACK CFI 20ee6 .cfa: $rsp 24 +
STACK CFI 20ee9 .cfa: $rsp 16 +
STACK CFI 20eea .cfa: $rsp 8 +
STACK CFI 20ef0 .cfa: $rsp 32 +
STACK CFI 20f13 .cfa: $rsp 24 +
STACK CFI 20f16 .cfa: $rsp 16 +
STACK CFI 20f17 .cfa: $rsp 8 +
STACK CFI 20f20 .cfa: $rsp 32 +
STACK CFI 20f32 .cfa: $rsp 24 +
STACK CFI 20f35 .cfa: $rsp 16 +
STACK CFI 20f36 .cfa: $rsp 8 +
STACK CFI 20f40 .cfa: $rsp 32 +
STACK CFI 20f4a .cfa: $rsp 24 +
STACK CFI 20f4d .cfa: $rsp 16 +
STACK CFI 20f4e .cfa: $rsp 8 +
STACK CFI INIT 20f50 34 .cfa: $rsp 8 + .ra: .cfa -8 + ^
STACK CFI 20f51 $rbx: .cfa -16 + ^ .cfa: $rsp 16 +
STACK CFI 20f83 .cfa: $rsp 8 +
STACK CFI INIT 20f90 34 .cfa: $rsp 8 + .ra: .cfa -8 + ^
STACK CFI 20f91 $rbx: .cfa -16 + ^ .cfa: $rsp 16 +
STACK CFI 20fc3 .cfa: $rsp 8 +
STACK CFI INIT 29270 76 .cfa: $rsp 8 + .ra: .cfa -8 + ^
STACK CFI INIT 292f0 76 .cfa: $rsp 8 + .ra: .cfa -8 + ^
STACK CFI INIT 29370 76 .cfa: $rsp 8 + .ra: .cfa -8 + ^
STACK CFI INIT 20fd0 4b .cfa: $rsp 8 + .ra: .cfa -8 + ^
STACK CFI 21009 $rbx: .cfa -16 + ^ .cfa: $rsp 16 +
STACK CFI 2101a $rbx: $rbx .cfa: $rsp 8 +
STACK CFI INIT 21020 4b .cfa: $rsp 8 + .ra: .cfa -8 + ^
STACK CFI 21059 $rbx: .cfa -16 + ^ .cfa: $rsp 16 +
STACK CFI 2106a $rbx: $rbx .cfa: $rsp 8 +
STACK CFI INIT 293f0 41 .cfa: $rsp 8 + .ra: .cfa -8 + ^
STACK CFI 293f1 $rbx: .cfa -16 + ^ .cfa: $rsp 16 +
STACK CFI 29414 .cfa: $rsp 8 +
STACK CFI 29418 .cfa: $rsp 16 +
STACK CFI 2942d .cfa: $rsp 8 +
STACK CFI INIT 29440 9 .cfa: $rsp 8 + .ra: .cfa -8 + ^
STACK CFI INIT 21070 6f .cfa: $rsp 8 + .ra: .cfa -8 + ^
STACK CFI 21072 $r13: .cfa -16 + ^ .cfa: $rsp 16 +
STACK CFI 21074 $r12: .cfa -24 + ^ .cfa: $rsp 24 +
STACK CFI 21078 $rbp: .cfa -32 + ^ .cfa: $rsp 32 +
STACK CFI 21079 $rbx: .cfa -40 + ^ .cfa: $rsp 40 +
STACK CFI 2107d .cfa: $rsp 48 +
STACK CFI 210d3 .cfa: $rsp 40 +
STACK CFI 210d4 .cfa: $rsp 32 +
STACK CFI 210d5 .cfa: $rsp 24 +
STACK CFI 210d7 .cfa: $rsp 16 +
STACK CFI 210d9 .cfa: $rsp 8 +
STACK CFI 210da .cfa: $rsp 48 +
STACK CFI INIT 29450 41 .cfa: $rsp 8 + .ra: .cfa -8 + ^
STACK CFI 2947c .cfa: $rsp 16 +
STACK CFI 2948d .cfa: $rsp 8 +
STACK CFI INIT 294a0 9 .cfa: $rsp 8 + .ra: .cfa -8 + ^
STACK CFI INIT 294b0 5a .cfa: $rsp 8 + .ra: .cfa -8 + ^
STACK CFI 294b8 $rbx: .cfa -16 + ^ .cfa: $rsp 16 +
STACK CFI 29505 .cfa: $rsp 8 +
STACK CFI INIT 29510 9 .cfa: $rsp 8 + .ra: .cfa -8 + ^
STACK CFI INIT 210e0 97 .cfa: $rsp 8 + .ra: .cfa -8 + ^
STACK CFI 210e2 $r14: .cfa -16 + ^ .cfa: $rsp 16 +
STACK CFI 210e4 $r13: .cfa -24 + ^ .cfa: $rsp 24 +
STACK CFI 210e9 $r12: .cfa -32 + ^ .cfa: $rsp 32 +
STACK CFI 210ea $rbp: .cfa -40 + ^ .cfa: $rsp 40 +
STACK CFI 210eb $rbx: .cfa -48 + ^ .cfa: $rsp 48 +
STACK CFI 210f2 .cfa: $rsp 64 +
STACK CFI 2113c .cfa: $rsp 48 +
STACK CFI 2113d .cfa: $rsp 40 +
STACK CFI 2113e .cfa: $rsp 32 +
STACK CFI 21140 .cfa: $rsp 24 +
STACK CFI 21142 .cfa: $rsp 16 +
STACK CFI 21144 .cfa: $rsp 8 +
STACK CFI 21145 .cfa: $rsp 64 +
STACK CFI INIT 29520 19b .cfa: $rsp 8 + .ra: .cfa -8 + ^
STACK CFI 29522 $r14: .cfa -16 + ^ .cfa: $rsp 16 +
STACK CFI 29524 $r13: .cfa -24 + ^ .cfa: $rsp 24 +
STACK CFI 29529 $r12: .cfa -32 + ^ .cfa: $rsp 32 +
STACK CFI 2952a $rbp: .cfa -40 + ^ .cfa: $rsp 40 +
STACK CFI 2952b $rbx: .cfa -48 + ^ .cfa: $rsp 48 +
STACK CFI 2952f .cfa: $rsp 64 +
STACK CFI 29552 .cfa: $rsp 48 +
STACK CFI 29553 .cfa: $rsp 40 +
STACK CFI 29554 .cfa: $rsp 32 +
STACK CFI 29556 .cfa: $rsp 24 +
STACK CFI 29558 .cfa: $rsp 16 +
STACK CFI 2955a .cfa: $rsp 8 +
STACK CFI 29560 .cfa: $rsp 64 +
STACK CFI INIT 296c0 1ab .cfa: $rsp 8 + .ra: .cfa -8 + ^
STACK CFI 296c2 $r14: .cfa -16 + ^ .cfa: $rsp 16 +
STACK CFI 296c4 $r13: .cfa -24 + ^ .cfa: $rsp 24 +
STACK CFI 296c9 $r12: .cfa -32 + ^ .cfa: $rsp 32 +
STACK CFI 296ca $rbp: .cfa -40 + ^ .cfa: $rsp 40 +
STACK CFI 296cb $rbx: .cfa -48 + ^ .cfa: $rsp 48 +
STACK CFI 296cf .cfa: $rsp 64 +
STACK CFI 29701 .cfa: $rsp 48 +
STACK CFI 29702 .cfa: $rsp 40 +
STACK CFI 29703 .cfa: $rsp 32 +
STACK CFI 29705 .cfa: $rsp 24 +
STACK CFI 29707 .cfa: $rsp 16 +
STACK CFI 29709 .cfa: $rsp 8 +
STACK CFI 29710 .cfa: $rsp 64 +
STACK CFI INIT 29870 9 .cfa: $rsp 8 + .ra: .cfa -8 + ^
STACK CFI INIT 21180 214 .cfa: $rsp 8 + .ra: .cfa -8 + ^
STACK CFI 21182 $r15: .cfa -16 + ^ .cfa: $rsp 16 +
STACK CFI 21184 $r14: .cfa -24 + ^ .cfa: $rsp 24 +
STACK CFI 21186 $r13: .cfa -32 + ^ .cfa: $rsp 32 +
STACK CFI 21188 $r12: .cfa -40 + ^ .cfa: $rsp 40 +
STACK CFI 2118c $rbp: .cfa -48 + ^ .cfa: $rsp 48 +
STACK CFI 2118d $rbx: .cfa -56 + ^ .cfa: $rsp 56 +
STACK CFI 21191 .cfa: $rsp 80 +
STACK CFI 211f6 .cfa: $rsp 56 +
STACK CFI 211f7 .cfa: $rsp 48 +
STACK CFI 211f8 .cfa: $rsp 40 +
STACK CFI 211fa .cfa: $rsp 32 +
STACK CFI 211fc .cfa: $rsp 24 +
STACK CFI 211fe .cfa: $rsp 16 +
STACK CFI 21200 .cfa: $rsp 8 +
STACK CFI 21208 .cfa: $rsp 80 +
STACK CFI INIT 213a0 9 .cfa: $rsp 8 + .ra: .cfa -8 + ^
STACK CFI INIT 29880 214 .cfa: $rsp 8 + .ra: .cfa -8 + ^
STACK CFI 29882 $r15: .cfa -16 + ^ .cfa: $rsp 16 +
STACK CFI 29884 $r14: .cfa -24 + ^ .cfa: $rsp 24 +
STACK CFI 29886 $r13: .cfa -32 + ^ .cfa: $rsp 32 +
STACK CFI 29888 $r12: .cfa -40 + ^ .cfa: $rsp 40 +
STACK CFI 2988c $rbp: .cfa -48 + ^ .cfa: $rsp 48 +
STACK CFI 2988d $rbx: .cfa -56 + ^ .cfa: $rsp 56 +
STACK CFI 29891 .cfa: $rsp 80 +
STACK CFI 298f6 .cfa: $rsp 56 +
STACK CFI 298f7 .cfa: $rsp 48 +
STACK CFI 298f8 .cfa: $rsp 40 +
STACK CFI 298fa .cfa: $rsp 32 +
STACK CFI 298fc .cfa: $rsp 24 +
STACK CFI 298fe .cfa: $rsp 16 +
STACK CFI 29900 .cfa: $rsp 8 +
STACK CFI 29908 .cfa: $rsp 80 +
STACK CFI INIT 29aa0 9 .cfa: $rsp 8 + .ra: .cfa -8 + ^
STACK CFI INIT 29ab0 19b .cfa: $rsp 8 + .ra: .cfa -8 + ^
STACK CFI 29ab2 $r14: .cfa -16 + ^ .cfa: $rsp 16 +
STACK CFI 29ab4 $r13: .cfa -24 + ^ .cfa: $rsp 24 +
STACK CFI 29ab9 $r12: .cfa -32 + ^ .cfa: $rsp 32 +
STACK CFI 29aba $rbp: .cfa -40 + ^ .cfa: $rsp 40 +
STACK CFI 29abb $rbx: .cfa -48 + ^ .cfa: $rsp 48 +
STACK CFI 29abf .cfa: $rsp 64 +
STACK CFI 29aea .cfa: $rsp 48 +
STACK CFI 29aeb .cfa: $rsp 40 +
STACK CFI 29aec .cfa: $rsp 32 +
STACK CFI 29aee .cfa: $rsp 24 +
STACK CFI 29af0 .cfa: $rsp 16 +
STACK CFI 29af2 .cfa: $rsp 8 +
STACK CFI 29af8 .cfa: $rsp 64 +
STACK CFI INIT 29c50 1ab .cfa: $rsp 8 + .ra: .cfa -8 + ^
STACK CFI 29c52 $r14: .cfa -16 + ^ .cfa: $rsp 16 +
STACK CFI 29c54 $r13: .cfa -24 + ^ .cfa: $rsp 24 +
STACK CFI 29c56 $r12: .cfa -32 + ^ .cfa: $rsp 32 +
STACK CFI 29c5a $rbp: .cfa -40 + ^ .cfa: $rsp 40 +
STACK CFI 29c5b $rbx: .cfa -48 + ^ .cfa: $rsp 48 +
STACK CFI 29c5f .cfa: $rsp 64 +
STACK CFI 29c99 .cfa: $rsp 48 +
STACK CFI 29c9a .cfa: $rsp 40 +
STACK CFI 29c9b .cfa: $rsp 32 +
STACK CFI 29c9d .cfa: $rsp 24 +
STACK CFI 29c9f .cfa: $rsp 16 +
STACK CFI 29ca1 .cfa: $rsp 8 +
STACK CFI 29ca8 .cfa: $rsp 64 +
STACK CFI INIT 29e00 9 .cfa: $rsp 8 + .ra: .cfa -8 + ^
STACK CFI INIT 29e10 214 .cfa: $rsp 8 + .ra: .cfa -8 + ^
STACK CFI 29e12 $r15: .cfa -16 + ^ .cfa: $rsp 16 +
STACK CFI 29e14 $r14: .cfa -24 + ^ .cfa: $rsp 24 +
STACK CFI 29e16 $r13: .cfa -32 + ^ .cfa: $rsp 32 +
STACK CFI 29e18 $r12: .cfa -40 + ^ .cfa: $rsp 40 +
STACK CFI 29e1c $rbp: .cfa -48 + ^ .cfa: $rsp 48 +
STACK CFI 29e1d $rbx: .cfa -56 + ^ .cfa: $rsp 56 +
STACK CFI 29e21 .cfa: $rsp 80 +
STACK CFI 29e8e .cfa: $rsp 56 +
STACK CFI 29e8f .cfa: $rsp 48 +
STACK CFI 29e90 .cfa: $rsp 40 +
STACK CFI 29e92 .cfa: $rsp 32 +
STACK CFI 29e94 .cfa: $rsp 24 +
STACK CFI 29e96 .cfa: $rsp 16 +
STACK CFI 29e98 .cfa: $rsp 8 +
STACK CFI 29ea0 .cfa: $rsp 80 +
STACK CFI INIT 2a030 9 .cfa: $rsp 8 + .ra: .cfa -8 + ^
STACK CFI INIT 213b0 214 .cfa: $rsp 8 + .ra: .cfa -8 + ^
STACK CFI 213b2 $r15: .cfa -16 + ^ .cfa: $rsp 16 +
STACK CFI 213b4 $r14: .cfa -24 + ^ .cfa: $rsp 24 +
STACK CFI 213b6 $r13: .cfa -32 + ^ .cfa: $rsp 32 +
STACK CFI 213b8 $r12: .cfa -40 + ^ .cfa: $rsp 40 +
STACK CFI 213bc $rbp: .cfa -48 + ^ .cfa: $rsp 48 +
STACK CFI 213bd $rbx: .cfa -56 + ^ .cfa: $rsp 56 +
STACK CFI 213c1 .cfa: $rsp 80 +
STACK CFI 2142e .cfa: $rsp 56 +
STACK CFI 2142f .cfa: $rsp 48 +
STACK CFI 21430 .cfa: $rsp 40 +
STACK CFI 21432 .cfa: $rsp 32 +
STACK CFI 21434 .cfa: $rsp 24 +
STACK CFI 21436 .cfa: $rsp 16 +
STACK CFI 21438 .cfa: $rsp 8 +
STACK CFI 21440 .cfa: $rsp 80 +
STACK CFI INIT 215d0 9 .cfa: $rsp 8 + .ra: .cfa -8 + ^
STACK CFI INIT 2a040 1a6 .cfa: $rsp 8 + .ra: .cfa -8 + ^
STACK CFI 2a042 $r15: .cfa -16 + ^ .cfa: $rsp 16 +
STACK CFI 2a044 $r14: .cfa -24 + ^ .cfa: $rsp 24 +
STACK CFI 2a046 $r13: .cfa -32 + ^ .cfa: $rsp 32 +
STACK CFI 2a048 $r12: .cfa -40 + ^ .cfa: $rsp 40 +
STACK CFI 2a049 $rbp: .cfa -48 + ^ .cfa: $rsp 48 +
STACK CFI 2a04a $rbx: .cfa -56 + ^ .cfa: $rsp 56 +
STACK CFI 2a051 .cfa: $rsp 64 +
STACK CFI 2a0d7 .cfa: $rsp 56 +
STACK CFI 2a0db .cfa: $rsp 48 +
STACK CFI 2a0dc .cfa: $rsp 40 +
STACK CFI 2a0de .cfa: $rsp 32 +
STACK CFI 2a0e0 .cfa: $rsp 24 +
STACK CFI 2a0e2 .cfa: $rsp 16 +
STACK CFI 2a0e4 .cfa: $rsp 8 +
STACK CFI 2a0f0 .cfa: $rsp 64 +
STACK CFI INIT 2a1f0 c .cfa: $rsp 8 + .ra: .cfa -8 + ^
STACK CFI INIT 2a200 37 .cfa: $rsp 8 + .ra: .cfa -8 + ^
STACK CFI INIT 2a240 37 .cfa: $rsp 8 + .ra: .cfa -8 + ^
STACK CFI 2a241 $rbx: .cfa -16 + ^ .cfa: $rsp 16 +
STACK CFI 2a248 .cfa: $rsp 32 +
STACK CFI 2a272 .cfa: $rsp 16 +
STACK CFI 2a276 .cfa: $rsp 8 +
STACK CFI INIT 215e0 64 .cfa: $rsp 8 + .ra: .cfa -8 + ^
STACK CFI 215e1 $rbp: .cfa -16 + ^ .cfa: $rsp 16 +
STACK CFI 215e5 $rbx: .cfa -24 + ^ .cfa: $rsp 24 +
STACK CFI 215e9 .cfa: $rsp 48 +
STACK CFI 2162e .cfa: $rsp 24 +
STACK CFI 2162f .cfa: $rsp 16 +
STACK CFI 21630 .cfa: $rsp 8 +
STACK CFI 21631 .cfa: $rsp 48 +
STACK CFI INIT 21650 cc .cfa: $rsp 8 + .ra: .cfa -8 + ^
STACK CFI 21652 $r12: .cfa -16 + ^ .cfa: $rsp 16 +
STACK CFI 21656 $rbp: .cfa -24 + ^ .cfa: $rsp 24 +
STACK CFI 2165a $rbx: .cfa -32 + ^ .cfa: $rsp 32 +
STACK CFI 2165e .cfa: $rsp 64 +
STACK CFI 216e1 .cfa: $rsp 32 +
STACK CFI 216e2 .cfa: $rsp 24 +
STACK CFI 216e3 .cfa: $rsp 16 +
STACK CFI 216e5 .cfa: $rsp 8 +
STACK CFI 216e6 .cfa: $rsp 64 +
STACK CFI INIT 21720 d9 .cfa: $rsp 8 + .ra: .cfa -8 + ^
STACK CFI 21722 $r14: .cfa -16 + ^ .cfa: $rsp 16 +
STACK CFI 21727 $r13: .cfa -24 + ^ .cfa: $rsp 24 +
STACK CFI 21729 $r12: .cfa -32 + ^ .cfa: $rsp 32 +
STACK CFI 2172d $rbp: .cfa -40 + ^ .cfa: $rsp 40 +
STACK CFI 2172e $rbx: .cfa -48 + ^ .cfa: $rsp 48 +
STACK CFI 21732 .cfa: $rsp 80 +
STACK CFI 217d5 .cfa: $rsp 48 +
STACK CFI 217d6 .cfa: $rsp 40 +
STACK CFI 217d7 .cfa: $rsp 32 +
STACK CFI 217d9 .cfa: $rsp 24 +
STACK CFI 217db .cfa: $rsp 16 +
STACK CFI 217dd .cfa: $rsp 8 +
STACK CFI 217de .cfa: $rsp 80 +
STACK CFI INIT 21800 15b .cfa: $rsp 8 + .ra: .cfa -8 + ^
STACK CFI 21802 $r14: .cfa -16 + ^ .cfa: $rsp 16 +
STACK CFI 21807 $r13: .cfa -24 + ^ .cfa: $rsp 24 +
STACK CFI 21811 $r12: .cfa -32 + ^ .cfa: $rsp 32 +
STACK CFI 21812 $rbp: .cfa -40 + ^ .cfa: $rsp 40 +
STACK CFI 21813 $rbx: .cfa -48 + ^ .cfa: $rsp 48 +
STACK CFI 21817 .cfa: $rsp 80 +
STACK CFI 21904 .cfa: $rsp 48 +
STACK CFI 21905 .cfa: $rsp 40 +
STACK CFI 21906 .cfa: $rsp 32 +
STACK CFI 21908 .cfa: $rsp 24 +
STACK CFI 2190a .cfa: $rsp 16 +
STACK CFI 2190c .cfa: $rsp 8 +
STACK CFI 2190d .cfa: $rsp 80 +
STACK CFI INIT 21960 9c5 .cfa: $rsp 8 + .ra: .cfa -8 + ^
STACK CFI 21962 $r15: .cfa -16 + ^ .cfa: $rsp 16 +
STACK CFI 21964 $r14: .cfa -24 + ^ .cfa: $rsp 24 +
STACK CFI 21966 $r13: .cfa -32 + ^ .cfa: $rsp 32 +
STACK CFI 21968 $r12: .cfa -40 + ^ .cfa: $rsp 40 +
STACK CFI 2196c $rbp: .cfa -48 + ^ .cfa: $rsp 48 +
STACK CFI 2196d $rbx: .cfa -56 + ^ .cfa: $rsp 56 +
STACK CFI 2197a .cfa: $rsp 736 +
STACK CFI 21aec .cfa: $rsp 56 +
STACK CFI 21aed .cfa: $rsp 48 +
STACK CFI 21aee .cfa: $rsp 40 +
STACK CFI 21af0 .cfa: $rsp 32 +
STACK CFI 21af2 .cfa: $rsp 24 +
STACK CFI 21af4 .cfa: $rsp 16 +
STACK CFI 21af6 .cfa: $rsp 8 +
STACK CFI 21b00 .cfa: $rsp 736 +
STACK CFI INIT 22330 11 .cfa: $rsp 8 + .ra: .cfa -8 + ^
STACK CFI 22331 $rbx: .cfa -16 + ^ .cfa: $rsp 16 +
STACK CFI 22340 .cfa: $rsp 8 +
STACK CFI INIT 22350 3d .cfa: $rsp 8 + .ra: .cfa -8 + ^
STACK CFI 22352 $r12: .cfa -16 + ^ .cfa: $rsp 16 +
STACK CFI 22356 $rbp: .cfa -24 + ^ .cfa: $rsp 24 +
STACK CFI 22357 $rbx: .cfa -32 + ^ .cfa: $rsp 32 +
STACK CFI 22382 .cfa: $rsp 24 +
STACK CFI 22383 .cfa: $rsp 16 +
STACK CFI 22388 .cfa: $rsp 8 +
STACK CFI INIT 22390 47 .cfa: $rsp 8 + .ra: .cfa -8 + ^
STACK CFI 22392 $r12: .cfa -16 + ^ .cfa: $rsp 16 +
STACK CFI 223a0 $rbp: .cfa -24 + ^ .cfa: $rsp 24 +
STACK CFI 223a1 $rbx: .cfa -32 + ^ .cfa: $rsp 32 +
STACK CFI 223c2 .cfa: $rsp 24 +
STACK CFI 223c3 .cfa: $rsp 16 +
STACK CFI 223d2 .cfa: $rsp 8 +
STACK CFI INIT 2a280 96 .cfa: $rsp 8 + .ra: .cfa -8 + ^
STACK CFI 2a288 $rbx: .cfa -16 + ^ .cfa: $rsp 16 +
STACK CFI 2a2f1 .cfa: $rsp 8 +
STACK CFI 2a300 .cfa: $rsp 16 +
STACK CFI INIT 2a320 c .cfa: $rsp 8 + .ra: .cfa -8 + ^
STACK CFI INIT 2a330 96 .cfa: $rsp 8 + .ra: .cfa -8 + ^
STACK CFI 2a338 $rbx: .cfa -16 + ^ .cfa: $rsp 16 +
STACK CFI 2a3a9 .cfa: $rsp 8 +
STACK CFI 2a3b0 .cfa: $rsp 16 +
STACK CFI INIT 2a3d0 c .cfa: $rsp 8 + .ra: .cfa -8 + ^
STACK CFI INIT 2a3e0 47 .cfa: $rsp 8 + .ra: .cfa -8 + ^
STACK CFI 2a3e1 $rbp: .cfa -16 + ^ .cfa: $rsp 16 +
STACK CFI 2a3e5 $rbx: .cfa -24 + ^ .cfa: $rsp 24 +
STACK CFI 2a3e9 .cfa: $rsp 48 +
STACK CFI 2a41a .cfa: $rsp 24 +
STACK CFI 2a420 .cfa: $rsp 16 +
STACK CFI 2a421 .cfa: $rsp 8 +
STACK CFI 2a422 .cfa: $rsp 48 +
STACK CFI INIT 2a430 14b .cfa: $rsp 8 + .ra: .cfa -8 + ^
STACK CFI 2a432 $r13: .cfa -16 + ^ .cfa: $rsp 16 +
STACK CFI 2a437 $r12: .cfa -24 + ^ .cfa: $rsp 24 +
STACK CFI 2a438 $rbp: .cfa -32 + ^ .cfa: $rsp 32 +
STACK CFI 2a439 $rbx: .cfa -40 + ^ .cfa: $rsp 40 +
STACK CFI 2a43d .cfa: $rsp 48 +
STACK CFI 2a458 .cfa: $rsp 40 +
STACK CFI 2a45c .cfa: $rsp 32 +
STACK CFI 2a45d .cfa: $rsp 24 +
STACK CFI 2a45f .cfa: $rsp 16 +
STACK CFI 2a461 .cfa: $rsp 8 +
STACK CFI 2a470 .cfa: $rsp 48 +
STACK CFI INIT 2a580 14b .cfa: $rsp 8 + .ra: .cfa -8 + ^
STACK CFI 2a582 $r13: .cfa -16 + ^ .cfa: $rsp 16 +
STACK CFI 2a587 $r12: .cfa -24 + ^ .cfa: $rsp 24 +
STACK CFI 2a588 $rbp: .cfa -32 + ^ .cfa: $rsp 32 +
STACK CFI 2a589 $rbx: .cfa -40 + ^ .cfa: $rsp 40 +
STACK CFI 2a58d .cfa: $rsp 48 +
STACK CFI 2a5b0 .cfa: $rsp 40 +
STACK CFI 2a5b4 .cfa: $rsp 32 +
STACK CFI 2a5b5 .cfa: $rsp 24 +
STACK CFI 2a5b7 .cfa: $rsp 16 +
STACK CFI 2a5b9 .cfa: $rsp 8 +
STACK CFI 2a5c0 .cfa: $rsp 48 +
STACK CFI INIT 2a6d0 17b .cfa: $rsp 8 + .ra: .cfa -8 + ^
STACK CFI 2a6d2 $r14: .cfa -16 + ^ .cfa: $rsp 16 +
STACK CFI 2a6dd $r13: .cfa -24 + ^ .cfa: $rsp 24 +
STACK CFI 2a6e3 $r12: .cfa -32 + ^ .cfa: $rsp 32 +
STACK CFI 2a6ec $rbp: .cfa -40 + ^ .cfa: $rsp 40 +
STACK CFI 2a6ed $rbx: .cfa -48 + ^ .cfa: $rsp 48 +
STACK CFI 2a724 .cfa: $rsp 40 +
STACK CFI 2a725 .cfa: $rsp 32 +
STACK CFI 2a72f .cfa: $rsp 24 +
STACK CFI 2a731 .cfa: $rsp 16 +
STACK CFI 2a733 .cfa: $rsp 8 +
STACK CFI 2a740 .cfa: $rsp 48 +
STACK CFI INIT 2a850 17b .cfa: $rsp 8 + .ra: .cfa -8 + ^
STACK CFI 2a852 $r14: .cfa -16 + ^ .cfa: $rsp 16 +
STACK CFI 2a85d $r13: .cfa -24 + ^ .cfa: $rsp 24 +
STACK CFI 2a863 $r12: .cfa -32 + ^ .cfa: $rsp 32 +
STACK CFI 2a86c $rbp: .cfa -40 + ^ .cfa: $rsp 40 +
STACK CFI 2a86d $rbx: .cfa -48 + ^ .cfa: $rsp 48 +
STACK CFI 2a8b1 .cfa: $rsp 40 +
STACK CFI 2a8b2 .cfa: $rsp 32 +
STACK CFI 2a8b7 .cfa: $rsp 24 +
STACK CFI 2a8b9 .cfa: $rsp 16 +
STACK CFI 2a8bb .cfa: $rsp 8 +
STACK CFI 2a8c0 .cfa: $rsp 48 +
STACK CFI INIT 2a9d0 9c .cfa: $rsp 8 + .ra: .cfa -8 + ^
STACK CFI 2a9d1 $rbp: .cfa -16 + ^ .cfa: $rsp 16 +
STACK CFI 2a9d4 $rbx: .cfa -24 + ^ .cfa: $rsp 24 +
STACK CFI 2a9db .cfa: $rsp 32 +
STACK CFI 2aa2c .cfa: $rsp 24 +
STACK CFI 2aa2d .cfa: $rsp 16 +
STACK CFI 2aa2e .cfa: $rsp 8 +
STACK CFI 2aa30 .cfa: $rsp 32 +
STACK CFI INIT 223e0 bed .cfa: $rsp 8 + .ra: .cfa -8 + ^
STACK CFI 223e2 $r15: .cfa -16 + ^ .cfa: $rsp 16 +
STACK CFI 223e4 $r14: .cfa -24 + ^ .cfa: $rsp 24 +
STACK CFI 223e6 $r13: .cfa -32 + ^ .cfa: $rsp 32 +
STACK CFI 223eb $r12: .cfa -40 + ^ .cfa: $rsp 40 +
STACK CFI 223ec $rbp: .cfa -48 + ^ .cfa: $rsp 48 +
STACK CFI 223ed $rbx: .cfa -56 + ^ .cfa: $rsp 56 +
STACK CFI 223f4 .cfa: $rsp 640 +
STACK CFI 2279d .cfa: $rsp 56 +
STACK CFI 2279e .cfa: $rsp 48 +
STACK CFI 2279f .cfa: $rsp 40 +
STACK CFI 227a1 .cfa: $rsp 32 +
STACK CFI 227a3 .cfa: $rsp 24 +
STACK CFI 227a5 .cfa: $rsp 16 +
STACK CFI 227a7 .cfa: $rsp 8 +
STACK CFI 227b0 .cfa: $rsp 640 +
STACK CFI INIT 2aa70 2a .cfa: $rsp 8 + .ra: .cfa -8 + ^
STACK CFI 2aa71 $rbx: .cfa -16 + ^ .cfa: $rsp 16 +
STACK CFI 2aa81 .cfa: $rsp 8 +
STACK CFI 2aa88 .cfa: $rsp 16 +
STACK CFI 2aa99 .cfa: $rsp 8 +
STACK CFI INIT 2aaa0 c05 .cfa: $rsp 8 + .ra: .cfa -8 + ^
STACK CFI 2aaa2 $r12: .cfa -16 + ^ .cfa: $rsp 16 +
STACK CFI 2aabc $rbp: .cfa -24 + ^ .cfa: $rsp 24 +
STACK CFI 2aac0 $rbx: .cfa -32 + ^ .cfa: $rsp 32 +
STACK CFI 2aac4 .cfa: $rsp 64 +
STACK CFI 2b412 .cfa: $rsp 32 +
STACK CFI 2b413 .cfa: $rsp 24 +
STACK CFI 2b414 .cfa: $rsp 16 +
STACK CFI 2b416 .cfa: $rsp 8 +
STACK CFI 2b417 .cfa: $rsp 64 +
STACK CFI INIT 2b6b0 12bd .cfa: $rsp 8 + .ra: .cfa -8 + ^
STACK CFI 2b6b2 $r15: .cfa -16 + ^ .cfa: $rsp 16 +
STACK CFI 2b6b4 $r14: .cfa -24 + ^ .cfa: $rsp 24 +
STACK CFI 2b6b6 $r13: .cfa -32 + ^ .cfa: $rsp 32 +
STACK CFI 2b6b8 $r12: .cfa -40 + ^ .cfa: $rsp 40 +
STACK CFI 2b6bc $rbp: .cfa -48 + ^ .cfa: $rsp 48 +
STACK CFI 2b6bd $rbx: .cfa -56 + ^ .cfa: $rsp 56 +
STACK CFI 2b6c7 .cfa: $rsp 240 +
STACK CFI 2c659 .cfa: $rsp 56 +
STACK CFI 2c65a .cfa: $rsp 48 +
STACK CFI 2c65b .cfa: $rsp 40 +
STACK CFI 2c65d .cfa: $rsp 32 +
STACK CFI 2c65f .cfa: $rsp 24 +
STACK CFI 2c661 .cfa: $rsp 16 +
STACK CFI 2c663 .cfa: $rsp 8 +
STACK CFI 2c664 .cfa: $rsp 240 +
STACK CFI INIT 22fd0 21 .cfa: $rsp 8 + .ra: .cfa -8 + ^
STACK CFI 22fd1 $rbp: .cfa -16 + ^ .cfa: $rsp 16 +
STACK CFI 22fd4 $rbx: .cfa -24 + ^ .cfa: $rsp 24 +
STACK CFI 22fdb .cfa: $rsp 32 +
STACK CFI 22fe4 .cfa: $rsp 24 +
STACK CFI 22feb .cfa: $rsp 16 +
STACK CFI 22fec .cfa: $rsp 8 +
STACK CFI INIT 23000 14c .cfa: $rsp 8 + .ra: .cfa -8 + ^
STACK CFI 23002 $r13: .cfa -16 + ^ .cfa: $rsp 16 +
STACK CFI 23007 $r12: .cfa -24 + ^ .cfa: $rsp 24 +
STACK CFI 23008 $rbp: .cfa -32 + ^ .cfa: $rsp 32 +
STACK CFI 23009 $rbx: .cfa -40 + ^ .cfa: $rsp 40 +
STACK CFI 23010 .cfa: $rsp 112 +
STACK CFI 230f5 .cfa: $rsp 40 +
STACK CFI 230f9 .cfa: $rsp 32 +
STACK CFI 230fa .cfa: $rsp 24 +
STACK CFI 230fc .cfa: $rsp 16 +
STACK CFI 230fe .cfa: $rsp 8 +
STACK CFI 230ff .cfa: $rsp 112 +
STACK CFI INIT 23150 27 .cfa: $rsp 8 + .ra: .cfa -8 + ^
STACK CFI INIT 23180 32 .cfa: $rsp 8 + .ra: .cfa -8 + ^
STACK CFI 23182 $r12: .cfa -16 + ^ .cfa: $rsp 16 +
STACK CFI 23186 $rbp: .cfa -24 + ^ .cfa: $rsp 24 +
STACK CFI 2318a $rbx: .cfa -32 + ^ .cfa: $rsp 32 +
STACK CFI 23197 .cfa: $rsp 24 +
STACK CFI 23198 .cfa: $rsp 16 +
STACK CFI 2319a .cfa: $rsp 8 +
STACK CFI 231a0 .cfa: $rsp 32 +
STACK CFI 231aa .cfa: $rsp 24 +
STACK CFI 231ab .cfa: $rsp 16 +
STACK CFI 231ad .cfa: $rsp 8 +
STACK CFI INIT 231c0 c3 .cfa: $rsp 8 + .ra: .cfa -8 + ^
STACK CFI 231c2 $r15: .cfa -16 + ^ .cfa: $rsp 16 +
STACK CFI 231c4 $r14: .cfa -24 + ^ .cfa: $rsp 24 +
STACK CFI 231c9 $r13: .cfa -32 + ^ .cfa: $rsp 32 +
STACK CFI 231ce $r12: .cfa -40 + ^ .cfa: $rsp 40 +
STACK CFI 231cf $rbp: .cfa -48 + ^ .cfa: $rsp 48 +
STACK CFI 231d0 $rbx: .cfa -56 + ^ .cfa: $rsp 56 +
STACK CFI 231d6 .cfa: $rsp 96 +
STACK CFI 2324f .cfa: $rsp 56 +
STACK CFI 23253 .cfa: $rsp 48 +
STACK CFI 23254 .cfa: $rsp 40 +
STACK CFI 23256 .cfa: $rsp 32 +
STACK CFI 23258 .cfa: $rsp 24 +
STACK CFI 2325a .cfa: $rsp 16 +
STACK CFI 2325c .cfa: $rsp 8 +
STACK CFI 2325d .cfa: $rsp 96 +
STACK CFI INIT 23290 14b .cfa: $rsp 8 + .ra: .cfa -8 + ^
STACK CFI 23292 $r13: .cfa -16 + ^ .cfa: $rsp 16 +
STACK CFI 23294 $r12: .cfa -24 + ^ .cfa: $rsp 24 +
STACK CFI 23298 $rbp: .cfa -32 + ^ .cfa: $rsp 32 +
STACK CFI 2329c $rbx: .cfa -40 + ^ .cfa: $rsp 40 +
STACK CFI 232a5 .cfa: $rsp 112 +
STACK CFI 232bd .cfa: $rsp 40 +
STACK CFI 232c0 .cfa: $rsp 32 +
STACK CFI 232c1 .cfa: $rsp 24 +
STACK CFI 232c3 .cfa: $rsp 16 +
STACK CFI 232c5 .cfa: $rsp 8 +
STACK CFI 232d0 .cfa: $rsp 112 +
STACK CFI 2338d .cfa: $rsp 40 +
STACK CFI 23390 .cfa: $rsp 32 +
STACK CFI 23391 .cfa: $rsp 24 +
STACK CFI 23393 .cfa: $rsp 16 +
STACK CFI 23395 .cfa: $rsp 8 +
STACK CFI 23396 .cfa: $rsp 112 +
STACK CFI INIT 233e0 14b .cfa: $rsp 8 + .ra: .cfa -8 + ^
STACK CFI 233e2 $r13: .cfa -16 + ^ .cfa: $rsp 16 +
STACK CFI 233e4 $r12: .cfa -24 + ^ .cfa: $rsp 24 +
STACK CFI 233e8 $rbp: .cfa -32 + ^ .cfa: $rsp 32 +
STACK CFI 233ec $rbx: .cfa -40 + ^ .cfa: $rsp 40 +
STACK CFI 233f5 .cfa: $rsp 112 +
STACK CFI 2340d .cfa: $rsp 40 +
STACK CFI 23410 .cfa: $rsp 32 +
STACK CFI 23411 .cfa: $rsp 24 +
STACK CFI 23413 .cfa: $rsp 16 +
STACK CFI 23415 .cfa: $rsp 8 +
STACK CFI 23420 .cfa: $rsp 112 +
STACK CFI 234dd .cfa: $rsp 40 +
STACK CFI 234e0 .cfa: $rsp 32 +
STACK CFI 234e1 .cfa: $rsp 24 +
STACK CFI 234e3 .cfa: $rsp 16 +
STACK CFI 234e5 .cfa: $rsp 8 +
STACK CFI 234e6 .cfa: $rsp 112 +
STACK CFI INIT 23530 84 .cfa: $rsp 8 + .ra: .cfa -8 + ^
STACK CFI 23532 $r12: .cfa -16 + ^ .cfa: $rsp 16 +
STACK CFI 23548 $rbp: .cfa -24 + ^ .cfa: $rsp 24 +
STACK CFI 23549 $rbx: .cfa -32 + ^ .cfa: $rsp 32 +
STACK CFI 2354d .cfa: $rsp 64 +
STACK CFI 2358c .cfa: $rsp 32 +
STACK CFI 2358d .cfa: $rsp 24 +
STACK CFI 2358e .cfa: $rsp 16 +
STACK CFI 23590 .cfa: $rsp 8 +
STACK CFI 23591 .cfa: $rsp 64 +
STACK CFI INIT 235c0 84 .cfa: $rsp 8 + .ra: .cfa -8 + ^
STACK CFI 235c2 $r12: .cfa -16 + ^ .cfa: $rsp 16 +
STACK CFI 235d8 $rbp: .cfa -24 + ^ .cfa: $rsp 24 +
STACK CFI 235d9 $rbx: .cfa -32 + ^ .cfa: $rsp 32 +
STACK CFI 235dd .cfa: $rsp 64 +
STACK CFI 2361c .cfa: $rsp 32 +
STACK CFI 2361d .cfa: $rsp 24 +
STACK CFI 2361e .cfa: $rsp 16 +
STACK CFI 23620 .cfa: $rsp 8 +
STACK CFI 23621 .cfa: $rsp 64 +
STACK CFI INIT 23650 84 .cfa: $rsp 8 + .ra: .cfa -8 + ^
STACK CFI 23652 $r12: .cfa -16 + ^ .cfa: $rsp 16 +
STACK CFI 23668 $rbp: .cfa -24 + ^ .cfa: $rsp 24 +
STACK CFI 23669 $rbx: .cfa -32 + ^ .cfa: $rsp 32 +
STACK CFI 2366d .cfa: $rsp 64 +
STACK CFI 236ac .cfa: $rsp 32 +
STACK CFI 236ad .cfa: $rsp 24 +
STACK CFI 236ae .cfa: $rsp 16 +
STACK CFI 236b0 .cfa: $rsp 8 +
STACK CFI 236b1 .cfa: $rsp 64 +
STACK CFI INIT 236e0 10 .cfa: $rsp 8 + .ra: .cfa -8 + ^
STACK CFI INIT 236f0 6f .cfa: $rsp 8 + .ra: .cfa -8 + ^
STACK CFI 236f1 $rbp: .cfa -16 + ^ .cfa: $rsp 16 +
STACK CFI 236f5 $rbx: .cfa -24 + ^ .cfa: $rsp 24 +
STACK CFI 236f9 .cfa: $rsp 32 +
STACK CFI 2375c .cfa: $rsp 24 +
STACK CFI 2375d .cfa: $rsp 16 +
STACK CFI 2375e .cfa: $rsp 8 +
STACK CFI INIT 23760 c9 .cfa: $rsp 8 + .ra: .cfa -8 + ^
STACK CFI 23762 $r14: .cfa -16 + ^ .cfa: $rsp 16 +
STACK CFI 23764 $r13: .cfa -24 + ^ .cfa: $rsp 24 +
STACK CFI 23769 $r12: .cfa -32 + ^ .cfa: $rsp 32 +
STACK CFI 2376a $rbp: .cfa -40 + ^ .cfa: $rsp 40 +
STACK CFI 2376d $rbx: .cfa -48 + ^ .cfa: $rsp 48 +
STACK CFI 23771 .cfa: $rsp 64 +
STACK CFI 2380b .cfa: $rsp 48 +
STACK CFI 2380c .cfa: $rsp 40 +
STACK CFI 2380d .cfa: $rsp 32 +
STACK CFI 2380f .cfa: $rsp 24 +
STACK CFI 23811 .cfa: $rsp 16 +
STACK CFI 23813 .cfa: $rsp 8 +
STACK CFI 23814 .cfa: $rsp 64 +
STACK CFI INIT 23830 ca .cfa: $rsp 8 + .ra: .cfa -8 + ^
STACK CFI 23832 $r14: .cfa -16 + ^ .cfa: $rsp 16 +
STACK CFI 23834 $r13: .cfa -24 + ^ .cfa: $rsp 24 +
STACK CFI 23839 $r12: .cfa -32 + ^ .cfa: $rsp 32 +
STACK CFI 2383a $rbp: .cfa -40 + ^ .cfa: $rsp 40 +
STACK CFI 2383b $rbx: .cfa -48 + ^ .cfa: $rsp 48 +
STACK CFI 23841 .cfa: $rsp 64 +
STACK CFI 238dc .cfa: $rsp 48 +
STACK CFI 238dd .cfa: $rsp 40 +
STACK CFI 238de .cfa: $rsp 32 +
STACK CFI 238e0 .cfa: $rsp 24 +
STACK CFI 238e2 .cfa: $rsp 16 +
STACK CFI 238e4 .cfa: $rsp 8 +
STACK CFI 238e5 .cfa: $rsp 64 +
STACK CFI INIT 23900 fc .cfa: $rsp 8 + .ra: .cfa -8 + ^
STACK CFI 23902 $r14: .cfa -16 + ^ .cfa: $rsp 16 +
STACK CFI 23907 $r13: .cfa -24 + ^ .cfa: $rsp 24 +
STACK CFI 23909 $r12: .cfa -32 + ^ .cfa: $rsp 32 +
STACK CFI 2390d $rbp: .cfa -40 + ^ .cfa: $rsp 40 +
STACK CFI 2390e $rbx: .cfa -48 + ^ .cfa: $rsp 48 +
STACK CFI 23912 .cfa: $rsp 64 +
STACK CFI 239dc .cfa: $rsp 48 +
STACK CFI 239dd .cfa: $rsp 40 +
STACK CFI 239de .cfa: $rsp 32 +
STACK CFI 239e0 .cfa: $rsp 24 +
STACK CFI 239e2 .cfa: $rsp 16 +
STACK CFI 239e4 .cfa: $rsp 8 +
STACK CFI 239e5 .cfa: $rsp 64 +
STACK CFI INIT 23a00 138 .cfa: $rsp 8 + .ra: .cfa -8 + ^
STACK CFI 23a02 $r13: .cfa -16 + ^ .cfa: $rsp 16 +
STACK CFI 23a0b $r12: .cfa -24 + ^ .cfa: $rsp 24 +
STACK CFI 23a0c $rbp: .cfa -32 + ^ .cfa: $rsp 32 +
STACK CFI 23a0d $rbx: .cfa -40 + ^ .cfa: $rsp 40 +
STACK CFI 23a11 .cfa: $rsp 112 +
STACK CFI 23abc .cfa: $rsp 40 +
STACK CFI 23abd .cfa: $rsp 32 +
STACK CFI 23abe .cfa: $rsp 24 +
STACK CFI 23ac0 .cfa: $rsp 16 +
STACK CFI 23ac2 .cfa: $rsp 8 +
STACK CFI 23ac3 .cfa: $rsp 112 +
STACK CFI INIT 2c970 32 .cfa: $rsp 8 + .ra: .cfa -8 + ^
STACK CFI INIT 2c9b0 1c2 .cfa: $rsp 8 + .ra: .cfa -8 + ^
STACK CFI 2c9b2 $r12: .cfa -16 + ^ .cfa: $rsp 16 +
STACK CFI 2c9b3 $rbp: .cfa -24 + ^ .cfa: $rsp 24 +
STACK CFI 2c9b7 $rbx: .cfa -32 + ^ .cfa: $rsp 32 +
STACK CFI 2c9be .cfa: $rsp 48 +
STACK CFI 2cadf .cfa: $rsp 32 +
STACK CFI 2cae0 .cfa: $rsp 24 +
STACK CFI 2cae1 .cfa: $rsp 16 +
STACK CFI 2cae3 .cfa: $rsp 8 +
STACK CFI 2cae8 .cfa: $rsp 48 +
STACK CFI 2cb13 .cfa: $rsp 32 +
STACK CFI 2cb14 .cfa: $rsp 24 +
STACK CFI 2cb15 .cfa: $rsp 16 +
STACK CFI 2cb17 .cfa: $rsp 8 +
STACK CFI 2cb20 .cfa: $rsp 48 +
STACK CFI INIT 2cb80 37 .cfa: $rsp 8 + .ra: .cfa -8 + ^
STACK CFI INIT 2cbc0 37 .cfa: $rsp 8 + .ra: .cfa -8 + ^
STACK CFI INIT 2cc00 120 .cfa: $rsp 8 + .ra: .cfa -8 + ^
STACK CFI 2cc01 $rbp: .cfa -16 + ^ .cfa: $rsp 16 +
STACK CFI 2cc05 $rbx: .cfa -24 + ^ .cfa: $rsp 24 +
STACK CFI 2cc0c .cfa: $rsp 32 +
STACK CFI 2cc2c .cfa: $rsp 24 +
STACK CFI 2cc2d .cfa: $rsp 16 +
STACK CFI 2cc2e .cfa: $rsp 8 +
STACK CFI 2cc30 .cfa: $rsp 32 +
STACK CFI 2ccce .cfa: $rsp 24 +
STACK CFI 2cccf .cfa: $rsp 16 +
STACK CFI 2ccd0 .cfa: $rsp 8 +
STACK CFI 2ccd8 .cfa: $rsp 32 +
STACK CFI INIT 2cd20 32 .cfa: $rsp 8 + .ra: .cfa -8 + ^
STACK CFI INIT 2cd60 188 .cfa: $rsp 8 + .ra: .cfa -8 + ^
STACK CFI 2cd61 $rbp: .cfa -16 + ^ .cfa: $rsp 16 +
STACK CFI 2cd62 $rbx: .cfa -24 + ^ .cfa: $rsp 24 +
STACK CFI 2cd69 .cfa: $rsp 48 +
STACK CFI 2cdb3 .cfa: $rsp 24 +
STACK CFI 2cdb4 .cfa: $rsp 16 +
STACK CFI 2cdb5 .cfa: $rsp 8 +
STACK CFI 2cdc0 .cfa: $rsp 48 +
STACK CFI INIT 2cef0 c .cfa: $rsp 8 + .ra: .cfa -8 + ^
STACK CFI INIT 2cf00 32 .cfa: $rsp 8 + .ra: .cfa -8 + ^
STACK CFI INIT 2cf40 32 .cfa: $rsp 8 + .ra: .cfa -8 + ^
STACK CFI INIT 23b40 203 .cfa: $rsp 8 + .ra: .cfa -8 + ^
STACK CFI 23b42 $r13: .cfa -16 + ^ .cfa: $rsp 16 +
STACK CFI 23b4a $r12: .cfa -24 + ^ .cfa: $rsp 24 +
STACK CFI 23b4b $rbp: .cfa -32 + ^ .cfa: $rsp 32 +
STACK CFI 23b4f $rbx: .cfa -40 + ^ .cfa: $rsp 40 +
STACK CFI 23b53 .cfa: $rsp 80 +
STACK CFI 23c98 .cfa: $rsp 40 +
STACK CFI 23c99 .cfa: $rsp 32 +
STACK CFI 23c9a .cfa: $rsp 24 +
STACK CFI 23c9c .cfa: $rsp 16 +
STACK CFI 23c9e .cfa: $rsp 8 +
STACK CFI 23ca0 .cfa: $rsp 80 +
STACK CFI INIT 2cf80 37 .cfa: $rsp 8 + .ra: .cfa -8 + ^
STACK CFI INIT 2cfc0 32 .cfa: $rsp 8 + .ra: .cfa -8 + ^
STACK CFI INIT 2d000 59 .cfa: $rsp 8 + .ra: .cfa -8 + ^
STACK CFI 2d001 $rbp: .cfa -16 + ^ .cfa: $rsp 16 +
STACK CFI 2d005 $rbx: .cfa -24 + ^ .cfa: $rsp 24 +
STACK CFI 2d00c .cfa: $rsp 32 +
STACK CFI 2d035 .cfa: $rsp 24 +
STACK CFI 2d036 .cfa: $rsp 16 +
STACK CFI 2d037 .cfa: $rsp 8 +
STACK CFI 2d038 .cfa: $rsp 32 +
STACK CFI INIT 2d060 59 .cfa: $rsp 8 + .ra: .cfa -8 + ^
STACK CFI 2d061 $rbp: .cfa -16 + ^ .cfa: $rsp 16 +
STACK CFI 2d065 $rbx: .cfa -24 + ^ .cfa: $rsp 24 +
STACK CFI 2d06c .cfa: $rsp 32 +
STACK CFI 2d095 .cfa: $rsp 24 +
STACK CFI 2d096 .cfa: $rsp 16 +
STACK CFI 2d097 .cfa: $rsp 8 +
STACK CFI 2d098 .cfa: $rsp 32 +
STACK CFI INIT 2d0c0 6c .cfa: $rsp 8 + .ra: .cfa -8 + ^
STACK CFI 2d0c2 $r12: .cfa -16 + ^ .cfa: $rsp 16 +
STACK CFI 2d0c3 $rbp: .cfa -24 + ^ .cfa: $rsp 24 +
STACK CFI 2d0c4 $rbx: .cfa -32 + ^ .cfa: $rsp 32 +
STACK CFI 2d102 .cfa: $rsp 24 +
STACK CFI 2d103 .cfa: $rsp 16 +
STACK CFI 2d108 .cfa: $rsp 8 +
STACK CFI 2d110 .cfa: $rsp 32 +
STACK CFI 2d123 .cfa: $rsp 24 +
STACK CFI 2d124 .cfa: $rsp 16 +
STACK CFI 2d126 .cfa: $rsp 8 +
STACK CFI 2d127 .cfa: $rsp 32 +
STACK CFI INIT 2d130 32 .cfa: $rsp 8 + .ra: .cfa -8 + ^
STACK CFI INIT 23d50 2a9 .cfa: $rsp 8 + .ra: .cfa -8 + ^
STACK CFI 23d52 $r15: .cfa -16 + ^ .cfa: $rsp 16 +
STACK CFI 23d54 $r14: .cfa -24 + ^ .cfa: $rsp 24 +
STACK CFI 23d56 $r13: .cfa -32 + ^ .cfa: $rsp 32 +
STACK CFI 23d58 $r12: .cfa -40 + ^ .cfa: $rsp 40 +
STACK CFI 23d5c $rbp: .cfa -48 + ^ .cfa: $rsp 48 +
STACK CFI 23d5d $rbx: .cfa -56 + ^ .cfa: $rsp 56 +
STACK CFI 23d64 .cfa: $rsp 160 +
STACK CFI 23d7c .cfa: $rsp 56 +
STACK CFI 23d7d .cfa: $rsp 48 +
STACK CFI 23d7e .cfa: $rsp 40 +
STACK CFI 23d80 .cfa: $rsp 32 +
STACK CFI 23d82 .cfa: $rsp 24 +
STACK CFI 23d84 .cfa: $rsp 16 +
STACK CFI 23d86 .cfa: $rsp 8 +
STACK CFI 23d90 .cfa: $rsp 160 +
STACK CFI 23f5f .cfa: $rsp 56 +
STACK CFI 23f60 .cfa: $rsp 48 +
STACK CFI 23f61 .cfa: $rsp 40 +
STACK CFI 23f63 .cfa: $rsp 32 +
STACK CFI 23f65 .cfa: $rsp 24 +
STACK CFI 23f67 .cfa: $rsp 16 +
STACK CFI 23f69 .cfa: $rsp 8 +
STACK CFI 23f70 .cfa: $rsp 160 +
STACK CFI INIT 2d170 59 .cfa: $rsp 8 + .ra: .cfa -8 + ^
STACK CFI 2d171 $rbp: .cfa -16 + ^ .cfa: $rsp 16 +
STACK CFI 2d175 $rbx: .cfa -24 + ^ .cfa: $rsp 24 +
STACK CFI 2d17c .cfa: $rsp 32 +
STACK CFI 2d1a5 .cfa: $rsp 24 +
STACK CFI 2d1a6 .cfa: $rsp 16 +
STACK CFI 2d1a7 .cfa: $rsp 8 +
STACK CFI 2d1a8 .cfa: $rsp 32 +
STACK CFI INIT 2d1d0 325 .cfa: $rsp 8 + .ra: .cfa -8 + ^
STACK CFI 2d1d2 $r15: .cfa -16 + ^ .cfa: $rsp 16 +
STACK CFI 2d1da $r14: .cfa -24 + ^ .cfa: $rsp 24 +
STACK CFI 2d1dc $r13: .cfa -32 + ^ .cfa: $rsp 32 +
STACK CFI 2d1de $r12: .cfa -40 + ^ .cfa: $rsp 40 +
STACK CFI 2d1df $rbp: .cfa -48 + ^ .cfa: $rsp 48 +
STACK CFI 2d1e3 $rbx: .cfa -56 + ^ .cfa: $rsp 56 +
STACK CFI 2d1ea .cfa: $rsp 192 +
STACK CFI 2d3d2 .cfa: $rsp 56 +
STACK CFI 2d3d3 .cfa: $rsp 48 +
STACK CFI 2d3d4 .cfa: $rsp 40 +
STACK CFI 2d3d6 .cfa: $rsp 32 +
STACK CFI 2d3d8 .cfa: $rsp 24 +
STACK CFI 2d3da .cfa: $rsp 16 +
STACK CFI 2d3dc .cfa: $rsp 8 +
STACK CFI 2d3dd .cfa: $rsp 192 +
STACK CFI INIT 2d500 22f .cfa: $rsp 8 + .ra: .cfa -8 + ^
STACK CFI 2d507 $r15: .cfa -16 + ^ .cfa: $rsp 16 +
STACK CFI 2d509 $r14: .cfa -24 + ^ .cfa: $rsp 24 +
STACK CFI 2d50b $r13: .cfa -32 + ^ .cfa: $rsp 32 +
STACK CFI 2d50d $r12: .cfa -40 + ^ .cfa: $rsp 40 +
STACK CFI 2d511 $rbp: .cfa -48 + ^ .cfa: $rsp 48 +
STACK CFI 2d512 $rbx: .cfa -56 + ^ .cfa: $rsp 56 +
STACK CFI 2d516 .cfa: $rsp 96 +
STACK CFI 2d55b .cfa: $rsp 56 +
STACK CFI 2d55c $rbx: $rbx .cfa: $rsp 48 +
STACK CFI 2d55d $rbp: $rbp .cfa: $rsp 40 +
STACK CFI 2d55f $r12: $r12 .cfa: $rsp 32 +
STACK CFI 2d561 $r13: $r13 .cfa: $rsp 24 +
STACK CFI 2d563 $r14: $r14 .cfa: $rsp 16 +
STACK CFI 2d565 $r15: $r15 .cfa: $rsp 8 +
STACK CFI 2d570 $r12: .cfa -40 + ^ $r13: .cfa -32 + ^ $r14: .cfa -24 + ^ $r15: .cfa -16 + ^ $rbp: .cfa -48 + ^ $rbx: .cfa -56 + ^ .cfa: $rsp 96 +
STACK CFI INIT 2d730 94 .cfa: $rsp 8 + .ra: .cfa -8 + ^
STACK CFI 2d732 $r12: .cfa -16 + ^ .cfa: $rsp 16 +
STACK CFI 2d733 $rbp: .cfa -24 + ^ .cfa: $rsp 24 +
STACK CFI 2d734 $rbx: .cfa -32 + ^ .cfa: $rsp 32 +
STACK CFI 2d7a1 .cfa: $rsp 24 +
STACK CFI 2d7a2 .cfa: $rsp 16 +
STACK CFI 2d7a4 .cfa: $rsp 8 +
STACK CFI 2d7a8 .cfa: $rsp 32 +
STACK CFI 2d7a9 .cfa: $rsp 24 +
STACK CFI 2d7aa .cfa: $rsp 16 +
STACK CFI 2d7ac .cfa: $rsp 8 +
STACK CFI 2d7b8 .cfa: $rsp 32 +
STACK CFI 2d7b9 .cfa: $rsp 24 +
STACK CFI 2d7bd .cfa: $rsp 16 +
STACK CFI 2d7bf .cfa: $rsp 8 +
STACK CFI INIT 2d7d0 64 .cfa: $rsp 8 + .ra: .cfa -8 + ^
STACK CFI 2d7d1 $rbp: .cfa -16 + ^ .cfa: $rsp 16 +
STACK CFI 2d7d2 $rbx: .cfa -24 + ^ .cfa: $rsp 24 +
STACK CFI 2d7d6 .cfa: $rsp 32 +
STACK CFI 2d809 .cfa: $rsp 24 +
STACK CFI 2d80d .cfa: $rsp 16 +
STACK CFI 2d80e .cfa: $rsp 8 +
STACK CFI 2d818 .cfa: $rsp 32 +
STACK CFI 2d82c .cfa: $rsp 24 +
STACK CFI 2d82d .cfa: $rsp 16 +
STACK CFI 2d82e .cfa: $rsp 8 +
STACK CFI 2d82f .cfa: $rsp 32 +
STACK CFI INIT 2d840 d6 .cfa: $rsp 8 + .ra: .cfa -8 + ^
STACK CFI 2d842 $r12: .cfa -16 + ^ .cfa: $rsp 16 +
STACK CFI 2d855 $rbp: .cfa -24 + ^ .cfa: $rsp 24 +
STACK CFI 2d85c $rbx: .cfa -32 + ^ .cfa: $rsp 32 +
STACK CFI 2d8df .cfa: $rsp 24 +
STACK CFI 2d8e0 .cfa: $rsp 16 +
STACK CFI 2d8e2 .cfa: $rsp 8 +
STACK CFI 2d8e8 .cfa: $rsp 32 +
STACK CFI 2d8f4 .cfa: $rsp 24 +
STACK CFI 2d8f5 .cfa: $rsp 16 +
STACK CFI 2d8f7 .cfa: $rsp 8 +
STACK CFI 2d900 .cfa: $rsp 32 +
STACK CFI INIT 2d920 76 .cfa: $rsp 8 + .ra: .cfa -8 + ^
STACK CFI 2d922 $r12: .cfa -16 + ^ .cfa: $rsp 16 +
STACK CFI 2d923 $rbp: .cfa -24 + ^ .cfa: $rsp 24 +
STACK CFI 2d927 $rbx: .cfa -32 + ^ .cfa: $rsp 32 +
STACK CFI 2d947 .cfa: $rsp 24 +
STACK CFI 2d948 .cfa: $rsp 16 +
STACK CFI 2d94a .cfa: $rsp 8 +
STACK CFI 2d950 .cfa: $rsp 32 +
STACK CFI 2d98e .cfa: $rsp 24 +
STACK CFI 2d98f .cfa: $rsp 16 +
STACK CFI 2d991 .cfa: $rsp 8 +
STACK CFI INIT 2d9a0 f4 .cfa: $rsp 8 + .ra: .cfa -8 + ^
STACK CFI 2d9a2 $r13: .cfa -16 + ^ .cfa: $rsp 16 +
STACK CFI 2d9a4 $r12: .cfa -24 + ^ .cfa: $rsp 24 +
STACK CFI 2d9a5 $rbp: .cfa -32 + ^ .cfa: $rsp 32 +
STACK CFI 2d9a9 $rbx: .cfa -40 + ^ .cfa: $rsp 40 +
STACK CFI 2d9b0 .cfa: $rsp 64 +
STACK CFI 2da6e .cfa: $rsp 40 +
STACK CFI 2da6f .cfa: $rsp 32 +
STACK CFI 2da70 .cfa: $rsp 24 +
STACK CFI 2da72 .cfa: $rsp 16 +
STACK CFI 2da78 .cfa: $rsp 8 +
STACK CFI 2da80 .cfa: $rsp 64 +
STACK CFI INIT 2daa0 64 .cfa: $rsp 8 + .ra: .cfa -8 + ^
STACK CFI 2daa1 $rbx: .cfa -16 + ^ .cfa: $rsp 16 +
STACK CFI 2daa8 .cfa: $rsp 32 +
STACK CFI 2dac7 .cfa: $rsp 16 +
STACK CFI 2dac8 .cfa: $rsp 8 +
STACK CFI 2dad0 .cfa: $rsp 32 +
STACK CFI 2dae5 .cfa: $rsp 16 +
STACK CFI 2dae6 .cfa: $rsp 8 +
STACK CFI 2dae7 .cfa: $rsp 32 +
STACK CFI INIT 24000 51d .cfa: $rsp 8 + .ra: .cfa -8 + ^
STACK CFI 24002 $r15: .cfa -16 + ^ .cfa: $rsp 16 +
STACK CFI 24006 $r14: .cfa -24 + ^ .cfa: $rsp 24 +
STACK CFI 24008 $r13: .cfa -32 + ^ .cfa: $rsp 32 +
STACK CFI 2400a $r12: .cfa -40 + ^ .cfa: $rsp 40 +
STACK CFI 2400b $rbp: .cfa -48 + ^ .cfa: $rsp 48 +
STACK CFI 2400c $rbx: .cfa -56 + ^ .cfa: $rsp 56 +
STACK CFI 24016 .cfa: $rsp 288 +
STACK CFI 244d0 .cfa: $rsp 56 +
STACK CFI 244d1 .cfa: $rsp 48 +
STACK CFI 244d2 .cfa: $rsp 40 +
STACK CFI 244d4 .cfa: $rsp 32 +
STACK CFI 244d6 .cfa: $rsp 24 +
STACK CFI 244d8 .cfa: $rsp 16 +
STACK CFI 244da .cfa: $rsp 8 +
STACK CFI 244db .cfa: $rsp 288 +
STACK CFI INIT 2db10 31b .cfa: $rsp 8 + .ra: .cfa -8 + ^
STACK CFI 2db12 $r15: .cfa -16 + ^ .cfa: $rsp 16 +
STACK CFI 2db14 $r14: .cfa -24 + ^ .cfa: $rsp 24 +
STACK CFI 2db16 $r13: .cfa -32 + ^ .cfa: $rsp 32 +
STACK CFI 2db18 $r12: .cfa -40 + ^ .cfa: $rsp 40 +
STACK CFI 2db1c $rbp: .cfa -48 + ^ .cfa: $rsp 48 +
STACK CFI 2db20 $rbx: .cfa -56 + ^ .cfa: $rsp 56 +
STACK CFI 2db24 .cfa: $rsp 80 +
STACK CFI 2dc44 .cfa: $rsp 56 +
STACK CFI 2dc45 .cfa: $rsp 48 +
STACK CFI 2dc46 .cfa: $rsp 40 +
STACK CFI 2dc48 .cfa: $rsp 32 +
STACK CFI 2dc4a .cfa: $rsp 24 +
STACK CFI 2dc4c .cfa: $rsp 16 +
STACK CFI 2dc4e .cfa: $rsp 8 +
STACK CFI 2dc50 .cfa: $rsp 80 +
STACK CFI 2dc7d .cfa: $rsp 56 +
STACK CFI 2dc7e .cfa: $rsp 48 +
STACK CFI 2dc7f .cfa: $rsp 40 +
STACK CFI 2dc81 .cfa: $rsp 32 +
STACK CFI 2dc83 .cfa: $rsp 24 +
STACK CFI 2dc85 .cfa: $rsp 16 +
STACK CFI 2dc87 .cfa: $rsp 8 +
STACK CFI 2dc88 .cfa: $rsp 80 +
STACK CFI INIT 2de30 115 .cfa: $rsp 8 + .ra: .cfa -8 + ^
STACK CFI 2de31 $rbx: .cfa -16 + ^ .cfa: $rsp 16 +
STACK CFI 2de38 .cfa: $rsp 32 +
STACK CFI 2ded9 .cfa: $rsp 16 +
STACK CFI 2deda .cfa: $rsp 8 +
STACK CFI 2dee0 .cfa: $rsp 32 +
STACK CFI 2df30 .cfa: $rsp 16 +
STACK CFI 2df31 .cfa: $rsp 8 +
STACK CFI 2df32 .cfa: $rsp 32 +
STACK CFI INIT 24520 5d9 .cfa: $rsp 8 + .ra: .cfa -8 + ^
STACK CFI 24522 $r15: .cfa -16 + ^ .cfa: $rsp 16 +
STACK CFI 24524 $r14: .cfa -24 + ^ .cfa: $rsp 24 +
STACK CFI 24529 $r13: .cfa -32 + ^ .cfa: $rsp 32 +
STACK CFI 2452b $r12: .cfa -40 + ^ .cfa: $rsp 40 +
STACK CFI 2452c $rbp: .cfa -48 + ^ .cfa: $rsp 48 +
STACK CFI 2452d $rbx: .cfa -56 + ^ .cfa: $rsp 56 +
STACK CFI 24537 .cfa: $rsp 416 +
STACK CFI 24990 .cfa: $rsp 56 +
STACK CFI 24991 .cfa: $rsp 48 +
STACK CFI 24992 .cfa: $rsp 40 +
STACK CFI 24994 .cfa: $rsp 32 +
STACK CFI 24996 .cfa: $rsp 24 +
STACK CFI 24998 .cfa: $rsp 16 +
STACK CFI 2499a .cfa: $rsp 8 +
STACK CFI 2499b .cfa: $rsp 416 +
STACK CFI INIT 2df50 1bb .cfa: $rsp 8 + .ra: .cfa -8 + ^
STACK CFI 2df52 $r13: .cfa -16 + ^ .cfa: $rsp 16 +
STACK CFI 2df54 $r12: .cfa -24 + ^ .cfa: $rsp 24 +
STACK CFI 2df58 $rbp: .cfa -32 + ^ .cfa: $rsp 32 +
STACK CFI 2df5c $rbx: .cfa -40 + ^ .cfa: $rsp 40 +
STACK CFI 2df60 .cfa: $rsp 48 +
STACK CFI 2dffd .cfa: $rsp 40 +
STACK CFI 2dffe .cfa: $rsp 32 +
STACK CFI 2dfff .cfa: $rsp 24 +
STACK CFI 2e001 .cfa: $rsp 16 +
STACK CFI 2e003 .cfa: $rsp 8 +
STACK CFI 2e008 .cfa: $rsp 48 +
STACK CFI 2e035 .cfa: $rsp 40 +
STACK CFI 2e036 .cfa: $rsp 32 +
STACK CFI 2e037 .cfa: $rsp 24 +
STACK CFI 2e039 .cfa: $rsp 16 +
STACK CFI 2e03b .cfa: $rsp 8 +
STACK CFI 2e03c .cfa: $rsp 48 +
STACK CFI INIT 2e110 94 .cfa: $rsp 8 + .ra: .cfa -8 + ^
STACK CFI 2e111 $rbp: .cfa -16 + ^ .cfa: $rsp 16 +
STACK CFI 2e112 $rbx: .cfa -24 + ^ .cfa: $rsp 24 +
STACK CFI 2e119 .cfa: $rsp 32 +
STACK CFI 2e168 .cfa: $rsp 24 +
STACK CFI 2e169 .cfa: $rsp 16 +
STACK CFI 2e16a .cfa: $rsp 8 +
STACK CFI 2e170 .cfa: $rsp 32 +
STACK CFI 2e1a1 .cfa: $rsp 24 +
STACK CFI 2e1a2 .cfa: $rsp 16 +
STACK CFI 2e1a3 .cfa: $rsp 8 +
STACK CFI INIT 2e1b0 43 .cfa: $rsp 8 + .ra: .cfa -8 + ^
STACK CFI 2e1b1 $rbx: .cfa -16 + ^ .cfa: $rsp 16 +
STACK CFI 2e1d2 .cfa: $rsp 8 +
STACK CFI 2e1d8 .cfa: $rsp 16 +
STACK CFI 2e1f2 .cfa: $rsp 8 +
STACK CFI INIT 2e200 2a .cfa: $rsp 8 + .ra: .cfa -8 + ^
STACK CFI 2e201 $rbx: .cfa -16 + ^ .cfa: $rsp 16 +
STACK CFI 2e229 .cfa: $rsp 8 +
STACK CFI INIT 2e230 52 .cfa: $rsp 8 + .ra: .cfa -8 + ^
STACK CFI 2e231 $rbx: .cfa -16 + ^ .cfa: $rsp 16 +
STACK CFI 2e25d .cfa: $rsp 8 +
STACK CFI 2e268 .cfa: $rsp 16 +
STACK CFI 2e279 .cfa: $rsp 8 +
STACK CFI 2e27a .cfa: $rsp 16 +
STACK CFI INIT 24b00 184 .cfa: $rsp 8 + .ra: .cfa -8 + ^
STACK CFI 24b02 $r13: .cfa -16 + ^ .cfa: $rsp 16 +
STACK CFI 24b04 $r12: .cfa -24 + ^ .cfa: $rsp 24 +
STACK CFI 24b05 $rbp: .cfa -32 + ^ .cfa: $rsp 32 +
STACK CFI 24b06 $rbx: .cfa -40 + ^ .cfa: $rsp 40 +
STACK CFI 24b0d .cfa: $rsp 48 +
STACK CFI 24b6f .cfa: $rsp 40 +
STACK CFI 24b72 .cfa: $rsp 32 +
STACK CFI 24b73 .cfa: $rsp 24 +
STACK CFI 24b75 .cfa: $rsp 16 +
STACK CFI 24b77 .cfa: $rsp 8 +
STACK CFI 24b80 .cfa: $rsp 48 +
STACK CFI 24bf2 .cfa: $rsp 40 +
STACK CFI 24bf5 .cfa: $rsp 32 +
STACK CFI 24bf6 .cfa: $rsp 24 +
STACK CFI 24bf8 .cfa: $rsp 16 +
STACK CFI 24bfa .cfa: $rsp 8 +
STACK CFI 24c00 .cfa: $rsp 48 +
STACK CFI 24c0a .cfa: $rsp 40 +
STACK CFI 24c0d .cfa: $rsp 32 +
STACK CFI 24c0e .cfa: $rsp 24 +
STACK CFI 24c10 .cfa: $rsp 16 +
STACK CFI 24c12 .cfa: $rsp 8 +
STACK CFI 24c18 .cfa: $rsp 48 +
STACK CFI 24c45 .cfa: $rsp 40 +
STACK CFI 24c46 .cfa: $rsp 32 +
STACK CFI 24c47 .cfa: $rsp 24 +
STACK CFI 24c49 .cfa: $rsp 16 +
STACK CFI 24c4d .cfa: $rsp 8 +
STACK CFI 24c50 .cfa: $rsp 48 +
STACK CFI INIT 2e290 96 .cfa: $rsp 8 + .ra: .cfa -8 + ^
STACK CFI 2e292 $r12: .cfa -16 + ^ .cfa: $rsp 16 +
STACK CFI 2e296 $rbp: .cfa -24 + ^ .cfa: $rsp 24 +
STACK CFI 2e297 $rbx: .cfa -32 + ^ .cfa: $rsp 32 +
STACK CFI 2e2fa .cfa: $rsp 24 +
STACK CFI 2e302 .cfa: $rsp 16 +
STACK CFI 2e304 .cfa: $rsp 8 +
STACK CFI 2e310 .cfa: $rsp 32 +
STACK CFI INIT 2e330 d0 .cfa: $rsp 8 + .ra: .cfa -8 + ^
STACK CFI 2e332 $r12: .cfa -16 + ^ .cfa: $rsp 16 +
STACK CFI 2e336 $rbp: .cfa -24 + ^ .cfa: $rsp 24 +
STACK CFI 2e33a $rbx: .cfa -32 + ^ .cfa: $rsp 32 +
STACK CFI 2e3aa .cfa: $rsp 24 +
STACK CFI 2e3ab .cfa: $rsp 16 +
STACK CFI 2e3ad .cfa: $rsp 8 +
STACK CFI 2e3ae .cfa: $rsp 32 +
STACK CFI 2e3fc .cfa: $rsp 24 +
STACK CFI 2e3fd .cfa: $rsp 16 +
STACK CFI 2e3ff .cfa: $rsp 8 +
STACK CFI INIT 2e400 8d .cfa: $rsp 8 + .ra: .cfa -8 + ^
STACK CFI 2e402 $r12: .cfa -16 + ^ .cfa: $rsp 16 +
STACK CFI 2e403 $rbp: .cfa -24 + ^ .cfa: $rsp 24 +
STACK CFI 2e404 $rbx: .cfa -32 + ^ .cfa: $rsp 32 +
STACK CFI 2e489 .cfa: $rsp 24 +
STACK CFI 2e48a .cfa: $rsp 16 +
STACK CFI 2e48c .cfa: $rsp 8 +
STACK CFI INIT 2e490 52 .cfa: $rsp 8 + .ra: .cfa -8 + ^
STACK CFI 2e491 $rbx: .cfa -16 + ^ .cfa: $rsp 16 +
STACK CFI 2e4bd .cfa: $rsp 8 +
STACK CFI 2e4c8 .cfa: $rsp 16 +
STACK CFI 2e4d9 .cfa: $rsp 8 +
STACK CFI 2e4da .cfa: $rsp 16 +
STACK CFI INIT 24c90 e0 .cfa: $rsp 8 + .ra: .cfa -8 + ^
STACK CFI 24c92 $r15: .cfa -16 + ^ .cfa: $rsp 16 +
STACK CFI 24c97 $r14: .cfa -24 + ^ .cfa: $rsp 24 +
STACK CFI 24c99 $r13: .cfa -32 + ^ .cfa: $rsp 32 +
STACK CFI 24c9b $r12: .cfa -40 + ^ .cfa: $rsp 40 +
STACK CFI 24c9f $rbp: .cfa -48 + ^ .cfa: $rsp 48 +
STACK CFI 24ca0 $rbx: .cfa -56 + ^ .cfa: $rsp 56 +
STACK CFI 24ca4 .cfa: $rsp 64 +
STACK CFI 24d54 .cfa: $rsp 56 +
STACK CFI 24d5d .cfa: $rsp 48 +
STACK CFI 24d5e .cfa: $rsp 40 +
STACK CFI 24d60 .cfa: $rsp 32 +
STACK CFI 24d62 .cfa: $rsp 24 +
STACK CFI 24d64 .cfa: $rsp 16 +
STACK CFI 24d66 .cfa: $rsp 8 +
STACK CFI INIT 2e4f0 1ed .cfa: $rsp 8 + .ra: .cfa -8 + ^
STACK CFI 2e4f2 $r14: .cfa -16 + ^ .cfa: $rsp 16 +
STACK CFI 2e4fb $r13: .cfa -24 + ^ .cfa: $rsp 24 +
STACK CFI 2e504 $r12: .cfa -32 + ^ .cfa: $rsp 32 +
STACK CFI 2e505 $rbp: .cfa -40 + ^ .cfa: $rsp 40 +
STACK CFI 2e506 $rbx: .cfa -48 + ^ .cfa: $rsp 48 +
STACK CFI 2e513 .cfa: $rsp 40 +
STACK CFI 2e514 .cfa: $rsp 32 +
STACK CFI 2e516 .cfa: $rsp 24 +
STACK CFI 2e51b .cfa: $rsp 16 +
STACK CFI 2e51d .cfa: $rsp 8 +
STACK CFI 2e528 .cfa: $rsp 48 +
STACK CFI 2e6a3 .cfa: $rsp 40 +
STACK CFI 2e6a4 .cfa: $rsp 32 +
STACK CFI 2e6a6 .cfa: $rsp 24 +
STACK CFI 2e6ab .cfa: $rsp 16 +
STACK CFI 2e6ad .cfa: $rsp 8 +
STACK CFI 2e6b8 .cfa: $rsp 48 +
STACK CFI 2e6ce .cfa: $rsp 40 +
STACK CFI 2e6cf .cfa: $rsp 32 +
STACK CFI 2e6d1 .cfa: $rsp 24 +
STACK CFI 2e6d6 .cfa: $rsp 16 +
STACK CFI 2e6d8 .cfa: $rsp 8 +
STACK CFI INIT 2e6e0 1db .cfa: $rsp 8 + .ra: .cfa -8 + ^
STACK CFI 2e6e2 $r14: .cfa -16 + ^ .cfa: $rsp 16 +
STACK CFI 2e6eb $r13: .cfa -24 + ^ .cfa: $rsp 24 +
STACK CFI 2e6f4 $r12: .cfa -32 + ^ .cfa: $rsp 32 +
STACK CFI 2e6f5 $rbp: .cfa -40 + ^ .cfa: $rsp 40 +
STACK CFI 2e6f6 $rbx: .cfa -48 + ^ .cfa: $rsp 48 +
STACK CFI 2e70b .cfa: $rsp 40 +
STACK CFI 2e70c .cfa: $rsp 32 +
STACK CFI 2e70e .cfa: $rsp 24 +
STACK CFI 2e713 .cfa: $rsp 16 +
STACK CFI 2e715 .cfa: $rsp 8 +
STACK CFI 2e720 .cfa: $rsp 48 +
STACK CFI INIT 2e8c0 218 .cfa: $rsp 8 + .ra: .cfa -8 + ^
STACK CFI 2e8c2 $r15: .cfa -16 + ^ .cfa: $rsp 16 +
STACK CFI 2e8c6 $r14: .cfa -24 + ^ .cfa: $rsp 24 +
STACK CFI 2e8c8 $r13: .cfa -32 + ^ .cfa: $rsp 32 +
STACK CFI 2e8ca $r12: .cfa -40 + ^ .cfa: $rsp 40 +
STACK CFI 2e8d3 $rbp: .cfa -48 + ^ .cfa: $rsp 48 +
STACK CFI 2e8d4 $rbx: .cfa -56 + ^ .cfa: $rsp 56 +
STACK CFI 2e8d8 .cfa: $rsp 64 +
STACK CFI 2e925 .cfa: $rsp 56 +
STACK CFI 2e926 .cfa: $rsp 48 +
STACK CFI 2e927 .cfa: $rsp 40 +
STACK CFI 2e929 .cfa: $rsp 32 +
STACK CFI 2e92b .cfa: $rsp 24 +
STACK CFI 2e92d .cfa: $rsp 16 +
STACK CFI 2e92f .cfa: $rsp 8 +
STACK CFI 2e938 .cfa: $rsp 64 +
STACK CFI INIT 2eae0 218 .cfa: $rsp 8 + .ra: .cfa -8 + ^
STACK CFI 2eae2 $r15: .cfa -16 + ^ .cfa: $rsp 16 +
STACK CFI 2eae6 $r14: .cfa -24 + ^ .cfa: $rsp 24 +
STACK CFI 2eae8 $r13: .cfa -32 + ^ .cfa: $rsp 32 +
STACK CFI 2eaea $r12: .cfa -40 + ^ .cfa: $rsp 40 +
STACK CFI 2eaf3 $rbp: .cfa -48 + ^ .cfa: $rsp 48 +
STACK CFI 2eaf4 $rbx: .cfa -56 + ^ .cfa: $rsp 56 +
STACK CFI 2eaf8 .cfa: $rsp 64 +
STACK CFI 2eb4a .cfa: $rsp 56 +
STACK CFI 2eb4e .cfa: $rsp 48 +
STACK CFI 2eb4f .cfa: $rsp 40 +
STACK CFI 2eb51 .cfa: $rsp 32 +
STACK CFI 2eb53 .cfa: $rsp 24 +
STACK CFI 2eb55 .cfa: $rsp 16 +
STACK CFI 2eb57 .cfa: $rsp 8 +
STACK CFI 2eb60 .cfa: $rsp 64 +
STACK CFI INIT 2ed00 1ac .cfa: $rsp 8 + .ra: .cfa -8 + ^
STACK CFI 2ed02 $r13: .cfa -16 + ^ .cfa: $rsp 16 +
STACK CFI 2ed04 $r12: .cfa -24 + ^ .cfa: $rsp 24 +
STACK CFI 2ed08 $rbp: .cfa -32 + ^ .cfa: $rsp 32 +
STACK CFI 2ed09 $rbx: .cfa -40 + ^ .cfa: $rsp 40 +
STACK CFI 2ed0d .cfa: $rsp 48 +
STACK CFI 2ee7e .cfa: $rsp 40 +
STACK CFI 2ee82 .cfa: $rsp 32 +
STACK CFI 2ee83 .cfa: $rsp 24 +
STACK CFI 2ee85 .cfa: $rsp 16 +
STACK CFI 2ee87 .cfa: $rsp 8 +
STACK CFI 2ee90 .cfa: $rsp 48 +
STACK CFI 2eea5 .cfa: $rsp 40 +
STACK CFI 2eea6 .cfa: $rsp 32 +
STACK CFI 2eea7 .cfa: $rsp 24 +
STACK CFI 2eea9 .cfa: $rsp 16 +
STACK CFI 2eeab .cfa: $rsp 8 +
STACK CFI INIT 2eeb0 106 .cfa: $rsp 8 + .ra: .cfa -8 + ^
STACK CFI 2eeb2 $r12: .cfa -16 + ^ .cfa: $rsp 16 +
STACK CFI 2eeb6 $rbp: .cfa -24 + ^ .cfa: $rsp 24 +
STACK CFI 2eeb7 $rbx: .cfa -32 + ^ .cfa: $rsp 32 +
STACK CFI 2ef93 .cfa: $rsp 24 +
STACK CFI 2ef97 .cfa: $rsp 16 +
STACK CFI 2ef99 .cfa: $rsp 8 +
STACK CFI 2efa0 .cfa: $rsp 32 +
STACK CFI 2efb2 .cfa: $rsp 24 +
STACK CFI 2efb3 .cfa: $rsp 16 +
STACK CFI 2efb5 .cfa: $rsp 8 +
STACK CFI INIT 2efc0 1bb .cfa: $rsp 8 + .ra: .cfa -8 + ^
STACK CFI 2efc2 $r13: .cfa -16 + ^ .cfa: $rsp 16 +
STACK CFI 2efc4 $r12: .cfa -24 + ^ .cfa: $rsp 24 +
STACK CFI 2efc8 $rbp: .cfa -32 + ^ .cfa: $rsp 32 +
STACK CFI 2efcc $rbx: .cfa -40 + ^ .cfa: $rsp 40 +
STACK CFI 2efd0 .cfa: $rsp 48 +
STACK CFI 2f06d .cfa: $rsp 40 +
STACK CFI 2f06e .cfa: $rsp 32 +
STACK CFI 2f06f .cfa: $rsp 24 +
STACK CFI 2f071 .cfa: $rsp 16 +
STACK CFI 2f073 .cfa: $rsp 8 +
STACK CFI 2f078 .cfa: $rsp 48 +
STACK CFI 2f0a5 .cfa: $rsp 40 +
STACK CFI 2f0a6 .cfa: $rsp 32 +
STACK CFI 2f0a7 .cfa: $rsp 24 +
STACK CFI 2f0a9 .cfa: $rsp 16 +
STACK CFI 2f0ab .cfa: $rsp 8 +
STACK CFI 2f0ac .cfa: $rsp 48 +
STACK CFI INIT 2f180 28a .cfa: $rsp 8 + .ra: .cfa -8 + ^
STACK CFI 2f182 $r13: .cfa -16 + ^ .cfa: $rsp 16 +
STACK CFI 2f184 $r12: .cfa -24 + ^ .cfa: $rsp 24 +
STACK CFI 2f188 $rbp: .cfa -32 + ^ .cfa: $rsp 32 +
STACK CFI 2f18c $rbx: .cfa -40 + ^ .cfa: $rsp 40 +
STACK CFI 2f190 .cfa: $rsp 80 +
STACK CFI 2f2cc .cfa: $rsp 40 +
STACK CFI 2f2d0 .cfa: $rsp 32 +
STACK CFI 2f2d1 .cfa: $rsp 24 +
STACK CFI 2f2d3 .cfa: $rsp 16 +
STACK CFI 2f2d5 .cfa: $rsp 8 +
STACK CFI 2f2e0 .cfa: $rsp 80 +
STACK CFI INIT 2f410 122 .cfa: $rsp 8 + .ra: .cfa -8 + ^
STACK CFI 2f412 $r15: .cfa -16 + ^ .cfa: $rsp 16 +
STACK CFI 2f414 $r14: .cfa -24 + ^ .cfa: $rsp 24 +
STACK CFI 2f416 $r13: .cfa -32 + ^ .cfa: $rsp 32 +
STACK CFI 2f41b $r12: .cfa -40 + ^ .cfa: $rsp 40 +
STACK CFI 2f41c $rbp: .cfa -48 + ^ .cfa: $rsp 48 +
STACK CFI 2f41d $rbx: .cfa -56 + ^ .cfa: $rsp 56 +
STACK CFI 2f421 .cfa: $rsp 64 +
STACK CFI 2f498 .cfa: $rsp 56 +
STACK CFI 2f49c .cfa: $rsp 48 +
STACK CFI 2f49d .cfa: $rsp 40 +
STACK CFI 2f49f .cfa: $rsp 32 +
STACK CFI 2f4a1 .cfa: $rsp 24 +
STACK CFI 2f4a3 .cfa: $rsp 16 +
STACK CFI 2f4a5 .cfa: $rsp 8 +
STACK CFI 2f4b0 .cfa: $rsp 64 +
STACK CFI 2f4c5 .cfa: $rsp 56 +
STACK CFI 2f4c6 .cfa: $rsp 48 +
STACK CFI 2f4c7 .cfa: $rsp 40 +
STACK CFI 2f4c9 .cfa: $rsp 32 +
STACK CFI 2f4cb .cfa: $rsp 24 +
STACK CFI 2f4cd .cfa: $rsp 16 +
STACK CFI 2f4cf .cfa: $rsp 8 +
STACK CFI 2f4d0 .cfa: $rsp 64 +
STACK CFI INIT 2f540 12 .cfa: $rsp 8 + .ra: .cfa -8 + ^
STACK CFI INIT 24d70 208 .cfa: $rsp 8 + .ra: .cfa -8 + ^
STACK CFI 24d72 $r15: .cfa -16 + ^ .cfa: $rsp 16 +
STACK CFI 24d74 $r14: .cfa -24 + ^ .cfa: $rsp 24 +
STACK CFI 24d79 $r13: .cfa -32 + ^ .cfa: $rsp 32 +
STACK CFI 24d7b $r12: .cfa -40 + ^ .cfa: $rsp 40 +
STACK CFI 24d7c $rbp: .cfa -48 + ^ .cfa: $rsp 48 +
STACK CFI 24d7d $rbx: .cfa -56 + ^ .cfa: $rsp 56 +
STACK CFI 24d81 .cfa: $rsp 176 +
STACK CFI 24f03 .cfa: $rsp 56 +
STACK CFI 24f04 .cfa: $rsp 48 +
STACK CFI 24f05 .cfa: $rsp 40 +
STACK CFI 24f07 .cfa: $rsp 32 +
STACK CFI 24f09 .cfa: $rsp 24 +
STACK CFI 24f0b .cfa: $rsp 16 +
STACK CFI 24f0d .cfa: $rsp 8 +
STACK CFI 24f0e .cfa: $rsp 176 +
STACK CFI INIT 2f560 e6 .cfa: $rsp 8 + .ra: .cfa -8 + ^
STACK CFI 2f562 $r12: .cfa -16 + ^ .cfa: $rsp 16 +
STACK CFI 2f575 $rbp: .cfa -24 + ^ .cfa: $rsp 24 +
STACK CFI 2f57c $rbx: .cfa -32 + ^ .cfa: $rsp 32 +
STACK CFI 2f61a .cfa: $rsp 24 +
STACK CFI 2f61b .cfa: $rsp 16 +
STACK CFI 2f61d .cfa: $rsp 8 +
STACK CFI 2f620 .cfa: $rsp 32 +
STACK CFI 2f62c .cfa: $rsp 24 +
STACK CFI 2f62d .cfa: $rsp 16 +
STACK CFI 2f62f .cfa: $rsp 8 +
STACK CFI 2f630 .cfa: $rsp 32 +
STACK CFI INIT 2f650 a6 .cfa: $rsp 8 + .ra: .cfa -8 + ^
STACK CFI 2f652 $r13: .cfa -16 + ^ .cfa: $rsp 16 +
STACK CFI 2f654 $r12: .cfa -24 + ^ .cfa: $rsp 24 +
STACK CFI 2f658 $rbp: .cfa -32 + ^ .cfa: $rsp 32 +
STACK CFI 2f659 $rbx: .cfa -40 + ^ .cfa: $rsp 40 +
STACK CFI 2f65d .cfa: $rsp 48 +
STACK CFI 2f6ce .cfa: $rsp 40 +
STACK CFI 2f6d2 .cfa: $rsp 32 +
STACK CFI 2f6d3 .cfa: $rsp 24 +
STACK CFI 2f6d5 .cfa: $rsp 16 +
STACK CFI 2f6d7 .cfa: $rsp 8 +
STACK CFI 2f6e0 .cfa: $rsp 48 +
STACK CFI INIT 2f700 d8 .cfa: $rsp 8 + .ra: .cfa -8 + ^
STACK CFI 2f702 $r12: .cfa -16 + ^ .cfa: $rsp 16 +
STACK CFI 2f706 $rbp: .cfa -24 + ^ .cfa: $rsp 24 +
STACK CFI 2f70a $rbx: .cfa -32 + ^ .cfa: $rsp 32 +
STACK CFI 2f7a0 .cfa: $rsp 24 +
STACK CFI 2f7a1 .cfa: $rsp 16 +
STACK CFI 2f7a3 .cfa: $rsp 8 +
STACK CFI 2f7a4 .cfa: $rsp 32 +
STACK CFI INIT 2f7e0 1c9 .cfa: $rsp 8 + .ra: .cfa -8 + ^
STACK CFI 2f7e2 $r15: .cfa -16 + ^ .cfa: $rsp 16 +
STACK CFI 2f7e4 $r14: .cfa -24 + ^ .cfa: $rsp 24 +
STACK CFI 2f7e6 $r13: .cfa -32 + ^ .cfa: $rsp 32 +
STACK CFI 2f7e8 $r12: .cfa -40 + ^ .cfa: $rsp 40 +
STACK CFI 2f7ec $rbp: .cfa -48 + ^ .cfa: $rsp 48 +
STACK CFI 2f7f0 $rbx: .cfa -56 + ^ .cfa: $rsp 56 +
STACK CFI 2f7f4 .cfa: $rsp 128 +
STACK CFI 2f96e .cfa: $rsp 56 +
STACK CFI 2f972 .cfa: $rsp 48 +
STACK CFI 2f973 .cfa: $rsp 40 +
STACK CFI 2f975 .cfa: $rsp 32 +
STACK CFI 2f977 .cfa: $rsp 24 +
STACK CFI 2f979 .cfa: $rsp 16 +
STACK CFI 2f97b .cfa: $rsp 8 +
STACK CFI 2f97c .cfa: $rsp 128 +
STACK CFI INIT 2f9b0 115 .cfa: $rsp 8 + .ra: .cfa -8 + ^
STACK CFI 2f9b2 $r14: .cfa -16 + ^ .cfa: $rsp 16 +
STACK CFI 2f9c0 $r13: .cfa -24 + ^ .cfa: $rsp 24 +
STACK CFI 2f9c2 $r12: .cfa -32 + ^ .cfa: $rsp 32 +
STACK CFI 2f9c6 $rbp: .cfa -40 + ^ .cfa: $rsp 40 +
STACK CFI 2f9cf $rbx: .cfa -48 + ^ .cfa: $rsp 48 +
STACK CFI 2fa4e .cfa: $rsp 40 +
STACK CFI 2fa4f .cfa: $rsp 32 +
STACK CFI 2fa51 .cfa: $rsp 24 +
STACK CFI 2fa53 .cfa: $rsp 16 +
STACK CFI 2fa55 .cfa: $rsp 8 +
STACK CFI 2fa60 .cfa: $rsp 48 +
STACK CFI 2fa78 .cfa: $rsp 40 +
STACK CFI 2fa79 .cfa: $rsp 32 +
STACK CFI 2fa7b .cfa: $rsp 24 +
STACK CFI 2fa7d .cfa: $rsp 16 +
STACK CFI 2fa7f .cfa: $rsp 8 +
STACK CFI 2fa80 .cfa: $rsp 48 +
STACK CFI INIT 2fad0 191 .cfa: $rsp 8 + .ra: .cfa -8 + ^
STACK CFI 2fad2 $r14: .cfa -16 + ^ .cfa: $rsp 16 +
STACK CFI 2fade $r13: .cfa -24 + ^ .cfa: $rsp 24 +
STACK CFI 2fae0 $r12: .cfa -32 + ^ .cfa: $rsp 32 +
STACK CFI 2fae9 $rbp: .cfa -40 + ^ .cfa: $rsp 40 +
STACK CFI 2faf0 $rbx: .cfa -48 + ^ .cfa: $rsp 48 +
STACK CFI 2fbc0 .cfa: $rsp 40 +
STACK CFI 2fbc1 .cfa: $rsp 32 +
STACK CFI 2fbc3 .cfa: $rsp 24 +
STACK CFI 2fbc5 .cfa: $rsp 16 +
STACK CFI 2fbc7 .cfa: $rsp 8 +
STACK CFI 2fbd0 .cfa: $rsp 48 +
STACK CFI 2fc14 .cfa: $rsp 40 +
STACK CFI 2fc15 .cfa: $rsp 32 +
STACK CFI 2fc17 .cfa: $rsp 24 +
STACK CFI 2fc19 .cfa: $rsp 16 +
STACK CFI 2fc1b .cfa: $rsp 8 +
STACK CFI 2fc1c .cfa: $rsp 48 +
STACK CFI INIT 2fc70 96 .cfa: $rsp 8 + .ra: .cfa -8 + ^
STACK CFI 2fc72 $r12: .cfa -16 + ^ .cfa: $rsp 16 +
STACK CFI 2fc76 $rbp: .cfa -24 + ^ .cfa: $rsp 24 +
STACK CFI 2fc77 $rbx: .cfa -32 + ^ .cfa: $rsp 32 +
STACK CFI 2fcda .cfa: $rsp 24 +
STACK CFI 2fce2 .cfa: $rsp 16 +
STACK CFI 2fce4 .cfa: $rsp 8 +
STACK CFI 2fcf0 .cfa: $rsp 32 +
STACK CFI INIT 2fd10 1a7 .cfa: $rsp 8 + .ra: .cfa -8 + ^
STACK CFI 2fd12 $r15: .cfa -16 + ^ .cfa: $rsp 16 +
STACK CFI 2fd14 $r14: .cfa -24 + ^ .cfa: $rsp 24 +
STACK CFI 2fd19 $r13: .cfa -32 + ^ .cfa: $rsp 32 +
STACK CFI 2fd1e $r12: .cfa -40 + ^ .cfa: $rsp 40 +
STACK CFI 2fd1f $rbp: .cfa -48 + ^ .cfa: $rsp 48 +
STACK CFI 2fd23 $rbx: .cfa -56 + ^ .cfa: $rsp 56 +
STACK CFI 2fd27 .cfa: $rsp 64 +
STACK CFI 2fdb1 .cfa: $rsp 56 +
STACK CFI 2fdb2 .cfa: $rsp 48 +
STACK CFI 2fdb3 .cfa: $rsp 40 +
STACK CFI 2fdb5 .cfa: $rsp 32 +
STACK CFI 2fdb7 .cfa: $rsp 24 +
STACK CFI 2fdb9 .cfa: $rsp 16 +
STACK CFI 2fdbb .cfa: $rsp 8 +
STACK CFI 2fdc0 .cfa: $rsp 64 +
STACK CFI 2fe2b .cfa: $rsp 56 +
STACK CFI 2fe2f .cfa: $rsp 48 +
STACK CFI 2fe30 .cfa: $rsp 40 +
STACK CFI 2fe32 .cfa: $rsp 32 +
STACK CFI 2fe34 .cfa: $rsp 24 +
STACK CFI 2fe36 .cfa: $rsp 16 +
STACK CFI 2fe38 .cfa: $rsp 8 +
STACK CFI 2fe40 .cfa: $rsp 64 +
STACK CFI INIT 2fec0 d3 .cfa: $rsp 8 + .ra: .cfa -8 + ^
STACK CFI 2fec2 $r13: .cfa -16 + ^ .cfa: $rsp 16 +
STACK CFI 2fec7 $r12: .cfa -24 + ^ .cfa: $rsp 24 +
STACK CFI 2fec8 $rbp: .cfa -32 + ^ .cfa: $rsp 32 +
STACK CFI 2fecc $rbx: .cfa -40 + ^ .cfa: $rsp 40 +
STACK CFI 2fed0 .cfa: $rsp 80 +
STACK CFI 2ff2f .cfa: $rsp 40 +
STACK CFI 2ff35 .cfa: $rsp 32 +
STACK CFI 2ff36 .cfa: $rsp 24 +
STACK CFI 2ff38 .cfa: $rsp 16 +
STACK CFI 2ff3a .cfa: $rsp 8 +
STACK CFI 2ff40 .cfa: $rsp 80 +
STACK CFI 2ff79 .cfa: $rsp 40 +
STACK CFI 2ff7a .cfa: $rsp 32 +
STACK CFI 2ff7b .cfa: $rsp 24 +
STACK CFI 2ff7d .cfa: $rsp 16 +
STACK CFI 2ff7f .cfa: $rsp 8 +
STACK CFI 2ff80 .cfa: $rsp 80 +
STACK CFI INIT 24f80 207 .cfa: $rsp 8 + .ra: .cfa -8 + ^
STACK CFI 24f82 $r14: .cfa -16 + ^ .cfa: $rsp 16 +
STACK CFI 24f84 $r13: .cfa -24 + ^ .cfa: $rsp 24 +
STACK CFI 24f89 $r12: .cfa -32 + ^ .cfa: $rsp 32 +
STACK CFI 24f8d $rbp: .cfa -40 + ^ .cfa: $rsp 40 +
STACK CFI 24f8e $rbx: .cfa -48 + ^ .cfa: $rsp 48 +
STACK CFI 250da .cfa: $rsp 40 +
STACK CFI 250db .cfa: $rsp 32 +
STACK CFI 250dd .cfa: $rsp 24 +
STACK CFI 250df .cfa: $rsp 16 +
STACK CFI 250e1 .cfa: $rsp 8 +
STACK CFI 250e2 .cfa: $rsp 48 +
STACK CFI 2510d .cfa: $rsp 40 +
STACK CFI 2510e .cfa: $rsp 32 +
STACK CFI 25110 .cfa: $rsp 24 +
STACK CFI 25112 .cfa: $rsp 16 +
STACK CFI 25114 .cfa: $rsp 8 +
STACK CFI 25118 .cfa: $rsp 48 +
STACK CFI INIT 2ffa0 222 .cfa: $rsp 8 + .ra: .cfa -8 + ^
STACK CFI 2ffa2 $r15: .cfa -16 + ^ .cfa: $rsp 16 +
STACK CFI 2ffa4 $r14: .cfa -24 + ^ .cfa: $rsp 24 +
STACK CFI 2ffa9 $r13: .cfa -32 + ^ .cfa: $rsp 32 +
STACK CFI 2ffab $r12: .cfa -40 + ^ .cfa: $rsp 40 +
STACK CFI 2ffaf $rbp: .cfa -48 + ^ .cfa: $rsp 48 +
STACK CFI 2ffb0 $rbx: .cfa -56 + ^ .cfa: $rsp 56 +
STACK CFI 2ffb4 .cfa: $rsp 128 +
STACK CFI 30148 .cfa: $rsp 56 +
STACK CFI 3014c .cfa: $rsp 48 +
STACK CFI 3014d .cfa: $rsp 40 +
STACK CFI 3014f .cfa: $rsp 32 +
STACK CFI 30151 .cfa: $rsp 24 +
STACK CFI 30153 .cfa: $rsp 16 +
STACK CFI 30155 .cfa: $rsp 8 +
STACK CFI 30160 .cfa: $rsp 128 +
STACK CFI INIT 25190 bbb .cfa: $rsp 8 + .ra: .cfa -8 + ^
STACK CFI 25192 $r15: .cfa -16 + ^ .cfa: $rsp 16 +
STACK CFI 25194 $r14: .cfa -24 + ^ .cfa: $rsp 24 +
STACK CFI 25196 $r13: .cfa -32 + ^ .cfa: $rsp 32 +
STACK CFI 25198 $r12: .cfa -40 + ^ .cfa: $rsp 40 +
STACK CFI 25199 $rbp: .cfa -48 + ^ .cfa: $rsp 48 +
STACK CFI 2519a $rbx: .cfa -56 + ^ .cfa: $rsp 56 +
STACK CFI 251a4 .cfa: $rsp 576 +
STACK CFI 25335 .cfa: $rsp 56 +
STACK CFI 25336 .cfa: $rsp 48 +
STACK CFI 25337 .cfa: $rsp 40 +
STACK CFI 25339 .cfa: $rsp 32 +
STACK CFI 2533b .cfa: $rsp 24 +
STACK CFI 2533d .cfa: $rsp 16 +
STACK CFI 2533f .cfa: $rsp 8 +
STACK CFI 25340 .cfa: $rsp 576 +
STACK CFI INIT 25d50 473 .cfa: $rsp 8 + .ra: .cfa -8 + ^
STACK CFI 25d52 $r15: .cfa -16 + ^ .cfa: $rsp 16 +
STACK CFI 25d54 $r14: .cfa -24 + ^ .cfa: $rsp 24 +
STACK CFI 25d56 $r13: .cfa -32 + ^ .cfa: $rsp 32 +
STACK CFI 25d58 $r12: .cfa -40 + ^ .cfa: $rsp 40 +
STACK CFI 25d59 $rbp: .cfa -48 + ^ .cfa: $rsp 48 +
STACK CFI 25d5a $rbx: .cfa -56 + ^ .cfa: $rsp 56 +
STACK CFI 25d61 .cfa: $rsp 192 +
STACK CFI 25f81 .cfa: $rsp 56 +
STACK CFI 25f82 .cfa: $rsp 48 +
STACK CFI 25f83 .cfa: $rsp 40 +
STACK CFI 25f85 .cfa: $rsp 32 +
STACK CFI 25f87 .cfa: $rsp 24 +
STACK CFI 25f89 .cfa: $rsp 16 +
STACK CFI 25f8b .cfa: $rsp 8 +
STACK CFI 25f8c .cfa: $rsp 192 +
STACK CFI INIT 301d0 32 .cfa: $rsp 8 + .ra: .cfa -8 + ^
STACK CFI INIT 30210 12c .cfa: $rsp 8 + .ra: .cfa -8 + ^
STACK CFI 30212 $r15: .cfa -16 + ^ .cfa: $rsp 16 +
STACK CFI 30214 $r14: .cfa -24 + ^ .cfa: $rsp 24 +
STACK CFI 30219 $r13: .cfa -32 + ^ .cfa: $rsp 32 +
STACK CFI 3021b $r12: .cfa -40 + ^ .cfa: $rsp 40 +
STACK CFI 3021c $rbp: .cfa -48 + ^ .cfa: $rsp 48 +
STACK CFI 3021d $rbx: .cfa -56 + ^ .cfa: $rsp 56 +
STACK CFI 30221 .cfa: $rsp 64 +
STACK CFI 302ad .cfa: $rsp 56 +
STACK CFI 302b1 .cfa: $rsp 48 +
STACK CFI 302b2 .cfa: $rsp 40 +
STACK CFI 302b4 .cfa: $rsp 32 +
STACK CFI 302b6 .cfa: $rsp 24 +
STACK CFI 302b8 .cfa: $rsp 16 +
STACK CFI 302ba .cfa: $rsp 8 +
STACK CFI 302c0 .cfa: $rsp 64 +
STACK CFI 302d6 .cfa: $rsp 56 +
STACK CFI 302d7 .cfa: $rsp 48 +
STACK CFI 302d8 .cfa: $rsp 40 +
STACK CFI 302da .cfa: $rsp 32 +
STACK CFI 302dc .cfa: $rsp 24 +
STACK CFI 302de .cfa: $rsp 16 +
STACK CFI 302e0 .cfa: $rsp 8 +
STACK CFI 302e1 .cfa: $rsp 64 +
STACK CFI INIT 261d0 1ca .cfa: $rsp 8 + .ra: .cfa -8 + ^
STACK CFI 261d2 $r15: .cfa -16 + ^ .cfa: $rsp 16 +
STACK CFI 261db $r14: .cfa -24 + ^ .cfa: $rsp 24 +
STACK CFI 261dd $r13: .cfa -32 + ^ .cfa: $rsp 32 +
STACK CFI 261df $r12: .cfa -40 + ^ .cfa: $rsp 40 +
STACK CFI 261e0 $rbp: .cfa -48 + ^ .cfa: $rsp 48 +
STACK CFI 261e1 $rbx: .cfa -56 + ^ .cfa: $rsp 56 +
STACK CFI 261e8 .cfa: $rsp 176 +
STACK CFI 2631c .cfa: $rsp 56 +
STACK CFI 2631d .cfa: $rsp 48 +
STACK CFI 2631e .cfa: $rsp 40 +
STACK CFI 26320 .cfa: $rsp 32 +
STACK CFI 26322 .cfa: $rsp 24 +
STACK CFI 26324 .cfa: $rsp 16 +
STACK CFI 26326 .cfa: $rsp 8 +
STACK CFI 26330 .cfa: $rsp 176 +
STACK CFI INIT 30340 52 .cfa: $rsp 8 + .ra: .cfa -8 + ^
STACK CFI 30341 $rbx: .cfa -16 + ^ .cfa: $rsp 16 +
STACK CFI 30391 .cfa: $rsp 8 +
STACK CFI INIT 303a0 52 .cfa: $rsp 8 + .ra: .cfa -8 + ^
STACK CFI 303a1 $rbx: .cfa -16 + ^ .cfa: $rsp 16 +
STACK CFI 303cd .cfa: $rsp 8 +
STACK CFI 303d8 .cfa: $rsp 16 +
STACK CFI 303e9 .cfa: $rsp 8 +
STACK CFI 303ea .cfa: $rsp 16 +
STACK CFI INIT 30400 179 .cfa: $rsp 8 + .ra: .cfa -8 + ^
STACK CFI 30401 $rbp: .cfa -16 + ^ .cfa: $rsp 16 +
STACK CFI 30402 $rbx: .cfa -24 + ^ .cfa: $rsp 24 +
STACK CFI 30409 .cfa: $rsp 32 +
STACK CFI 30503 .cfa: $rsp 24 +
STACK CFI 30504 .cfa: $rsp 16 +
STACK CFI 30505 .cfa: $rsp 8 +
STACK CFI 30510 .cfa: $rsp 32 +
STACK CFI INIT 30580 c .cfa: $rsp 8 + .ra: .cfa -8 + ^
STACK CFI INIT 30590 16d .cfa: $rsp 8 + .ra: .cfa -8 + ^
STACK CFI 30592 $r12: .cfa -16 + ^ .cfa: $rsp 16 +
STACK CFI 30593 $rbp: .cfa -24 + ^ .cfa: $rsp 24 +
STACK CFI 30597 $rbx: .cfa -32 + ^ .cfa: $rsp 32 +
STACK CFI 30691 .cfa: $rsp 24 +
STACK CFI 30692 .cfa: $rsp 16 +
STACK CFI 30694 .cfa: $rsp 8 +
STACK CFI 30698 .cfa: $rsp 32 +
STACK CFI INIT 30700 522 .cfa: $rsp 8 + .ra: .cfa -8 + ^
STACK CFI 30702 $r15: .cfa -16 + ^ .cfa: $rsp 16 +
STACK CFI 30707 $r14: .cfa -24 + ^ .cfa: $rsp 24 +
STACK CFI 3070f $r13: .cfa -32 + ^ .cfa: $rsp 32 +
STACK CFI 30711 $r12: .cfa -40 + ^ .cfa: $rsp 40 +
STACK CFI 30712 $rbp: .cfa -48 + ^ .cfa: $rsp 48 +
STACK CFI 30716 $rbx: .cfa -56 + ^ .cfa: $rsp 56 +
STACK CFI 30720 .cfa: $rsp 336 +
STACK CFI 30a44 .cfa: $rsp 56 +
STACK CFI 30a45 .cfa: $rsp 48 +
STACK CFI 30a46 .cfa: $rsp 40 +
STACK CFI 30a48 .cfa: $rsp 32 +
STACK CFI 30a4a .cfa: $rsp 24 +
STACK CFI 30a4c .cfa: $rsp 16 +
STACK CFI 30a4e .cfa: $rsp 8 +
STACK CFI 30a4f .cfa: $rsp 336 +
STACK CFI INIT 30c30 1d9 .cfa: $rsp 8 + .ra: .cfa -8 + ^
STACK CFI 30c31 $rbp: .cfa -16 + ^ .cfa: $rsp 16 +
STACK CFI 30c32 $rbx: .cfa -24 + ^ .cfa: $rsp 24 +
STACK CFI 30c39 .cfa: $rsp 32 +
STACK CFI 30d61 .cfa: $rsp 24 +
STACK CFI 30d62 .cfa: $rsp 16 +
STACK CFI 30d63 .cfa: $rsp 8 +
STACK CFI 30d70 .cfa: $rsp 32 +
STACK CFI INIT 30e10 c .cfa: $rsp 8 + .ra: .cfa -8 + ^
STACK CFI INIT 30e20 1d9 .cfa: $rsp 8 + .ra: .cfa -8 + ^
STACK CFI 30e21 $rbp: .cfa -16 + ^ .cfa: $rsp 16 +
STACK CFI 30e22 $rbx: .cfa -24 + ^ .cfa: $rsp 24 +
STACK CFI 30e29 .cfa: $rsp 32 +
STACK CFI 30f56 .cfa: $rsp 24 +
STACK CFI 30f5a .cfa: $rsp 16 +
STACK CFI 30f5b .cfa: $rsp 8 +
STACK CFI 30f60 .cfa: $rsp 32 +
STACK CFI INIT 31000 c .cfa: $rsp 8 + .ra: .cfa -8 + ^
STACK CFI INIT 31010 181 .cfa: $rsp 8 + .ra: .cfa -8 + ^
STACK CFI 31011 $rbp: .cfa -16 + ^ .cfa: $rsp 16 +
STACK CFI 31012 $rbx: .cfa -24 + ^ .cfa: $rsp 24 +
STACK CFI 31019 .cfa: $rsp 32 +
STACK CFI 31118 .cfa: $rsp 24 +
STACK CFI 3111c .cfa: $rsp 16 +
STACK CFI 3111d .cfa: $rsp 8 +
STACK CFI 31128 .cfa: $rsp 32 +
STACK CFI INIT 311a0 c .cfa: $rsp 8 + .ra: .cfa -8 + ^
STACK CFI INIT 311b0 18b .cfa: $rsp 8 + .ra: .cfa -8 + ^
STACK CFI 311b2 $r15: .cfa -16 + ^ .cfa: $rsp 16 +
STACK CFI 311b4 $r14: .cfa -24 + ^ .cfa: $rsp 24 +
STACK CFI 311b6 $r13: .cfa -32 + ^ .cfa: $rsp 32 +
STACK CFI 311bb $r12: .cfa -40 + ^ .cfa: $rsp 40 +
STACK CFI 311bf $rbp: .cfa -48 + ^ .cfa: $rsp 48 +
STACK CFI 311c3 $rbx: .cfa -56 + ^ .cfa: $rsp 56 +
STACK CFI 311c7 .cfa: $rsp 64 +
STACK CFI 311fa .cfa: $rsp 56 +
STACK CFI 311fb .cfa: $rsp 48 +
STACK CFI 311fc .cfa: $rsp 40 +
STACK CFI 311fe .cfa: $rsp 32 +
STACK CFI 31200 .cfa: $rsp 24 +
STACK CFI 31202 .cfa: $rsp 16 +
STACK CFI 31204 .cfa: $rsp 8 +
STACK CFI 31208 .cfa: $rsp 64 +
STACK CFI 3120c .cfa: $rsp 56 +
STACK CFI 31214 .cfa: $rsp 48 +
STACK CFI 31215 .cfa: $rsp 40 +
STACK CFI 31217 .cfa: $rsp 32 +
STACK CFI 31219 .cfa: $rsp 24 +
STACK CFI 3121b .cfa: $rsp 16 +
STACK CFI 3121d .cfa: $rsp 8 +
STACK CFI 31228 .cfa: $rsp 64 +
STACK CFI INIT 31340 299 .cfa: $rsp 8 + .ra: .cfa -8 + ^
STACK CFI 31342 $r15: .cfa -16 + ^ .cfa: $rsp 16 +
STACK CFI 31344 $r14: .cfa -24 + ^ .cfa: $rsp 24 +
STACK CFI 31346 $r13: .cfa -32 + ^ .cfa: $rsp 32 +
STACK CFI 3134b $r12: .cfa -40 + ^ .cfa: $rsp 40 +
STACK CFI 3134f $rbp: .cfa -48 + ^ .cfa: $rsp 48 +
STACK CFI 31353 $rbx: .cfa -56 + ^ .cfa: $rsp 56 +
STACK CFI 31357 .cfa: $rsp 80 +
STACK CFI 3138a .cfa: $rsp 56 +
STACK CFI 3138b .cfa: $rsp 48 +
STACK CFI 3138c .cfa: $rsp 40 +
STACK CFI 3138e .cfa: $rsp 32 +
STACK CFI 31390 .cfa: $rsp 24 +
STACK CFI 31392 .cfa: $rsp 16 +
STACK CFI 31394 .cfa: $rsp 8 +
STACK CFI 31398 .cfa: $rsp 80 +
STACK CFI 3139c .cfa: $rsp 56 +
STACK CFI 313a4 .cfa: $rsp 48 +
STACK CFI 313a5 .cfa: $rsp 40 +
STACK CFI 313a7 .cfa: $rsp 32 +
STACK CFI 313a9 .cfa: $rsp 24 +
STACK CFI 313ab .cfa: $rsp 16 +
STACK CFI 313ad .cfa: $rsp 8 +
STACK CFI 313b8 .cfa: $rsp 80 +
STACK CFI INIT 315e0 70 .cfa: $rsp 8 + .ra: .cfa -8 + ^
STACK CFI 315e1 $rbp: .cfa -16 + ^ .cfa: $rsp 16 +
STACK CFI 315e2 $rbx: .cfa -24 + ^ .cfa: $rsp 24 +
STACK CFI 315e9 .cfa: $rsp 32 +
STACK CFI 31649 .cfa: $rsp 24 +
STACK CFI 3164d .cfa: $rsp 16 +
STACK CFI 3164e .cfa: $rsp 8 +
STACK CFI INIT 31650 9 .cfa: $rsp 8 + .ra: .cfa -8 + ^
STACK CFI INIT 31660 427 .cfa: $rsp 8 + .ra: .cfa -8 + ^
STACK CFI 31662 $r15: .cfa -16 + ^ .cfa: $rsp 16 +
STACK CFI 31664 $r14: .cfa -24 + ^ .cfa: $rsp 24 +
STACK CFI 31666 $r13: .cfa -32 + ^ .cfa: $rsp 32 +
STACK CFI 31668 $r12: .cfa -40 + ^ .cfa: $rsp 40 +
STACK CFI 31669 $rbp: .cfa -48 + ^ .cfa: $rsp 48 +
STACK CFI 3166a $rbx: .cfa -56 + ^ .cfa: $rsp 56 +
STACK CFI 3166e .cfa: $rsp 128 +
STACK CFI 31856 .cfa: $rsp 56 +
STACK CFI 31857 .cfa: $rsp 48 +
STACK CFI 31858 .cfa: $rsp 40 +
STACK CFI 3185a .cfa: $rsp 32 +
STACK CFI 3185c .cfa: $rsp 24 +
STACK CFI 3185e .cfa: $rsp 16 +
STACK CFI 31860 .cfa: $rsp 8 +
STACK CFI 31868 .cfa: $rsp 128 +
STACK CFI 318a7 .cfa: $rsp 56 +
STACK CFI 318a8 .cfa: $rsp 48 +
STACK CFI 318a9 .cfa: $rsp 40 +
STACK CFI 318ab .cfa: $rsp 32 +
STACK CFI 318ad .cfa: $rsp 24 +
STACK CFI 318af .cfa: $rsp 16 +
STACK CFI 318b1 .cfa: $rsp 8 +
STACK CFI 318b2 .cfa: $rsp 128 +
STACK CFI INIT 31a90 352 .cfa: $rsp 8 + .ra: .cfa -8 + ^
STACK CFI 31a92 $r14: .cfa -16 + ^ .cfa: $rsp 16 +
STACK CFI 31a94 $r13: .cfa -24 + ^ .cfa: $rsp 24 +
STACK CFI 31a96 $r12: .cfa -32 + ^ .cfa: $rsp 32 +
STACK CFI 31a97 $rbp: .cfa -40 + ^ .cfa: $rsp 40 +
STACK CFI 31a9b $rbx: .cfa -48 + ^ .cfa: $rsp 48 +
STACK CFI 31aa2 .cfa: $rsp 64 +
STACK CFI 31bbb .cfa: $rsp 48 +
STACK CFI 31bbc .cfa: $rsp 40 +
STACK CFI 31bbd .cfa: $rsp 32 +
STACK CFI 31bbf .cfa: $rsp 24 +
STACK CFI 31bc1 .cfa: $rsp 16 +
STACK CFI 31bc3 .cfa: $rsp 8 +
STACK CFI 31bc8 .cfa: $rsp 64 +
STACK CFI 31c20 .cfa: $rsp 48 +
STACK CFI 31c21 .cfa: $rsp 40 +
STACK CFI 31c22 .cfa: $rsp 32 +
STACK CFI 31c24 .cfa: $rsp 24 +
STACK CFI 31c26 .cfa: $rsp 16 +
STACK CFI 31c28 .cfa: $rsp 8 +
STACK CFI 31c30 .cfa: $rsp 64 +
STACK CFI INIT 31df0 197 .cfa: $rsp 8 + .ra: .cfa -8 + ^
STACK CFI 31df2 $r15: .cfa -16 + ^ .cfa: $rsp 16 +
STACK CFI 31df4 $r14: .cfa -24 + ^ .cfa: $rsp 24 +
STACK CFI 31df6 $r13: .cfa -32 + ^ .cfa: $rsp 32 +
STACK CFI 31dfb $r12: .cfa -40 + ^ .cfa: $rsp 40 +
STACK CFI 31dff $rbp: .cfa -48 + ^ .cfa: $rsp 48 +
STACK CFI 31e03 $rbx: .cfa -56 + ^ .cfa: $rsp 56 +
STACK CFI 31e07 .cfa: $rsp 80 +
STACK CFI 31e3a .cfa: $rsp 56 +
STACK CFI 31e3b .cfa: $rsp 48 +
STACK CFI 31e3c .cfa: $rsp 40 +
STACK CFI 31e3e .cfa: $rsp 32 +
STACK CFI 31e40 .cfa: $rsp 24 +
STACK CFI 31e42 .cfa: $rsp 16 +
STACK CFI 31e44 .cfa: $rsp 8 +
STACK CFI 31e48 .cfa: $rsp 80 +
STACK CFI 31e4c .cfa: $rsp 56 +
STACK CFI 31e54 .cfa: $rsp 48 +
STACK CFI 31e55 .cfa: $rsp 40 +
STACK CFI 31e57 .cfa: $rsp 32 +
STACK CFI 31e59 .cfa: $rsp 24 +
STACK CFI 31e5b .cfa: $rsp 16 +
STACK CFI 31e5d .cfa: $rsp 8 +
STACK CFI 31e68 .cfa: $rsp 80 +
STACK CFI INIT 31f90 205 .cfa: $rsp 8 + .ra: .cfa -8 + ^
STACK CFI 31f92 $r15: .cfa -16 + ^ .cfa: $rsp 16 +
STACK CFI 31f94 $r14: .cfa -24 + ^ .cfa: $rsp 24 +
STACK CFI 31f96 $r13: .cfa -32 + ^ .cfa: $rsp 32 +
STACK CFI 31f98 $r12: .cfa -40 + ^ .cfa: $rsp 40 +
STACK CFI 31f99 $rbp: .cfa -48 + ^ .cfa: $rsp 48 +
STACK CFI 31f9a $rbx: .cfa -56 + ^ .cfa: $rsp 56 +
STACK CFI 31fa1 .cfa: $rsp 80 +
STACK CFI 31ff2 .cfa: $rsp 56 +
STACK CFI 31ff3 .cfa: $rsp 48 +
STACK CFI 31ff4 .cfa: $rsp 40 +
STACK CFI 31ff6 .cfa: $rsp 32 +
STACK CFI 31ff8 .cfa: $rsp 24 +
STACK CFI 31ffa .cfa: $rsp 16 +
STACK CFI 31ffc .cfa: $rsp 8 +
STACK CFI 32000 .cfa: $rsp 80 +
STACK CFI INIT 321a0 9 .cfa: $rsp 8 + .ra: .cfa -8 + ^
STACK CFI INIT 321b0 3a .cfa: $rsp 8 + .ra: .cfa -8 + ^
STACK CFI 321b4 .cfa: $rsp 16 +
STACK CFI 321e9 .cfa: $rsp 8 +
STACK CFI INIT 321f0 3a .cfa: $rsp 8 + .ra: .cfa -8 + ^
STACK CFI 321f4 .cfa: $rsp 16 +
STACK CFI 32229 .cfa: $rsp 8 +
STACK CFI INIT 32230 1f1 .cfa: $rsp 8 + .ra: .cfa -8 + ^
STACK CFI 32232 $r15: .cfa -16 + ^ .cfa: $rsp 16 +
STACK CFI 32234 $r14: .cfa -24 + ^ .cfa: $rsp 24 +
STACK CFI 32239 $r13: .cfa -32 + ^ .cfa: $rsp 32 +
STACK CFI 3223e $r12: .cfa -40 + ^ .cfa: $rsp 40 +
STACK CFI 32242 $rbp: .cfa -48 + ^ .cfa: $rsp 48 +
STACK CFI 32246 $rbx: .cfa -56 + ^ .cfa: $rsp 56 +
STACK CFI 3224a .cfa: $rsp 96 +
STACK CFI 3227d .cfa: $rsp 56 +
STACK CFI 3227e .cfa: $rsp 48 +
STACK CFI 3227f .cfa: $rsp 40 +
STACK CFI 32281 .cfa: $rsp 32 +
STACK CFI 32283 .cfa: $rsp 24 +
STACK CFI 32285 .cfa: $rsp 16 +
STACK CFI 32287 .cfa: $rsp 8 +
STACK CFI 32290 .cfa: $rsp 96 +
STACK CFI 32294 .cfa: $rsp 56 +
STACK CFI 3229c .cfa: $rsp 48 +
STACK CFI 3229d .cfa: $rsp 40 +
STACK CFI 3229f .cfa: $rsp 32 +
STACK CFI 322a1 .cfa: $rsp 24 +
STACK CFI 322a3 .cfa: $rsp 16 +
STACK CFI 322a5 .cfa: $rsp 8 +
STACK CFI 322b0 .cfa: $rsp 96 +
STACK CFI INIT 32430 416 .cfa: $rsp 8 + .ra: .cfa -8 + ^
STACK CFI 32432 $r15: .cfa -16 + ^ .cfa: $rsp 16 +
STACK CFI 3243d $r14: .cfa -24 + ^ .cfa: $rsp 24 +
STACK CFI 3243f $r13: .cfa -32 + ^ .cfa: $rsp 32 +
STACK CFI 32441 $r12: .cfa -40 + ^ .cfa: $rsp 40 +
STACK CFI 32445 $rbp: .cfa -48 + ^ .cfa: $rsp 48 +
STACK CFI 32446 $rbx: .cfa -56 + ^ .cfa: $rsp 56 +
STACK CFI 3244a .cfa: $rsp 144 +
STACK CFI 32466 .cfa: $rsp 56 +
STACK CFI 32467 .cfa: $rsp 48 +
STACK CFI 32468 .cfa: $rsp 40 +
STACK CFI 3246a .cfa: $rsp 32 +
STACK CFI 3246c .cfa: $rsp 24 +
STACK CFI 3246e .cfa: $rsp 16 +
STACK CFI 32470 .cfa: $rsp 8 +
STACK CFI 32478 .cfa: $rsp 144 +
STACK CFI 32679 .cfa: $rsp 56 +
STACK CFI 3267a .cfa: $rsp 48 +
STACK CFI 3267b .cfa: $rsp 40 +
STACK CFI 3267d .cfa: $rsp 32 +
STACK CFI 3267f .cfa: $rsp 24 +
STACK CFI 32681 .cfa: $rsp 16 +
STACK CFI 32683 .cfa: $rsp 8 +
STACK CFI 32688 .cfa: $rsp 144 +
STACK CFI INIT 32850 2c9 .cfa: $rsp 8 + .ra: .cfa -8 + ^
STACK CFI 32852 $r15: .cfa -16 + ^ .cfa: $rsp 16 +
STACK CFI 32854 $r14: .cfa -24 + ^ .cfa: $rsp 24 +
STACK CFI 32856 $r13: .cfa -32 + ^ .cfa: $rsp 32 +
STACK CFI 32858 $r12: .cfa -40 + ^ .cfa: $rsp 40 +
STACK CFI 32859 $rbp: .cfa -48 + ^ .cfa: $rsp 48 +
STACK CFI 3285a $rbx: .cfa -56 + ^ .cfa: $rsp 56 +
STACK CFI 32864 .cfa: $rsp 208 +
STACK CFI 32876 .cfa: $rsp 56 +
STACK CFI 32877 .cfa: $rsp 48 +
STACK CFI 32878 .cfa: $rsp 40 +
STACK CFI 3287a .cfa: $rsp 32 +
STACK CFI 3287c .cfa: $rsp 24 +
STACK CFI 3287e .cfa: $rsp 16 +
STACK CFI 32880 .cfa: $rsp 8 +
STACK CFI 32888 .cfa: $rsp 208 +
STACK CFI INIT 32b20 c .cfa: $rsp 8 + .ra: .cfa -8 + ^
STACK CFI INIT 32b30 204 .cfa: $rsp 8 + .ra: .cfa -8 + ^
STACK CFI 32b32 $r15: .cfa -16 + ^ .cfa: $rsp 16 +
STACK CFI 32b37 $r14: .cfa -24 + ^ .cfa: $rsp 24 +
STACK CFI 32b39 $r13: .cfa -32 + ^ .cfa: $rsp 32 +
STACK CFI 32b3b $r12: .cfa -40 + ^ .cfa: $rsp 40 +
STACK CFI 32b3c $rbp: .cfa -48 + ^ .cfa: $rsp 48 +
STACK CFI 32b3d $rbx: .cfa -56 + ^ .cfa: $rsp 56 +
STACK CFI 32b41 .cfa: $rsp 96 +
STACK CFI 32b6a .cfa: $rsp 56 +
STACK CFI 32b6b .cfa: $rsp 48 +
STACK CFI 32b6c .cfa: $rsp 40 +
STACK CFI 32b6e .cfa: $rsp 32 +
STACK CFI 32b70 .cfa: $rsp 24 +
STACK CFI 32b72 .cfa: $rsp 16 +
STACK CFI 32b74 .cfa: $rsp 8 +
STACK CFI 32b78 .cfa: $rsp 96 +
STACK CFI 32cbc .cfa: $rsp 56 +
STACK CFI 32cbd .cfa: $rsp 48 +
STACK CFI 32cbe .cfa: $rsp 40 +
STACK CFI 32cc0 .cfa: $rsp 32 +
STACK CFI 32cc2 .cfa: $rsp 24 +
STACK CFI 32cc4 .cfa: $rsp 16 +
STACK CFI 32cc6 .cfa: $rsp 8 +
STACK CFI 32cd0 .cfa: $rsp 96 +
STACK CFI INIT 32d40 a0 .cfa: $rsp 8 + .ra: .cfa -8 + ^
STACK CFI 32d42 $r13: .cfa -16 + ^ .cfa: $rsp 16 +
STACK CFI 32d50 $r12: .cfa -24 + ^ .cfa: $rsp 24 +
STACK CFI 32d54 $rbp: .cfa -32 + ^ .cfa: $rsp 32 +
STACK CFI 32d5d $rbx: .cfa -40 + ^ .cfa: $rsp 40 +
STACK CFI 32d61 .cfa: $rsp 48 +
STACK CFI 32d99 .cfa: $rsp 40 +
STACK CFI 32d9d .cfa: $rsp 32 +
STACK CFI 32d9e .cfa: $rsp 24 +
STACK CFI 32da0 .cfa: $rsp 16 +
STACK CFI 32da2 .cfa: $rsp 8 +
STACK CFI 32da3 .cfa: $rsp 48 +
STACK CFI INIT 32de0 113 .cfa: $rsp 8 + .ra: .cfa -8 + ^
STACK CFI 32de2 $r12: .cfa -16 + ^ .cfa: $rsp 16 +
STACK CFI 32df5 $rbp: .cfa -24 + ^ .cfa: $rsp 24 +
STACK CFI 32dfc $rbx: .cfa -32 + ^ .cfa: $rsp 32 +
STACK CFI 32e7f .cfa: $rsp 24 +
STACK CFI 32e80 .cfa: $rsp 16 +
STACK CFI 32e82 .cfa: $rsp 8 +
STACK CFI 32e88 .cfa: $rsp 32 +
STACK CFI 32e94 .cfa: $rsp 24 +
STACK CFI 32e95 .cfa: $rsp 16 +
STACK CFI 32e97 .cfa: $rsp 8 +
STACK CFI 32ea0 .cfa: $rsp 32 +
STACK CFI INIT 32f00 96 .cfa: $rsp 8 + .ra: .cfa -8 + ^
STACK CFI 32f02 $r12: .cfa -16 + ^ .cfa: $rsp 16 +
STACK CFI 32f06 $rbp: .cfa -24 + ^ .cfa: $rsp 24 +
STACK CFI 32f07 $rbx: .cfa -32 + ^ .cfa: $rsp 32 +
STACK CFI 32f6a .cfa: $rsp 24 +
STACK CFI 32f72 .cfa: $rsp 16 +
STACK CFI 32f74 .cfa: $rsp 8 +
STACK CFI 32f80 .cfa: $rsp 32 +
STACK CFI INIT 32fa0 149 .cfa: $rsp 8 + .ra: .cfa -8 + ^
STACK CFI 32fa2 $r14: .cfa -16 + ^ .cfa: $rsp 16 +
STACK CFI 32fa4 $r13: .cfa -24 + ^ .cfa: $rsp 24 +
STACK CFI 32fa9 $r12: .cfa -32 + ^ .cfa: $rsp 32 +
STACK CFI 32fad $rbx: .cfa -40 + ^ .cfa: $rsp 40 +
STACK CFI 32fb1 .cfa: $rsp 64 +
STACK CFI 330be .cfa: $rsp 40 +
STACK CFI 330c2 .cfa: $rsp 32 +
STACK CFI 330c4 .cfa: $rsp 24 +
STACK CFI 330c6 .cfa: $rsp 16 +
STACK CFI 330c8 .cfa: $rsp 8 +
STACK CFI 330c9 .cfa: $rsp 64 +
STACK CFI INIT 330f0 ef .cfa: $rsp 8 + .ra: .cfa -8 + ^
STACK CFI 330f2 $r15: .cfa -16 + ^ .cfa: $rsp 16 +
STACK CFI 330f4 $r14: .cfa -24 + ^ .cfa: $rsp 24 +
STACK CFI 330fd $r13: .cfa -32 + ^ .cfa: $rsp 32 +
STACK CFI 33103 $r12: .cfa -40 + ^ .cfa: $rsp 40 +
STACK CFI 33104 $rbp: .cfa -48 + ^ .cfa: $rsp 48 +
STACK CFI 33105 $rbx: .cfa -56 + ^ .cfa: $rsp 56 +
STACK CFI 3310c .cfa: $rsp 64 +
STACK CFI 331cf .cfa: $rsp 56 +
STACK CFI 331d0 .cfa: $rsp 48 +
STACK CFI 331d1 .cfa: $rsp 40 +
STACK CFI 331d3 .cfa: $rsp 32 +
STACK CFI 331d5 .cfa: $rsp 24 +
STACK CFI 331d7 .cfa: $rsp 16 +
STACK CFI 331d9 .cfa: $rsp 8 +
STACK CFI 331da .cfa: $rsp 64 +
STACK CFI INIT 331e0 c .cfa: $rsp 8 + .ra: .cfa -8 + ^
STACK CFI INIT 331f0 188 .cfa: $rsp 8 + .ra: .cfa -8 + ^
STACK CFI 331f2 $r15: .cfa -16 + ^ .cfa: $rsp 16 +
STACK CFI 331f4 $r14: .cfa -24 + ^ .cfa: $rsp 24 +
STACK CFI 331fd $r13: .cfa -32 + ^ .cfa: $rsp 32 +
STACK CFI 33203 $r12: .cfa -40 + ^ .cfa: $rsp 40 +
STACK CFI 33204 $rbp: .cfa -48 + ^ .cfa: $rsp 48 +
STACK CFI 33205 $rbx: .cfa -56 + ^ .cfa: $rsp 56 +
STACK CFI 3320c .cfa: $rsp 96 +
STACK CFI 33327 .cfa: $rsp 56 +
STACK CFI 33328 .cfa: $rsp 48 +
STACK CFI 33329 .cfa: $rsp 40 +
STACK CFI 3332b .cfa: $rsp 32 +
STACK CFI 3332d .cfa: $rsp 24 +
STACK CFI 3332f .cfa: $rsp 16 +
STACK CFI 33331 .cfa: $rsp 8 +
STACK CFI 33332 .cfa: $rsp 96 +
STACK CFI INIT 33380 c .cfa: $rsp 8 + .ra: .cfa -8 + ^
STACK CFI INIT 33390 626 .cfa: $rsp 8 + .ra: .cfa -8 + ^
STACK CFI 33392 $r15: .cfa -16 + ^ .cfa: $rsp 16 +
STACK CFI 33397 $r14: .cfa -24 + ^ .cfa: $rsp 24 +
STACK CFI 33399 $r13: .cfa -32 + ^ .cfa: $rsp 32 +
STACK CFI 3339b $r12: .cfa -40 + ^ .cfa: $rsp 40 +
STACK CFI 3339c $rbp: .cfa -48 + ^ .cfa: $rsp 48 +
STACK CFI 333a0 $rbx: .cfa -56 + ^ .cfa: $rsp 56 +
STACK CFI 333a7 .cfa: $rsp 112 +
STACK CFI 336ce .cfa: $rsp 56 +
STACK CFI 336cf .cfa: $rsp 48 +
STACK CFI 336d0 .cfa: $rsp 40 +
STACK CFI 336d2 .cfa: $rsp 32 +
STACK CFI 336d4 .cfa: $rsp 24 +
STACK CFI 336d6 .cfa: $rsp 16 +
STACK CFI 336d8 .cfa: $rsp 8 +
STACK CFI 336d9 .cfa: $rsp 112 +
STACK CFI INIT 339c0 15d .cfa: $rsp 8 + .ra: .cfa -8 + ^
STACK CFI 339c2 $r12: .cfa -16 + ^ .cfa: $rsp 16 +
STACK CFI 339c3 $rbp: .cfa -24 + ^ .cfa: $rsp 24 +
STACK CFI 339c4 $rbx: .cfa -32 + ^ .cfa: $rsp 32 +
STACK CFI 339cb .cfa: $rsp 64 +
STACK CFI 33a6c .cfa: $rsp 32 +
STACK CFI 33a6f .cfa: $rsp 24 +
STACK CFI 33a70 .cfa: $rsp 16 +
STACK CFI 33a72 .cfa: $rsp 8 +
STACK CFI 33a73 .cfa: $rsp 64 +
STACK CFI INIT 33b20 1d5 .cfa: $rsp 8 + .ra: .cfa -8 + ^
STACK CFI 33b22 $r15: .cfa -16 + ^ .cfa: $rsp 16 +
STACK CFI 33b24 $r14: .cfa -24 + ^ .cfa: $rsp 24 +
STACK CFI 33b26 $r13: .cfa -32 + ^ .cfa: $rsp 32 +
STACK CFI 33b2b $r12: .cfa -40 + ^ .cfa: $rsp 40 +
STACK CFI 33b2f $rbp: .cfa -48 + ^ .cfa: $rsp 48 +
STACK CFI 33b33 $rbx: .cfa -56 + ^ .cfa: $rsp 56 +
STACK CFI 33b3a .cfa: $rsp 112 +
STACK CFI 33c9b .cfa: $rsp 56 +
STACK CFI 33c9e .cfa: $rsp 48 +
STACK CFI 33c9f .cfa: $rsp 40 +
STACK CFI 33ca1 .cfa: $rsp 32 +
STACK CFI 33ca3 .cfa: $rsp 24 +
STACK CFI 33ca5 .cfa: $rsp 16 +
STACK CFI 33ca7 .cfa: $rsp 8 +
STACK CFI 33ca8 .cfa: $rsp 112 +
STACK CFI INIT 33d00 1f1 .cfa: $rsp 8 + .ra: .cfa -8 + ^
STACK CFI 33d02 $r15: .cfa -16 + ^ .cfa: $rsp 16 +
STACK CFI 33d04 $r14: .cfa -24 + ^ .cfa: $rsp 24 +
STACK CFI 33d09 $r13: .cfa -32 + ^ .cfa: $rsp 32 +
STACK CFI 33d0e $r12: .cfa -40 + ^ .cfa: $rsp 40 +
STACK CFI 33d12 $rbp: .cfa -48 + ^ .cfa: $rsp 48 +
STACK CFI 33d16 $rbx: .cfa -56 + ^ .cfa: $rsp 56 +
STACK CFI 33d1a .cfa: $rsp 96 +
STACK CFI 33d4d .cfa: $rsp 56 +
STACK CFI 33d4e .cfa: $rsp 48 +
STACK CFI 33d4f .cfa: $rsp 40 +
STACK CFI 33d51 .cfa: $rsp 32 +
STACK CFI 33d53 .cfa: $rsp 24 +
STACK CFI 33d55 .cfa: $rsp 16 +
STACK CFI 33d57 .cfa: $rsp 8 +
STACK CFI 33d60 .cfa: $rsp 96 +
STACK CFI 33d64 .cfa: $rsp 56 +
STACK CFI 33d6c .cfa: $rsp 48 +
STACK CFI 33d6d .cfa: $rsp 40 +
STACK CFI 33d6f .cfa: $rsp 32 +
STACK CFI 33d71 .cfa: $rsp 24 +
STACK CFI 33d73 .cfa: $rsp 16 +
STACK CFI 33d75 .cfa: $rsp 8 +
STACK CFI 33d80 .cfa: $rsp 96 +
STACK CFI INIT 33f00 545 .cfa: $rsp 8 + .ra: .cfa -8 + ^
STACK CFI 33f02 $r15: .cfa -16 + ^ .cfa: $rsp 16 +
STACK CFI 33f0d $r14: .cfa -24 + ^ .cfa: $rsp 24 +
STACK CFI 33f0f $r13: .cfa -32 + ^ .cfa: $rsp 32 +
STACK CFI 33f11 $r12: .cfa -40 + ^ .cfa: $rsp 40 +
STACK CFI 33f15 $rbp: .cfa -48 + ^ .cfa: $rsp 48 +
STACK CFI 33f16 $rbx: .cfa -56 + ^ .cfa: $rsp 56 +
STACK CFI 33f1a .cfa: $rsp 160 +
STACK CFI 33f36 .cfa: $rsp 56 +
STACK CFI 33f37 .cfa: $rsp 48 +
STACK CFI 33f38 .cfa: $rsp 40 +
STACK CFI 33f3a .cfa: $rsp 32 +
STACK CFI 33f3c .cfa: $rsp 24 +
STACK CFI 33f3e .cfa: $rsp 16 +
STACK CFI 33f40 .cfa: $rsp 8 +
STACK CFI 33f48 .cfa: $rsp 160 +
STACK CFI 3414b .cfa: $rsp 56 +
STACK CFI 3414c .cfa: $rsp 48 +
STACK CFI 3414d .cfa: $rsp 40 +
STACK CFI 3414f .cfa: $rsp 32 +
STACK CFI 34151 .cfa: $rsp 24 +
STACK CFI 34153 .cfa: $rsp 16 +
STACK CFI 34155 .cfa: $rsp 8 +
STACK CFI 34160 .cfa: $rsp 160 +
STACK CFI INIT 34450 2c9 .cfa: $rsp 8 + .ra: .cfa -8 + ^
STACK CFI 34452 $r15: .cfa -16 + ^ .cfa: $rsp 16 +
STACK CFI 34454 $r14: .cfa -24 + ^ .cfa: $rsp 24 +
STACK CFI 34456 $r13: .cfa -32 + ^ .cfa: $rsp 32 +
STACK CFI 34458 $r12: .cfa -40 + ^ .cfa: $rsp 40 +
STACK CFI 34459 $rbp: .cfa -48 + ^ .cfa: $rsp 48 +
STACK CFI 3445a $rbx: .cfa -56 + ^ .cfa: $rsp 56 +
STACK CFI 34464 .cfa: $rsp 208 +
STACK CFI 34476 .cfa: $rsp 56 +
STACK CFI 34477 .cfa: $rsp 48 +
STACK CFI 34478 .cfa: $rsp 40 +
STACK CFI 3447a .cfa: $rsp 32 +
STACK CFI 3447c .cfa: $rsp 24 +
STACK CFI 3447e .cfa: $rsp 16 +
STACK CFI 34480 .cfa: $rsp 8 +
STACK CFI 34488 .cfa: $rsp 208 +
STACK CFI INIT 34720 c .cfa: $rsp 8 + .ra: .cfa -8 + ^
STACK CFI INIT 263a0 a8 .cfa: $rsp 8 + .ra: .cfa -8 + ^
STACK CFI 263a2 $r13: .cfa -16 + ^ .cfa: $rsp 16 +
STACK CFI 263aa $r12: .cfa -24 + ^ .cfa: $rsp 24 +
STACK CFI 263ae $rbp: .cfa -32 + ^ .cfa: $rsp 32 +
STACK CFI 263af $rbx: .cfa -40 + ^ .cfa: $rsp 40 +
STACK CFI 263b3 .cfa: $rsp 112 +
STACK CFI 2641e .cfa: $rsp 40 +
STACK CFI 2641f .cfa: $rsp 32 +
STACK CFI 26420 .cfa: $rsp 24 +
STACK CFI 26422 .cfa: $rsp 16 +
STACK CFI 26424 .cfa: $rsp 8 +
STACK CFI 26425 .cfa: $rsp 112 +
STACK CFI INIT 26450 10c2 .cfa: $rsp 8 + .ra: .cfa -8 + ^
STACK CFI 26452 $r15: .cfa -16 + ^ .cfa: $rsp 16 +
STACK CFI 26454 $r14: .cfa -24 + ^ .cfa: $rsp 24 +
STACK CFI 26456 $r13: .cfa -32 + ^ .cfa: $rsp 32 +
STACK CFI 26458 $r12: .cfa -40 + ^ .cfa: $rsp 40 +
STACK CFI 26459 $rbp: .cfa -48 + ^ .cfa: $rsp 48 +
STACK CFI 2645c $rbx: .cfa -56 + ^ .cfa: $rsp 56 +
STACK CFI 26466 .cfa: $rsp 720 +
STACK CFI 265a6 .cfa: $rsp 56 +
STACK CFI 265a7 .cfa: $rsp 48 +
STACK CFI 265a8 .cfa: $rsp 40 +
STACK CFI 265aa .cfa: $rsp 32 +
STACK CFI 265ac .cfa: $rsp 24 +
STACK CFI 265ae .cfa: $rsp 16 +
STACK CFI 265b0 .cfa: $rsp 8 +
STACK CFI 265b1 .cfa: $rsp 720 +
STACK CFI INIT 27520 7 .cfa: $rsp 8 + .ra: .cfa -8 + ^
STACK CFI INIT 27530 a .cfa: $rsp 8 + .ra: .cfa -8 + ^
STACK CFI INIT 27540 719 .cfa: $rsp 8 + .ra: .cfa -8 + ^
STACK CFI 27542 $r15: .cfa -16 + ^ .cfa: $rsp 16 +
STACK CFI 27544 $r14: .cfa -24 + ^ .cfa: $rsp 24 +
STACK CFI 27546 $r13: .cfa -32 + ^ .cfa: $rsp 32 +
STACK CFI 2754b $r12: .cfa -40 + ^ .cfa: $rsp 40 +
STACK CFI 2754c $rbp: .cfa -48 + ^ .cfa: $rsp 48 +
STACK CFI 2754d $rbx: .cfa -56 + ^ .cfa: $rsp 56 +
STACK CFI 27556 .cfa: $rsp 448 +
STACK CFI 27a80 .cfa: $rsp 56 +
STACK CFI 27a81 .cfa: $rsp 48 +
STACK CFI 27a82 .cfa: $rsp 40 +
STACK CFI 27a84 .cfa: $rsp 32 +
STACK CFI 27a86 .cfa: $rsp 24 +
STACK CFI 27a88 .cfa: $rsp 16 +
STACK CFI 27a8a .cfa: $rsp 8 +
STACK CFI 27a8b .cfa: $rsp 448 +
STACK CFI INIT 27c60 a8 .cfa: $rsp 8 + .ra: .cfa -8 + ^
STACK CFI 27c62 $r13: .cfa -16 + ^ .cfa: $rsp 16 +
STACK CFI 27c6a $r12: .cfa -24 + ^ .cfa: $rsp 24 +
STACK CFI 27c6e $rbp: .cfa -32 + ^ .cfa: $rsp 32 +
STACK CFI 27c6f $rbx: .cfa -40 + ^ .cfa: $rsp 40 +
STACK CFI 27c73 .cfa: $rsp 112 +
STACK CFI 27cde .cfa: $rsp 40 +
STACK CFI 27cdf .cfa: $rsp 32 +
STACK CFI 27ce0 .cfa: $rsp 24 +
STACK CFI 27ce2 .cfa: $rsp 16 +
STACK CFI 27ce4 .cfa: $rsp 8 +
STACK CFI 27ce5 .cfa: $rsp 112 +
STACK CFI INIT 27d10 598 .cfa: $rsp 8 + .ra: .cfa -8 + ^
STACK CFI 27d12 $r15: .cfa -16 + ^ .cfa: $rsp 16 +
STACK CFI 27d14 $r14: .cfa -24 + ^ .cfa: $rsp 24 +
STACK CFI 27d1c $r13: .cfa -32 + ^ .cfa: $rsp 32 +
STACK CFI 27d21 $r12: .cfa -40 + ^ .cfa: $rsp 40 +
STACK CFI 27d22 $rbp: .cfa -48 + ^ .cfa: $rsp 48 +
STACK CFI 27d23 $rbx: .cfa -56 + ^ .cfa: $rsp 56 +
STACK CFI 27d2a .cfa: $rsp 224 +
STACK CFI 27fca .cfa: $rsp 56 +
STACK CFI 27fcb .cfa: $rsp 48 +
STACK CFI 27fcc .cfa: $rsp 40 +
STACK CFI 27fce .cfa: $rsp 32 +
STACK CFI 27fd0 .cfa: $rsp 24 +
STACK CFI 27fd2 .cfa: $rsp 16 +
STACK CFI 27fd4 .cfa: $rsp 8 +
STACK CFI 27fd8 .cfa: $rsp 224 +
STACK CFI INIT 282b0 182 .cfa: $rsp 8 + .ra: .cfa -8 + ^
STACK CFI 282b2 $r15: .cfa -16 + ^ .cfa: $rsp 16 +
STACK CFI 282b7 $r14: .cfa -24 + ^ .cfa: $rsp 24 +
STACK CFI 282b9 $r13: .cfa -32 + ^ .cfa: $rsp 32 +
STACK CFI 282bb $r12: .cfa -40 + ^ .cfa: $rsp 40 +
STACK CFI 282bc $rbp: .cfa -48 + ^ .cfa: $rsp 48 +
STACK CFI 282bd $rbx: .cfa -56 + ^ .cfa: $rsp 56 +
STACK CFI 282c1 .cfa: $rsp 112 +
STACK CFI 283d4 .cfa: $rsp 56 +
STACK CFI 283d5 .cfa: $rsp 48 +
STACK CFI 283d6 .cfa: $rsp 40 +
STACK CFI 283d8 .cfa: $rsp 32 +
STACK CFI 283da .cfa: $rsp 24 +
STACK CFI 283dc .cfa: $rsp 16 +
STACK CFI 283de .cfa: $rsp 8 +
STACK CFI 283e0 .cfa: $rsp 112 +
STACK CFI INIT 28440 1a5 .cfa: $rsp 8 + .ra: .cfa -8 + ^
STACK CFI 28442 $r14: .cfa -16 + ^ .cfa: $rsp 16 +
STACK CFI 28447 $r13: .cfa -24 + ^ .cfa: $rsp 24 +
STACK CFI 2844c $r12: .cfa -32 + ^ .cfa: $rsp 32 +
STACK CFI 2844d $rbp: .cfa -40 + ^ .cfa: $rsp 40 +
STACK CFI 2844e $rbx: .cfa -48 + ^ .cfa: $rsp 48 +
STACK CFI 28452 .cfa: $rsp 144 +
STACK CFI 28508 .cfa: $rsp 48 +
STACK CFI 28509 .cfa: $rsp 40 +
STACK CFI 2850a .cfa: $rsp 32 +
STACK CFI 2850c .cfa: $rsp 24 +
STACK CFI 2850e .cfa: $rsp 16 +
STACK CFI 28510 .cfa: $rsp 8 +
STACK CFI 28518 .cfa: $rsp 144 +
STACK CFI INIT 285f0 606 .cfa: $rsp 8 + .ra: .cfa -8 + ^
STACK CFI 285f2 $r15: .cfa -16 + ^ .cfa: $rsp 16 +
STACK CFI 285f7 $r14: .cfa -24 + ^ .cfa: $rsp 24 +
STACK CFI 285f9 $r13: .cfa -32 + ^ .cfa: $rsp 32 +
STACK CFI 285fb $r12: .cfa -40 + ^ .cfa: $rsp 40 +
STACK CFI 285fc $rbp: .cfa -48 + ^ .cfa: $rsp 48 +
STACK CFI 285fd $rbx: .cfa -56 + ^ .cfa: $rsp 56 +
STACK CFI 28604 .cfa: $rsp 320 +
STACK CFI 286e9 .cfa: $rsp 56 +
STACK CFI 286ea .cfa: $rsp 48 +
STACK CFI 286eb .cfa: $rsp 40 +
STACK CFI 286ed .cfa: $rsp 32 +
STACK CFI 286ef .cfa: $rsp 24 +
STACK CFI 286f1 .cfa: $rsp 16 +
STACK CFI 286f3 .cfa: $rsp 8 +
STACK CFI 286f8 .cfa: $rsp 320 +
STACK CFI INIT 28c00 e9 .cfa: $rsp 8 + .ra: .cfa -8 + ^
STACK CFI 28c02 $r14: .cfa -16 + ^ .cfa: $rsp 16 +
STACK CFI 28c07 $r13: .cfa -24 + ^ .cfa: $rsp 24 +
STACK CFI 28c09 $r12: .cfa -32 + ^ .cfa: $rsp 32 +
STACK CFI 28c0a $rbp: .cfa -40 + ^ .cfa: $rsp 40 +
STACK CFI 28c0b $rbx: .cfa -48 + ^ .cfa: $rsp 48 +
STACK CFI 28c0f .cfa: $rsp 160 +
STACK CFI 28ca5 .cfa: $rsp 48 +
STACK CFI 28ca6 .cfa: $rsp 40 +
STACK CFI 28ca7 .cfa: $rsp 32 +
STACK CFI 28ca9 .cfa: $rsp 24 +
STACK CFI 28cab .cfa: $rsp 16 +
STACK CFI 28cad .cfa: $rsp 8 +
STACK CFI 28cae .cfa: $rsp 160 +
STACK CFI INIT 34730 60 .cfa: $rsp 8 + .ra: .cfa -8 + ^
STACK CFI 34731 $rbx: .cfa -16 + ^ .cfa: $rsp 16 +
STACK CFI 34763 .cfa: $rsp 8 +
STACK CFI 34768 .cfa: $rsp 16 +
STACK CFI 3478f .cfa: $rsp 8 +
STACK CFI INIT 34790 60 .cfa: $rsp 8 + .ra: .cfa -8 + ^
STACK CFI 34791 $rbx: .cfa -16 + ^ .cfa: $rsp 16 +
STACK CFI 347c3 .cfa: $rsp 8 +
STACK CFI 347c8 .cfa: $rsp 16 +
STACK CFI 347ef .cfa: $rsp 8 +
STACK CFI INIT 347f0 34 .cfa: $rsp 8 + .ra: .cfa -8 + ^
STACK CFI 347f1 $rbx: .cfa -16 + ^ .cfa: $rsp 16 +
STACK CFI 34823 .cfa: $rsp 8 +
STACK CFI INIT 388d0 76 .cfa: $rsp 8 + .ra: .cfa -8 + ^
STACK CFI INIT 38950 76 .cfa: $rsp 8 + .ra: .cfa -8 + ^
STACK CFI INIT 389d0 76 .cfa: $rsp 8 + .ra: .cfa -8 + ^
STACK CFI INIT 38a50 76 .cfa: $rsp 8 + .ra: .cfa -8 + ^
STACK CFI INIT 34830 171 .cfa: $rsp 8 + .ra: .cfa -8 + ^
STACK CFI 34832 $r12: .cfa -16 + ^ .cfa: $rsp 16 +
STACK CFI 34833 $rbp: .cfa -24 + ^ .cfa: $rsp 24 +
STACK CFI 34834 $rbx: .cfa -32 + ^ .cfa: $rsp 32 +
STACK CFI 34838 .cfa: $rsp 48 +
STACK CFI 348eb .cfa: $rsp 32 +
STACK CFI 348ec .cfa: $rsp 24 +
STACK CFI 348ed .cfa: $rsp 16 +
STACK CFI 348ef .cfa: $rsp 8 +
STACK CFI 348f0 .cfa: $rsp 48 +
STACK CFI 3491a .cfa: $rsp 32 +
STACK CFI 3491b .cfa: $rsp 24 +
STACK CFI 3491c .cfa: $rsp 16 +
STACK CFI 3491e .cfa: $rsp 8 +
STACK CFI 34920 .cfa: $rsp 48 +
STACK CFI INIT 349b0 76 .cfa: $rsp 8 + .ra: .cfa -8 + ^
STACK CFI 349b2 $r12: .cfa -16 + ^ .cfa: $rsp 16 +
STACK CFI 349b6 $rbp: .cfa -24 + ^ .cfa: $rsp 24 +
STACK CFI 349b7 $rbx: .cfa -32 + ^ .cfa: $rsp 32 +
STACK CFI 34a11 .cfa: $rsp 24 +
STACK CFI 34a12 .cfa: $rsp 16 +
STACK CFI 34a21 .cfa: $rsp 8 +
STACK CFI INIT 34a30 4fd .cfa: $rsp 8 + .ra: .cfa -8 + ^
STACK CFI 34a32 $r15: .cfa -16 + ^ .cfa: $rsp 16 +
STACK CFI 34a3b $r14: .cfa -24 + ^ .cfa: $rsp 24 +
STACK CFI 34a3d $r13: .cfa -32 + ^ .cfa: $rsp 32 +
STACK CFI 34a3f $r12: .cfa -40 + ^ .cfa: $rsp 40 +
STACK CFI 34a43 $rbp: .cfa -48 + ^ .cfa: $rsp 48 +
STACK CFI 34a44 $rbx: .cfa -56 + ^ .cfa: $rsp 56 +
STACK CFI 34a48 .cfa: $rsp 128 +
STACK CFI 34dc6 .cfa: $rsp 56 +
STACK CFI 34dc7 .cfa: $rsp 48 +
STACK CFI 34dc8 .cfa: $rsp 40 +
STACK CFI 34dca .cfa: $rsp 32 +
STACK CFI 34dcc .cfa: $rsp 24 +
STACK CFI 34dce .cfa: $rsp 16 +
STACK CFI 34dd0 .cfa: $rsp 8 +
STACK CFI 34dd8 .cfa: $rsp 128 +
STACK CFI INIT 38ad0 140d .cfa: $rsp 8 + .ra: .cfa -8 + ^
STACK CFI 38ad2 $r15: .cfa -16 + ^ .cfa: $rsp 16 +
STACK CFI 38ad4 $r14: .cfa -24 + ^ .cfa: $rsp 24 +
STACK CFI 38ad6 $r13: .cfa -32 + ^ .cfa: $rsp 32 +
STACK CFI 38ad8 $r12: .cfa -40 + ^ .cfa: $rsp 40 +
STACK CFI 38adc $rbp: .cfa -48 + ^ .cfa: $rsp 48 +
STACK CFI 38add $rbx: .cfa -56 + ^ .cfa: $rsp 56 +
STACK CFI 38ae7 .cfa: $rsp 464 +
STACK CFI 397a6 .cfa: $rsp 56 +
STACK CFI 397a7 .cfa: $rsp 48 +
STACK CFI 397a8 .cfa: $rsp 40 +
STACK CFI 397aa .cfa: $rsp 32 +
STACK CFI 397ac .cfa: $rsp 24 +
STACK CFI 397ae .cfa: $rsp 16 +
STACK CFI 397b0 .cfa: $rsp 8 +
STACK CFI 397b8 .cfa: $rsp 464 +
STACK CFI INIT 34f30 6 .cfa: $rsp 8 + .ra: .cfa -8 + ^
STACK CFI INIT 34f40 75 .cfa: $rsp 8 + .ra: .cfa -8 + ^
STACK CFI 34f41 $rbp: .cfa -16 + ^ .cfa: $rsp 16 +
STACK CFI 34f45 $rbx: .cfa -24 + ^ .cfa: $rsp 24 +
STACK CFI 34f49 .cfa: $rsp 48 +
STACK CFI 34fb2 .cfa: $rsp 24 +
STACK CFI 34fb3 .cfa: $rsp 16 +
STACK CFI 34fb4 .cfa: $rsp 8 +
STACK CFI INIT 34fc0 ac .cfa: $rsp 8 + .ra: .cfa -8 + ^
STACK CFI 34fc2 $r12: .cfa -16 + ^ .cfa: $rsp 16 +
STACK CFI 34fc3 $rbp: .cfa -24 + ^ .cfa: $rsp 24 +
STACK CFI 34fc7 $rbx: .cfa -32 + ^ .cfa: $rsp 32 +
STACK CFI 34fcb .cfa: $rsp 64 +
STACK CFI 35017 .cfa: $rsp 32 +
STACK CFI 35018 .cfa: $rsp 24 +
STACK CFI 35019 .cfa: $rsp 16 +
STACK CFI 3501b .cfa: $rsp 8 +
STACK CFI 35020 .cfa: $rsp 64 +
STACK CFI 35054 .cfa: $rsp 32 +
STACK CFI 35055 .cfa: $rsp 24 +
STACK CFI 35056 .cfa: $rsp 16 +
STACK CFI 35058 .cfa: $rsp 8 +
STACK CFI 35059 .cfa: $rsp 64 +
STACK CFI INIT 35070 15 .cfa: $rsp 8 + .ra: .cfa -8 + ^
STACK CFI INIT 35090 34c .cfa: $rsp 8 + .ra: .cfa -8 + ^
STACK CFI 35092 $r14: .cfa -16 + ^ .cfa: $rsp 16 +
STACK CFI 35098 $r13: .cfa -24 + ^ .cfa: $rsp 24 +
STACK CFI 3509a $r12: .cfa -32 + ^ .cfa: $rsp 32 +
STACK CFI 3509b $rbp: .cfa -40 + ^ .cfa: $rsp 40 +
STACK CFI 3509f $rbx: .cfa -48 + ^ .cfa: $rsp 48 +
STACK CFI 350a3 .cfa: $rsp 128 +
STACK CFI 351e4 .cfa: $rsp 48 +
STACK CFI 351e5 .cfa: $rsp 40 +
STACK CFI 351e6 .cfa: $rsp 32 +
STACK CFI 351e8 .cfa: $rsp 24 +
STACK CFI 351ea .cfa: $rsp 16 +
STACK CFI 351ec .cfa: $rsp 8 +
STACK CFI 351f0 .cfa: $rsp 128 +
STACK CFI INIT 353e0 2e .cfa: $rsp 8 + .ra: .cfa -8 + ^
STACK CFI 353e1 $rbx: .cfa -16 + ^ .cfa: $rsp 16 +
STACK CFI 35405 .cfa: $rsp 8 +
STACK CFI INIT 39ee0 ca .cfa: $rsp 8 + .ra: .cfa -8 + ^
STACK CFI 39ee2 $r15: .cfa -16 + ^ .cfa: $rsp 16 +
STACK CFI 39ee4 $r14: .cfa -24 + ^ .cfa: $rsp 24 +
STACK CFI 39ee9 $r13: .cfa -32 + ^ .cfa: $rsp 32 +
STACK CFI 39eeb $r12: .cfa -40 + ^ .cfa: $rsp 40 +
STACK CFI 39eec $rbp: .cfa -48 + ^ .cfa: $rsp 48 +
STACK CFI 39eed $rbx: .cfa -56 + ^ .cfa: $rsp 56 +
STACK CFI 39ef4 .cfa: $rsp 64 +
STACK CFI 39f9c .cfa: $rsp 56 +
STACK CFI 39fa0 .cfa: $rsp 48 +
STACK CFI 39fa1 .cfa: $rsp 40 +
STACK CFI 39fa3 .cfa: $rsp 32 +
STACK CFI 39fa5 .cfa: $rsp 24 +
STACK CFI 39fa7 .cfa: $rsp 16 +
STACK CFI 39fa9 .cfa: $rsp 8 +
STACK CFI INIT 35410 f6 .cfa: $rsp 8 + .ra: .cfa -8 + ^
STACK CFI 35411 $rbp: .cfa -16 + ^ .cfa: $rsp 16 +
STACK CFI 35412 $rbx: .cfa -24 + ^ .cfa: $rsp 24 +
STACK CFI 35419 .cfa: $rsp 32 +
STACK CFI 354a2 .cfa: $rsp 24 +
STACK CFI 354a6 .cfa: $rsp 16 +
STACK CFI 354a7 .cfa: $rsp 8 +
STACK CFI 354b0 .cfa: $rsp 32 +
STACK CFI INIT 35510 9 .cfa: $rsp 8 + .ra: .cfa -8 + ^
STACK CFI INIT 35520 12 .cfa: $rsp 8 + .ra: .cfa -8 + ^
STACK CFI 35521 $rbx: .cfa -16 + ^ .cfa: $rsp 16 +
STACK CFI 3552d .cfa: $rsp 8 +
STACK CFI INIT 35540 6 .cfa: $rsp 8 + .ra: .cfa -8 + ^
STACK CFI INIT 35550 3f2 .cfa: $rsp 8 + .ra: .cfa -8 + ^
STACK CFI 35552 $r13: .cfa -16 + ^ .cfa: $rsp 16 +
STACK CFI 35554 $r12: .cfa -24 + ^ .cfa: $rsp 24 +
STACK CFI 35555 $rbp: .cfa -32 + ^ .cfa: $rsp 32 +
STACK CFI 3555e $rbx: .cfa -40 + ^ .cfa: $rsp 40 +
STACK CFI 35565 .cfa: $rsp 128 +
STACK CFI 35838 .cfa: $rsp 40 +
STACK CFI 35839 .cfa: $rsp 32 +
STACK CFI 3583a .cfa: $rsp 24 +
STACK CFI 3583c .cfa: $rsp 16 +
STACK CFI 3583e .cfa: $rsp 8 +
STACK CFI 35840 .cfa: $rsp 128 +
STACK CFI INIT 39fb0 87 .cfa: $rsp 8 + .ra: .cfa -8 + ^
STACK CFI 39fb1 $rbp: .cfa -16 + ^ .cfa: $rsp 16 +
STACK CFI 39fb2 $rbx: .cfa -24 + ^ .cfa: $rsp 24 +
STACK CFI 39fb9 .cfa: $rsp 32 +
STACK CFI 3a003 .cfa: $rsp 24 +
STACK CFI 3a004 .cfa: $rsp 16 +
STACK CFI 3a005 .cfa: $rsp 8 +
STACK CFI 3a010 .cfa: $rsp 32 +
STACK CFI 3a034 .cfa: $rsp 24 +
STACK CFI 3a035 .cfa: $rsp 16 +
STACK CFI 3a036 .cfa: $rsp 8 +
STACK CFI INIT 35950 a4 .cfa: $rsp 8 + .ra: .cfa -8 + ^
STACK CFI 35952 $r12: .cfa -16 + ^ .cfa: $rsp 16 +
STACK CFI 35958 $rbp: .cfa -24 + ^ .cfa: $rsp 24 +
STACK CFI 3595c $rbx: .cfa -32 + ^ .cfa: $rsp 32 +
STACK CFI 35963 .cfa: $rsp 48 +
STACK CFI 359d9 .cfa: $rsp 32 +
STACK CFI 359dd .cfa: $rsp 24 +
STACK CFI 359de .cfa: $rsp 16 +
STACK CFI 359e0 .cfa: $rsp 8 +
STACK CFI 359e1 .cfa: $rsp 48 +
STACK CFI INIT 35a00 272 .cfa: $rsp 8 + .ra: .cfa -8 + ^
STACK CFI 35a02 $r13: .cfa -16 + ^ .cfa: $rsp 16 +
STACK CFI 35a07 $r12: .cfa -24 + ^ .cfa: $rsp 24 +
STACK CFI 35a08 $rbp: .cfa -32 + ^ .cfa: $rsp 32 +
STACK CFI 35a09 $rbx: .cfa -40 + ^ .cfa: $rsp 40 +
STACK CFI 35a0d .cfa: $rsp 48 +
STACK CFI 35a17 .cfa: $rsp 40 +
STACK CFI 35a18 .cfa: $rsp 32 +
STACK CFI 35a19 .cfa: $rsp 24 +
STACK CFI 35a1b .cfa: $rsp 16 +
STACK CFI 35a1d .cfa: $rsp 8 +
STACK CFI 35a20 .cfa: $rsp 48 +
STACK CFI 35b84 .cfa: $rsp 40 +
STACK CFI 35b85 .cfa: $rsp 32 +
STACK CFI 35b86 .cfa: $rsp 24 +
STACK CFI 35b88 .cfa: $rsp 16 +
STACK CFI 35b8a .cfa: $rsp 8 +
STACK CFI 35b90 .cfa: $rsp 48 +
STACK CFI INIT 35c80 2fc .cfa: $rsp 8 + .ra: .cfa -8 + ^
STACK CFI 35c82 $r13: .cfa -16 + ^ .cfa: $rsp 16 +
STACK CFI 35c87 $r12: .cfa -24 + ^ .cfa: $rsp 24 +
STACK CFI 35c88 $rbp: .cfa -32 + ^ .cfa: $rsp 32 +
STACK CFI 35c89 $rbx: .cfa -40 + ^ .cfa: $rsp 40 +
STACK CFI 35c8d .cfa: $rsp 48 +
STACK CFI 35c97 .cfa: $rsp 40 +
STACK CFI 35c98 .cfa: $rsp 32 +
STACK CFI 35c99 .cfa: $rsp 24 +
STACK CFI 35c9b .cfa: $rsp 16 +
STACK CFI 35c9d .cfa: $rsp 8 +
STACK CFI 35ca0 .cfa: $rsp 48 +
STACK CFI 35e3d .cfa: $rsp 40 +
STACK CFI 35e3e .cfa: $rsp 32 +
STACK CFI 35e3f .cfa: $rsp 24 +
STACK CFI 35e41 .cfa: $rsp 16 +
STACK CFI 35e43 .cfa: $rsp 8 +
STACK CFI 35e50 .cfa: $rsp 48 +
STACK CFI INIT 35f80 230 .cfa: $rsp 8 + .ra: .cfa -8 + ^
STACK CFI 35f82 $r15: .cfa -16 + ^ .cfa: $rsp 16 +
STACK CFI 35f84 $r14: .cfa -24 + ^ .cfa: $rsp 24 +
STACK CFI 35f86 $r13: .cfa -32 + ^ .cfa: $rsp 32 +
STACK CFI 35f88 $r12: .cfa -40 + ^ .cfa: $rsp 40 +
STACK CFI 35f89 $rbp: .cfa -48 + ^ .cfa: $rsp 48 +
STACK CFI 35f8a $rbx: .cfa -56 + ^ .cfa: $rsp 56 +
STACK CFI 35f94 .cfa: $rsp 128 +
STACK CFI 360fa .cfa: $rsp 56 +
STACK CFI 360fb .cfa: $rsp 48 +
STACK CFI 360fc .cfa: $rsp 40 +
STACK CFI 360fe .cfa: $rsp 32 +
STACK CFI 36100 .cfa: $rsp 24 +
STACK CFI 36102 .cfa: $rsp 16 +
STACK CFI 36104 .cfa: $rsp 8 +
STACK CFI 36108 .cfa: $rsp 128 +
STACK CFI INIT 361b0 35f .cfa: $rsp 8 + .ra: .cfa -8 + ^
STACK CFI 361b2 $r13: .cfa -16 + ^ .cfa: $rsp 16 +
STACK CFI 361b4 $r12: .cfa -24 + ^ .cfa: $rsp 24 +
STACK CFI 361b5 $rbp: .cfa -32 + ^ .cfa: $rsp 32 +
STACK CFI 361b6 $rbx: .cfa -40 + ^ .cfa: $rsp 40 +
STACK CFI 361bd .cfa: $rsp 64 +
STACK CFI 36268 .cfa: $rsp 40 +
STACK CFI 36269 .cfa: $rsp 32 +
STACK CFI 3626a .cfa: $rsp 24 +
STACK CFI 3626c .cfa: $rsp 16 +
STACK CFI 3626e .cfa: $rsp 8 +
STACK CFI 36270 .cfa: $rsp 64 +
STACK CFI INIT 3a040 1bb .cfa: $rsp 8 + .ra: .cfa -8 + ^
STACK CFI 3a042 $r13: .cfa -16 + ^ .cfa: $rsp 16 +
STACK CFI 3a044 $r12: .cfa -24 + ^ .cfa: $rsp 24 +
STACK CFI 3a048 $rbp: .cfa -32 + ^ .cfa: $rsp 32 +
STACK CFI 3a04c $rbx: .cfa -40 + ^ .cfa: $rsp 40 +
STACK CFI 3a050 .cfa: $rsp 48 +
STACK CFI 3a0ed .cfa: $rsp 40 +
STACK CFI 3a0ee .cfa: $rsp 32 +
STACK CFI 3a0ef .cfa: $rsp 24 +
STACK CFI 3a0f1 .cfa: $rsp 16 +
STACK CFI 3a0f3 .cfa: $rsp 8 +
STACK CFI 3a0f8 .cfa: $rsp 48 +
STACK CFI 3a125 .cfa: $rsp 40 +
STACK CFI 3a126 .cfa: $rsp 32 +
STACK CFI 3a127 .cfa: $rsp 24 +
STACK CFI 3a129 .cfa: $rsp 16 +
STACK CFI 3a12b .cfa: $rsp 8 +
STACK CFI 3a12c .cfa: $rsp 48 +
STACK CFI INIT 3a200 a2 .cfa: $rsp 8 + .ra: .cfa -8 + ^
STACK CFI 3a201 $rbx: .cfa -16 + ^ .cfa: $rsp 16 +
STACK CFI 3a208 .cfa: $rsp 32 +
STACK CFI 3a269 .cfa: $rsp 16 +
STACK CFI 3a26a .cfa: $rsp 8 +
STACK CFI 3a270 .cfa: $rsp 32 +
STACK CFI 3a2a0 .cfa: $rsp 16 +
STACK CFI 3a2a1 .cfa: $rsp 8 +
STACK CFI INIT 36510 119 .cfa: $rsp 8 + .ra: .cfa -8 + ^
STACK CFI 36512 $r14: .cfa -16 + ^ .cfa: $rsp 16 +
STACK CFI 3651c $r13: .cfa -24 + ^ .cfa: $rsp 24 +
STACK CFI 3651e $r12: .cfa -32 + ^ .cfa: $rsp 32 +
STACK CFI 3651f $rbp: .cfa -40 + ^ .cfa: $rsp 40 +
STACK CFI 36523 $rbx: .cfa -48 + ^ .cfa: $rsp 48 +
STACK CFI 36527 .cfa: $rsp 64 +
STACK CFI 365dc .cfa: $rsp 48 +
STACK CFI 365e0 .cfa: $rsp 40 +
STACK CFI 365e1 .cfa: $rsp 32 +
STACK CFI 365e3 .cfa: $rsp 24 +
STACK CFI 365e5 .cfa: $rsp 16 +
STACK CFI 365e7 .cfa: $rsp 8 +
STACK CFI 365f0 .cfa: $rsp 64 +
STACK CFI 3660a .cfa: $rsp 48 +
STACK CFI 3660e .cfa: $rsp 40 +
STACK CFI 3660f .cfa: $rsp 32 +
STACK CFI 36611 .cfa: $rsp 24 +
STACK CFI 36613 .cfa: $rsp 16 +
STACK CFI 36615 .cfa: $rsp 8 +
STACK CFI 36616 .cfa: $rsp 64 +
STACK CFI INIT 36630 182 .cfa: $rsp 8 + .ra: .cfa -8 + ^
STACK CFI 36632 $r15: .cfa -16 + ^ .cfa: $rsp 16 +
STACK CFI 36634 $r14: .cfa -24 + ^ .cfa: $rsp 24 +
STACK CFI 36636 $r13: .cfa -32 + ^ .cfa: $rsp 32 +
STACK CFI 3663b $r12: .cfa -40 + ^ .cfa: $rsp 40 +
STACK CFI 3663c $rbp: .cfa -48 + ^ .cfa: $rsp 48 +
STACK CFI 3663d $rbx: .cfa -56 + ^ .cfa: $rsp 56 +
STACK CFI 36641 .cfa: $rsp 128 +
STACK CFI 3676c .cfa: $rsp 56 +
STACK CFI 36770 .cfa: $rsp 48 +
STACK CFI 36771 .cfa: $rsp 40 +
STACK CFI 36773 .cfa: $rsp 32 +
STACK CFI 36775 .cfa: $rsp 24 +
STACK CFI 36777 .cfa: $rsp 16 +
STACK CFI 36779 .cfa: $rsp 8 +
STACK CFI 3677a .cfa: $rsp 128 +
STACK CFI INIT 367c0 16c .cfa: $rsp 8 + .ra: .cfa -8 + ^
STACK CFI 367c2 $r14: .cfa -16 + ^ .cfa: $rsp 16 +
STACK CFI 367c4 $r13: .cfa -24 + ^ .cfa: $rsp 24 +
STACK CFI 367c9 $r12: .cfa -32 + ^ .cfa: $rsp 32 +
STACK CFI 367ca $rbp: .cfa -40 + ^ .cfa: $rsp 40 +
STACK CFI 367cb $rbx: .cfa -48 + ^ .cfa: $rsp 48 +
STACK CFI 367cf .cfa: $rsp 96 +
STACK CFI 368ab .cfa: $rsp 48 +
STACK CFI 368ac .cfa: $rsp 40 +
STACK CFI 368ad .cfa: $rsp 32 +
STACK CFI 368af .cfa: $rsp 24 +
STACK CFI 368b1 .cfa: $rsp 16 +
STACK CFI 368b3 .cfa: $rsp 8 +
STACK CFI 368b8 .cfa: $rsp 96 +
STACK CFI INIT 36930 105 .cfa: $rsp 8 + .ra: .cfa -8 + ^
STACK CFI 36932 $r13: .cfa -16 + ^ .cfa: $rsp 16 +
STACK CFI 36937 $r12: .cfa -24 + ^ .cfa: $rsp 24 +
STACK CFI 36938 $rbp: .cfa -32 + ^ .cfa: $rsp 32 +
STACK CFI 36939 $rbx: .cfa -40 + ^ .cfa: $rsp 40 +
STACK CFI 3693d .cfa: $rsp 64 +
STACK CFI 36a2e .cfa: $rsp 40 +
STACK CFI 36a2f .cfa: $rsp 32 +
STACK CFI 36a30 .cfa: $rsp 24 +
STACK CFI 36a32 .cfa: $rsp 16 +
STACK CFI 36a34 .cfa: $rsp 8 +
STACK CFI INIT 36a40 394 .cfa: $rsp 8 + .ra: .cfa -8 + ^
STACK CFI 36a42 $r15: .cfa -16 + ^ .cfa: $rsp 16 +
STACK CFI 36a47 $r14: .cfa -24 + ^ .cfa: $rsp 24 +
STACK CFI 36a49 $r13: .cfa -32 + ^ .cfa: $rsp 32 +
STACK CFI 36a4b $r12: .cfa -40 + ^ .cfa: $rsp 40 +
STACK CFI 36a4c $rbp: .cfa -48 + ^ .cfa: $rsp 48 +
STACK CFI 36a4d $rbx: .cfa -56 + ^ .cfa: $rsp 56 +
STACK CFI 36a51 .cfa: $rsp 128 +
STACK CFI 36c04 .cfa: $rsp 56 +
STACK CFI 36c05 .cfa: $rsp 48 +
STACK CFI 36c06 .cfa: $rsp 40 +
STACK CFI 36c08 .cfa: $rsp 32 +
STACK CFI 36c0a .cfa: $rsp 24 +
STACK CFI 36c0c .cfa: $rsp 16 +
STACK CFI 36c0e .cfa: $rsp 8 +
STACK CFI 36c10 .cfa: $rsp 128 +
STACK CFI INIT 36de0 582 .cfa: $rsp 8 + .ra: .cfa -8 + ^
STACK CFI 36de2 $r15: .cfa -16 + ^ .cfa: $rsp 16 +
STACK CFI 36de4 $r14: .cfa -24 + ^ .cfa: $rsp 24 +
STACK CFI 36de6 $r13: .cfa -32 + ^ .cfa: $rsp 32 +
STACK CFI 36de8 $r12: .cfa -40 + ^ .cfa: $rsp 40 +
STACK CFI 36de9 $rbp: .cfa -48 + ^ .cfa: $rsp 48 +
STACK CFI 36dea $rbx: .cfa -56 + ^ .cfa: $rsp 56 +
STACK CFI 36dee .cfa: $rsp 176 +
STACK CFI 372f7 .cfa: $rsp 56 +
STACK CFI 372f8 .cfa: $rsp 48 +
STACK CFI 372f9 .cfa: $rsp 40 +
STACK CFI 372fb .cfa: $rsp 32 +
STACK CFI 372fd .cfa: $rsp 24 +
STACK CFI 372ff .cfa: $rsp 16 +
STACK CFI 37301 .cfa: $rsp 8 +
STACK CFI 37302 .cfa: $rsp 176 +
STACK CFI INIT 37370 56a .cfa: $rsp 8 + .ra: .cfa -8 + ^
STACK CFI 37372 $r15: .cfa -16 + ^ .cfa: $rsp 16 +
STACK CFI 37377 $r14: .cfa -24 + ^ .cfa: $rsp 24 +
STACK CFI 37379 $r13: .cfa -32 + ^ .cfa: $rsp 32 +
STACK CFI 3737b $r12: .cfa -40 + ^ .cfa: $rsp 40 +
STACK CFI 3737c $rbp: .cfa -48 + ^ .cfa: $rsp 48 +
STACK CFI 3737d $rbx: .cfa -56 + ^ .cfa: $rsp 56 +
STACK CFI 37381 .cfa: $rsp 160 +
STACK CFI 37698 .cfa: $rsp 56 +
STACK CFI 37699 .cfa: $rsp 48 +
STACK CFI 3769a .cfa: $rsp 40 +
STACK CFI 3769c .cfa: $rsp 32 +
STACK CFI 3769e .cfa: $rsp 24 +
STACK CFI 376a0 .cfa: $rsp 16 +
STACK CFI 376a2 .cfa: $rsp 8 +
STACK CFI 376a3 .cfa: $rsp 160 +
STACK CFI INIT 20990 95 .cfa: $rsp 8 + .ra: .cfa -8 + ^
STACK CFI 2099b .cfa: $rsp 16 +
STACK CFI 20a20 .cfa: $rsp 8 +
STACK CFI INIT 378e0 632 .cfa: $rsp 8 + .ra: .cfa -8 + ^
STACK CFI 378e2 $r15: .cfa -16 + ^ .cfa: $rsp 16 +
STACK CFI 378e4 $r14: .cfa -24 + ^ .cfa: $rsp 24 +
STACK CFI 378ed $r13: .cfa -32 + ^ .cfa: $rsp 32 +
STACK CFI 378ef $r12: .cfa -40 + ^ .cfa: $rsp 40 +
STACK CFI 378f0 $rbp: .cfa -48 + ^ .cfa: $rsp 48 +
STACK CFI 378f1 $rbx: .cfa -56 + ^ .cfa: $rsp 56 +
STACK CFI 378fc .cfa: $rsp 320 +
STACK CFI 37ea3 .cfa: $rsp 56 +
STACK CFI 37ea4 .cfa: $rsp 48 +
STACK CFI 37ea5 .cfa: $rsp 40 +
STACK CFI 37ea7 .cfa: $rsp 32 +
STACK CFI 37ea9 .cfa: $rsp 24 +
STACK CFI 37eab .cfa: $rsp 16 +
STACK CFI 37ead .cfa: $rsp 8 +
STACK CFI 37eb0 .cfa: $rsp 320 +
STACK CFI INIT 37f20 51 .cfa: $rsp 8 + .ra: .cfa -8 + ^
STACK CFI 37f21 $rbp: .cfa -16 + ^ .cfa: $rsp 16 +
STACK CFI 37f28 $rbx: .cfa -24 + ^ .cfa: $rsp 24 +
STACK CFI 37f2f .cfa: $rsp 32 +
STACK CFI 37f5b .cfa: $rsp 24 +
STACK CFI 37f5c .cfa: $rsp 16 +
STACK CFI 37f5d .cfa: $rsp 8 +
STACK CFI 37f5e .cfa: $rsp 32 +
STACK CFI INIT 37f80 24a .cfa: $rsp 8 + .ra: .cfa -8 + ^
STACK CFI 37f82 $r15: .cfa -16 + ^ .cfa: $rsp 16 +
STACK CFI 37f84 $r14: .cfa -24 + ^ .cfa: $rsp 24 +
STACK CFI 37f8c $r13: .cfa -32 + ^ .cfa: $rsp 32 +
STACK CFI 37f91 $r12: .cfa -40 + ^ .cfa: $rsp 40 +
STACK CFI 37f95 $rbp: .cfa -48 + ^ .cfa: $rsp 48 +
STACK CFI 37f96 $rbx: .cfa -56 + ^ .cfa: $rsp 56 +
STACK CFI 37f9d .cfa: $rsp 64 +
STACK CFI 38080 .cfa: $rsp 56 +
STACK CFI 38081 .cfa: $rsp 48 +
STACK CFI 38082 .cfa: $rsp 40 +
STACK CFI 38084 .cfa: $rsp 32 +
STACK CFI 38086 .cfa: $rsp 24 +
STACK CFI 38088 .cfa: $rsp 16 +
STACK CFI 3808a .cfa: $rsp 8 +
STACK CFI 38090 .cfa: $rsp 64 +
STACK CFI INIT 381d0 fc .cfa: $rsp 8 + .ra: .cfa -8 + ^
STACK CFI 381d2 $r13: .cfa -16 + ^ .cfa: $rsp 16 +
STACK CFI 381d4 $r12: .cfa -24 + ^ .cfa: $rsp 24 +
STACK CFI 381d5 $rbp: .cfa -32 + ^ .cfa: $rsp 32 +
STACK CFI 381d9 $rbx: .cfa -40 + ^ .cfa: $rsp 40 +
STACK CFI 381df .cfa: $rsp 96 +
STACK CFI 38267 .cfa: $rsp 40 +
STACK CFI 38268 .cfa: $rsp 32 +
STACK CFI 38269 .cfa: $rsp 24 +
STACK CFI 3826b .cfa: $rsp 16 +
STACK CFI 3826d .cfa: $rsp 8 +
STACK CFI 38270 .cfa: $rsp 96 +
STACK CFI INIT 382d0 5f2 .cfa: $rsp 8 + .ra: .cfa -8 + ^
STACK CFI 382d2 $r15: .cfa -16 + ^ .cfa: $rsp 16 +
STACK CFI 382d4 $r14: .cfa -24 + ^ .cfa: $rsp 24 +
STACK CFI 382d6 $r13: .cfa -32 + ^ .cfa: $rsp 32 +
STACK CFI 382d8 $r12: .cfa -40 + ^ .cfa: $rsp 40 +
STACK CFI 382dc $rbp: .cfa -48 + ^ .cfa: $rsp 48 +
STACK CFI 382dd $rbx: .cfa -56 + ^ .cfa: $rsp 56 +
STACK CFI 382e8 .cfa: $rsp 224 +
STACK CFI 3851e .cfa: $rsp 56 +
STACK CFI 3851f .cfa: $rsp 48 +
STACK CFI 38520 .cfa: $rsp 40 +
STACK CFI 38522 .cfa: $rsp 32 +
STACK CFI 38524 .cfa: $rsp 24 +
STACK CFI 38526 .cfa: $rsp 16 +
STACK CFI 38528 .cfa: $rsp 8 +
STACK CFI 38530 .cfa: $rsp 224 +
STACK CFI INIT 90d10 3 .cfa: $rsp 8 + .ra: .cfa -8 + ^
STACK CFI INIT 90d20 4 .cfa: $rsp 8 + .ra: .cfa -8 + ^
STACK CFI INIT 3a2b0 9 .cfa: $rsp 8 + .ra: .cfa -8 + ^
STACK CFI INIT 3a2c0 2 .cfa: $rsp 8 + .ra: .cfa -8 + ^
STACK CFI INIT 3a2d0 6 .cfa: $rsp 8 + .ra: .cfa -8 + ^
STACK CFI INIT 3a2e0 2 .cfa: $rsp 8 + .ra: .cfa -8 + ^
STACK CFI INIT 3a2f0 2 .cfa: $rsp 8 + .ra: .cfa -8 + ^
STACK CFI INIT 3a300 5 .cfa: $rsp 8 + .ra: .cfa -8 + ^
STACK CFI INIT 3a310 5 .cfa: $rsp 8 + .ra: .cfa -8 + ^
STACK CFI INIT 3a320 e .cfa: $rsp 8 + .ra: .cfa -8 + ^
STACK CFI INIT 3a330 9c .cfa: $rsp 8 + .ra: .cfa -8 + ^
STACK CFI INIT 3a3d0 2 .cfa: $rsp 8 + .ra: .cfa -8 + ^
STACK CFI INIT 3a3e0 2 .cfa: $rsp 8 + .ra: .cfa -8 + ^
STACK CFI INIT 3a3f0 e .cfa: $rsp 8 + .ra: .cfa -8 + ^
STACK CFI INIT 3a400 28 .cfa: $rsp 8 + .ra: .cfa -8 + ^
STACK CFI INIT 3a430 6 .cfa: $rsp 8 + .ra: .cfa -8 + ^
STACK CFI INIT 3a440 6 .cfa: $rsp 8 + .ra: .cfa -8 + ^
STACK CFI INIT 3a450 6 .cfa: $rsp 8 + .ra: .cfa -8 + ^
STACK CFI INIT 3a460 16 .cfa: $rsp 8 + .ra: .cfa -8 + ^
STACK CFI 3a464 .cfa: $rsp 16 +
STACK CFI 3a475 .cfa: $rsp 8 +
STACK CFI INIT 3a480 16 .cfa: $rsp 8 + .ra: .cfa -8 + ^
STACK CFI 3a484 .cfa: $rsp 16 +
STACK CFI 3a495 .cfa: $rsp 8 +
STACK CFI INIT 3a4a0 5a .cfa: $rsp 8 + .ra: .cfa -8 + ^
STACK CFI INIT 3a500 19 .cfa: $rsp 8 + .ra: .cfa -8 + ^
STACK CFI INIT 3a520 9 .cfa: $rsp 8 + .ra: .cfa -8 + ^
STACK CFI INIT 3a530 6 .cfa: $rsp 8 + .ra: .cfa -8 + ^
STACK CFI INIT 3a540 6 .cfa: $rsp 8 + .ra: .cfa -8 + ^
STACK CFI INIT 3a550 2 .cfa: $rsp 8 + .ra: .cfa -8 + ^
STACK CFI INIT 3a560 17 .cfa: $rsp 8 + .ra: .cfa -8 + ^
STACK CFI 3a564 .cfa: $rsp 16 +
STACK CFI 3a576 .cfa: $rsp 8 +
STACK CFI INIT 3a580 17 .cfa: $rsp 8 + .ra: .cfa -8 + ^
STACK CFI 3a584 .cfa: $rsp 16 +
STACK CFI 3a596 .cfa: $rsp 8 +
STACK CFI INIT 90d30 2 .cfa: $rsp 8 + .ra: .cfa -8 + ^
STACK CFI INIT 90d40 2 .cfa: $rsp 8 + .ra: .cfa -8 + ^
STACK CFI INIT 90d50 13 .cfa: $rsp 8 + .ra: .cfa -8 + ^
STACK CFI INIT 90d70 2 .cfa: $rsp 8 + .ra: .cfa -8 + ^
STACK CFI INIT 90d80 13 .cfa: $rsp 8 + .ra: .cfa -8 + ^
STACK CFI INIT 90da0 2 .cfa: $rsp 8 + .ra: .cfa -8 + ^
STACK CFI INIT 90db0 22 .cfa: $rsp 8 + .ra: .cfa -8 + ^
STACK CFI INIT 90de0 55 .cfa: $rsp 8 + .ra: .cfa -8 + ^
STACK CFI INIT 90e40 1c .cfa: $rsp 8 + .ra: .cfa -8 + ^
STACK CFI INIT 3a5a0 12e .cfa: $rsp 8 + .ra: .cfa -8 + ^
STACK CFI 3a5a1 $rbx: .cfa -16 + ^ .cfa: $rsp 16 +
STACK CFI 3a5a9 .cfa: $rsp 48 +
STACK CFI 3a659 .cfa: $rsp 16 +
STACK CFI 3a65c .cfa: $rsp 8 +
STACK CFI 3a660 .cfa: $rsp 48 +
STACK CFI 3a699 .cfa: $rsp 16 +
STACK CFI 3a69c .cfa: $rsp 8 +
STACK CFI 3a6a0 .cfa: $rsp 48 +
STACK CFI 3a6a9 .cfa: $rsp 16 +
STACK CFI 3a6ac .cfa: $rsp 8 +
STACK CFI 3a6b0 .cfa: $rsp 48 +
STACK CFI INIT 3a6d0 b2 .cfa: $rsp 8 + .ra: .cfa -8 + ^
STACK CFI 3a6d1 $rbp: .cfa -16 + ^ .cfa: $rsp 16 +
STACK CFI 3a6d9 $rbx: .cfa -24 + ^ .cfa: $rsp 24 +
STACK CFI 3a6e0 .cfa: $rsp 64 +
STACK CFI 3a769 .cfa: $rsp 24 +
STACK CFI 3a76d .cfa: $rsp 16 +
STACK CFI 3a76e .cfa: $rsp 8 +
STACK CFI 3a76f .cfa: $rsp 64 +
STACK CFI INIT 3a790 a1 .cfa: $rsp 8 + .ra: .cfa -8 + ^
STACK CFI 3a791 $rbp: .cfa -16 + ^ .cfa: $rsp 16 +
STACK CFI 3a799 $rbx: .cfa -24 + ^ .cfa: $rsp 24 +
STACK CFI 3a7a0 .cfa: $rsp 64 +
STACK CFI 3a811 .cfa: $rsp 24 +
STACK CFI 3a81c .cfa: $rsp 16 +
STACK CFI 3a81d .cfa: $rsp 8 +
STACK CFI 3a81e .cfa: $rsp 64 +
STACK CFI INIT 3a840 181 .cfa: $rsp 8 + .ra: .cfa -8 + ^
STACK CFI 3a842 $r15: .cfa -16 + ^ .cfa: $rsp 16 +
STACK CFI 3a844 $r14: .cfa -24 + ^ .cfa: $rsp 24 +
STACK CFI 3a846 $r13: .cfa -32 + ^ .cfa: $rsp 32 +
STACK CFI 3a848 $r12: .cfa -40 + ^ .cfa: $rsp 40 +
STACK CFI 3a849 $rbp: .cfa -48 + ^ .cfa: $rsp 48 +
STACK CFI 3a84c $rbx: .cfa -56 + ^ .cfa: $rsp 56 +
STACK CFI 3a853 .cfa: $rsp 96 +
STACK CFI 3a89d .cfa: $rsp 56 +
STACK CFI 3a8a0 .cfa: $rsp 48 +
STACK CFI 3a8a1 .cfa: $rsp 40 +
STACK CFI 3a8a3 .cfa: $rsp 32 +
STACK CFI 3a8a5 .cfa: $rsp 24 +
STACK CFI 3a8a7 .cfa: $rsp 16 +
STACK CFI 3a8a9 .cfa: $rsp 8 +
STACK CFI 3a8b0 .cfa: $rsp 96 +
STACK CFI INIT 3a9d0 255 .cfa: $rsp 8 + .ra: .cfa -8 + ^
STACK CFI 3a9d1 $rbp: .cfa -16 + ^ .cfa: $rsp 16 +
STACK CFI 3a9d5 $rbx: .cfa -24 + ^ .cfa: $rsp 24 +
STACK CFI 3a9dc .cfa: $rsp 64 +
STACK CFI 3ab0c .cfa: $rsp 24 +
STACK CFI 3ab0d .cfa: $rsp 16 +
STACK CFI 3ab0e .cfa: $rsp 8 +
STACK CFI 3ab10 .cfa: $rsp 64 +
STACK CFI 3ab1c .cfa: $rsp 24 +
STACK CFI 3ab1d .cfa: $rsp 16 +
STACK CFI 3ab1e .cfa: $rsp 8 +
STACK CFI 3ab20 .cfa: $rsp 64 +
STACK CFI INIT 3ac30 ae .cfa: $rsp 8 + .ra: .cfa -8 + ^
STACK CFI 3ac80 .cfa: $rsp 48 +
STACK CFI 3acdd .cfa: $rsp 8 +
STACK CFI INIT 3ace0 60 .cfa: $rsp 8 + .ra: .cfa -8 + ^
STACK CFI 3ace1 $rbp: .cfa -16 + ^ .cfa: $rsp 16 +
STACK CFI 3ace9 $rbx: .cfa -24 + ^ .cfa: $rsp 24 +
STACK CFI 3aced .cfa: $rsp 64 +
STACK CFI 3ad2a .cfa: $rsp 24 +
STACK CFI 3ad2b .cfa: $rsp 16 +
STACK CFI 3ad2c .cfa: $rsp 8 +
STACK CFI 3ad2d .cfa: $rsp 64 +
STACK CFI INIT 3ad40 32 .cfa: $rsp 8 + .ra: .cfa -8 + ^
STACK CFI INIT 3ad80 3f .cfa: $rsp 8 + .ra: .cfa -8 + ^
STACK CFI INIT 3adc0 34 .cfa: $rsp 8 + .ra: .cfa -8 + ^
STACK CFI 3adc1 $rbx: .cfa -16 + ^ .cfa: $rsp 16 +
STACK CFI 3adf3 .cfa: $rsp 8 +
STACK CFI INIT 3ae00 3d .cfa: $rsp 8 + .ra: .cfa -8 + ^
STACK CFI 3ae02 $r12: .cfa -16 + ^ .cfa: $rsp 16 +
STACK CFI 3ae06 $rbp: .cfa -24 + ^ .cfa: $rsp 24 +
STACK CFI 3ae07 $rbx: .cfa -32 + ^ .cfa: $rsp 32 +
STACK CFI 3ae32 .cfa: $rsp 24 +
STACK CFI 3ae33 .cfa: $rsp 16 +
STACK CFI 3ae38 .cfa: $rsp 8 +
STACK CFI INIT 3ae40 3d .cfa: $rsp 8 + .ra: .cfa -8 + ^
STACK CFI 3ae42 $r12: .cfa -16 + ^ .cfa: $rsp 16 +
STACK CFI 3ae46 $rbp: .cfa -24 + ^ .cfa: $rsp 24 +
STACK CFI 3ae47 $rbx: .cfa -32 + ^ .cfa: $rsp 32 +
STACK CFI 3ae72 .cfa: $rsp 24 +
STACK CFI 3ae73 .cfa: $rsp 16 +
STACK CFI 3ae78 .cfa: $rsp 8 +
STACK CFI INIT 3ae80 3d .cfa: $rsp 8 + .ra: .cfa -8 + ^
STACK CFI 3ae82 $r12: .cfa -16 + ^ .cfa: $rsp 16 +
STACK CFI 3ae86 $rbp: .cfa -24 + ^ .cfa: $rsp 24 +
STACK CFI 3ae87 $rbx: .cfa -32 + ^ .cfa: $rsp 32 +
STACK CFI 3aeb2 .cfa: $rsp 24 +
STACK CFI 3aeb3 .cfa: $rsp 16 +
STACK CFI 3aeb8 .cfa: $rsp 8 +
STACK CFI INIT 3aec0 3d .cfa: $rsp 8 + .ra: .cfa -8 + ^
STACK CFI 3aec2 $r12: .cfa -16 + ^ .cfa: $rsp 16 +
STACK CFI 3aec6 $rbp: .cfa -24 + ^ .cfa: $rsp 24 +
STACK CFI 3aec7 $rbx: .cfa -32 + ^ .cfa: $rsp 32 +
STACK CFI 3aef2 .cfa: $rsp 24 +
STACK CFI 3aef3 .cfa: $rsp 16 +
STACK CFI 3aef8 .cfa: $rsp 8 +
STACK CFI INIT 3af00 3d .cfa: $rsp 8 + .ra: .cfa -8 + ^
STACK CFI 3af02 $r12: .cfa -16 + ^ .cfa: $rsp 16 +
STACK CFI 3af06 $rbp: .cfa -24 + ^ .cfa: $rsp 24 +
STACK CFI 3af07 $rbx: .cfa -32 + ^ .cfa: $rsp 32 +
STACK CFI 3af32 .cfa: $rsp 24 +
STACK CFI 3af33 .cfa: $rsp 16 +
STACK CFI 3af38 .cfa: $rsp 8 +
STACK CFI INIT 3af40 34 .cfa: $rsp 8 + .ra: .cfa -8 + ^
STACK CFI 3af41 $rbx: .cfa -16 + ^ .cfa: $rsp 16 +
STACK CFI 3af73 .cfa: $rsp 8 +
STACK CFI INIT 3af80 34 .cfa: $rsp 8 + .ra: .cfa -8 + ^
STACK CFI 3af81 $rbx: .cfa -16 + ^ .cfa: $rsp 16 +
STACK CFI 3afb3 .cfa: $rsp 8 +
STACK CFI INIT 3afc0 3d .cfa: $rsp 8 + .ra: .cfa -8 + ^
STACK CFI 3afc2 $r12: .cfa -16 + ^ .cfa: $rsp 16 +
STACK CFI 3afc6 $rbp: .cfa -24 + ^ .cfa: $rsp 24 +
STACK CFI 3afc7 $rbx: .cfa -32 + ^ .cfa: $rsp 32 +
STACK CFI 3aff2 .cfa: $rsp 24 +
STACK CFI 3aff3 .cfa: $rsp 16 +
STACK CFI 3aff8 .cfa: $rsp 8 +
STACK CFI INIT 3b000 34 .cfa: $rsp 8 + .ra: .cfa -8 + ^
STACK CFI 3b001 $rbx: .cfa -16 + ^ .cfa: $rsp 16 +
STACK CFI 3b033 .cfa: $rsp 8 +
STACK CFI INIT 3b040 34 .cfa: $rsp 8 + .ra: .cfa -8 + ^
STACK CFI 3b041 $rbx: .cfa -16 + ^ .cfa: $rsp 16 +
STACK CFI 3b073 .cfa: $rsp 8 +
STACK CFI INIT 3b080 27c .cfa: $rsp 8 + .ra: .cfa -8 + ^
STACK CFI 3b082 $r14: .cfa -16 + ^ .cfa: $rsp 16 +
STACK CFI 3b08a $r13: .cfa -24 + ^ .cfa: $rsp 24 +
STACK CFI 3b08c $r12: .cfa -32 + ^ .cfa: $rsp 32 +
STACK CFI 3b08d $rbp: .cfa -40 + ^ .cfa: $rsp 40 +
STACK CFI 3b091 $rbx: .cfa -48 + ^ .cfa: $rsp 48 +
STACK CFI 3b09b .cfa: $rsp 240 +
STACK CFI 3b26c .cfa: $rsp 48 +
STACK CFI 3b26d .cfa: $rsp 40 +
STACK CFI 3b26e .cfa: $rsp 32 +
STACK CFI 3b270 .cfa: $rsp 24 +
STACK CFI 3b272 .cfa: $rsp 16 +
STACK CFI 3b274 .cfa: $rsp 8 +
STACK CFI 3b278 .cfa: $rsp 240 +
STACK CFI INIT 3b300 6ba .cfa: $rsp 8 + .ra: .cfa -8 + ^
STACK CFI 3b302 $r12: .cfa -16 + ^ .cfa: $rsp 16 +
STACK CFI 3b307 $rbp: .cfa -24 + ^ .cfa: $rsp 24 +
STACK CFI 3b308 $rbx: .cfa -32 + ^ .cfa: $rsp 32 +
STACK CFI 3b30f .cfa: $rsp 96 +
STACK CFI 3b539 .cfa: $rsp 32 +
STACK CFI 3b53a .cfa: $rsp 24 +
STACK CFI 3b53b .cfa: $rsp 16 +
STACK CFI 3b53d .cfa: $rsp 8 +
STACK CFI 3b540 .cfa: $rsp 96 +
STACK CFI INIT 3b9c0 6f .cfa: $rsp 8 + .ra: .cfa -8 + ^
STACK CFI 3b9c1 $rbp: .cfa -16 + ^ .cfa: $rsp 16 +
STACK CFI 3b9c2 $rbx: .cfa -24 + ^ .cfa: $rsp 24 +
STACK CFI 3b9c6 .cfa: $rsp 32 +
STACK CFI 3ba0a .cfa: $rsp 24 +
STACK CFI 3ba0e .cfa: $rsp 16 +
STACK CFI 3ba0f .cfa: $rsp 8 +
STACK CFI 3ba18 .cfa: $rsp 32 +
STACK CFI 3ba2c .cfa: $rsp 24 +
STACK CFI 3ba2d .cfa: $rsp 16 +
STACK CFI 3ba2e .cfa: $rsp 8 +
STACK CFI INIT 3ba30 6f .cfa: $rsp 8 + .ra: .cfa -8 + ^
STACK CFI 3ba31 $rbp: .cfa -16 + ^ .cfa: $rsp 16 +
STACK CFI 3ba32 $rbx: .cfa -24 + ^ .cfa: $rsp 24 +
STACK CFI 3ba36 .cfa: $rsp 32 +
STACK CFI 3ba7a .cfa: $rsp 24 +
STACK CFI 3ba7e .cfa: $rsp 16 +
STACK CFI 3ba7f .cfa: $rsp 8 +
STACK CFI 3ba88 .cfa: $rsp 32 +
STACK CFI 3ba9c .cfa: $rsp 24 +
STACK CFI 3ba9d .cfa: $rsp 16 +
STACK CFI 3ba9e .cfa: $rsp 8 +
STACK CFI INIT 3baa0 6f .cfa: $rsp 8 + .ra: .cfa -8 + ^
STACK CFI 3baa1 $rbp: .cfa -16 + ^ .cfa: $rsp 16 +
STACK CFI 3baa2 $rbx: .cfa -24 + ^ .cfa: $rsp 24 +
STACK CFI 3baa6 .cfa: $rsp 32 +
STACK CFI 3baea .cfa: $rsp 24 +
STACK CFI 3baee .cfa: $rsp 16 +
STACK CFI 3baef .cfa: $rsp 8 +
STACK CFI 3baf8 .cfa: $rsp 32 +
STACK CFI 3bb0c .cfa: $rsp 24 +
STACK CFI 3bb0d .cfa: $rsp 16 +
STACK CFI 3bb0e .cfa: $rsp 8 +
STACK CFI INIT 3bb10 6f .cfa: $rsp 8 + .ra: .cfa -8 + ^
STACK CFI 3bb11 $rbp: .cfa -16 + ^ .cfa: $rsp 16 +
STACK CFI 3bb12 $rbx: .cfa -24 + ^ .cfa: $rsp 24 +
STACK CFI 3bb16 .cfa: $rsp 32 +
STACK CFI 3bb5a .cfa: $rsp 24 +
STACK CFI 3bb5e .cfa: $rsp 16 +
STACK CFI 3bb5f .cfa: $rsp 8 +
STACK CFI 3bb68 .cfa: $rsp 32 +
STACK CFI 3bb7c .cfa: $rsp 24 +
STACK CFI 3bb7d .cfa: $rsp 16 +
STACK CFI 3bb7e .cfa: $rsp 8 +
STACK CFI INIT 3bb80 a6 .cfa: $rsp 8 + .ra: .cfa -8 + ^
STACK CFI 3bb82 $r15: .cfa -16 + ^ .cfa: $rsp 16 +
STACK CFI 3bb87 $r14: .cfa -24 + ^ .cfa: $rsp 24 +
STACK CFI 3bb89 $r13: .cfa -32 + ^ .cfa: $rsp 32 +
STACK CFI 3bb8b $r12: .cfa -40 + ^ .cfa: $rsp 40 +
STACK CFI 3bb8c $rbp: .cfa -48 + ^ .cfa: $rsp 48 +
STACK CFI 3bb8d $rbx: .cfa -56 + ^ .cfa: $rsp 56 +
STACK CFI 3bb91 .cfa: $rsp 64 +
STACK CFI 3bc14 .cfa: $rsp 56 +
STACK CFI 3bc18 .cfa: $rsp 48 +
STACK CFI 3bc19 .cfa: $rsp 40 +
STACK CFI 3bc1b .cfa: $rsp 32 +
STACK CFI 3bc1d .cfa: $rsp 24 +
STACK CFI 3bc1f .cfa: $rsp 16 +
STACK CFI 3bc21 .cfa: $rsp 8 +
STACK CFI INIT 3bc30 e7 .cfa: $rsp 8 + .ra: .cfa -8 + ^
STACK CFI 3bc31 $rbx: .cfa -16 + ^ .cfa: $rsp 16 +
STACK CFI 3bc38 .cfa: $rsp 32 +
STACK CFI 3bcae .cfa: $rsp 16 +
STACK CFI 3bcaf .cfa: $rsp 8 +
STACK CFI 3bcb0 .cfa: $rsp 32 +
STACK CFI 3bcbc .cfa: $rsp 16 +
STACK CFI 3bcbd .cfa: $rsp 8 +
STACK CFI 3bcc0 .cfa: $rsp 32 +
STACK CFI INIT 3bd20 16f .cfa: $rsp 8 + .ra: .cfa -8 + ^
STACK CFI INIT 3be90 ff .cfa: $rsp 8 + .ra: .cfa -8 + ^
STACK CFI 3be91 $rbx: .cfa -16 + ^ .cfa: $rsp 16 +
STACK CFI 3be98 .cfa: $rsp 32 +
STACK CFI 3bec8 .cfa: $rsp 16 +
STACK CFI 3bec9 .cfa: $rsp 8 +
STACK CFI 3bed0 .cfa: $rsp 32 +
STACK CFI 3bf32 .cfa: $rsp 16 +
STACK CFI 3bf33 .cfa: $rsp 8 +
STACK CFI 3bf38 .cfa: $rsp 32 +
STACK CFI INIT 90e60 38 .cfa: $rsp 8 + .ra: .cfa -8 + ^
STACK CFI INIT 3bf90 76 .cfa: $rsp 8 + .ra: .cfa -8 + ^
STACK CFI 3bf92 $r12: .cfa -16 + ^ .cfa: $rsp 16 +
STACK CFI 3bf96 $rbp: .cfa -24 + ^ .cfa: $rsp 24 +
STACK CFI 3bf97 $rbx: .cfa -32 + ^ .cfa: $rsp 32 +
STACK CFI 3bff1 .cfa: $rsp 24 +
STACK CFI 3bff2 .cfa: $rsp 16 +
STACK CFI 3c001 .cfa: $rsp 8 +
STACK CFI INIT 3c010 519 .cfa: $rsp 8 + .ra: .cfa -8 + ^
STACK CFI 3c012 $r15: .cfa -16 + ^ .cfa: $rsp 16 +
STACK CFI 3c019 $r14: .cfa -24 + ^ .cfa: $rsp 24 +
STACK CFI 3c01b $r13: .cfa -32 + ^ .cfa: $rsp 32 +
STACK CFI 3c01d $r12: .cfa -40 + ^ .cfa: $rsp 40 +
STACK CFI 3c01e $rbp: .cfa -48 + ^ .cfa: $rsp 48 +
STACK CFI 3c022 $rbx: .cfa -56 + ^ .cfa: $rsp 56 +
STACK CFI 3c02c .cfa: $rsp 224 +
STACK CFI 3c2ea .cfa: $rsp 56 +
STACK CFI 3c2ee .cfa: $rsp 48 +
STACK CFI 3c2ef .cfa: $rsp 40 +
STACK CFI 3c2f1 .cfa: $rsp 32 +
STACK CFI 3c2f3 .cfa: $rsp 24 +
STACK CFI 3c2f5 .cfa: $rsp 16 +
STACK CFI 3c2f7 .cfa: $rsp 8 +
STACK CFI 3c300 .cfa: $rsp 224 +
STACK CFI INIT 3c530 1bc .cfa: $rsp 8 + .ra: .cfa -8 + ^
STACK CFI 3c532 $r12: .cfa -16 + ^ .cfa: $rsp 16 +
STACK CFI 3c53d $rbp: .cfa -24 + ^ .cfa: $rsp 24 +
STACK CFI 3c53e $rbx: .cfa -32 + ^ .cfa: $rsp 32 +
STACK CFI 3c542 .cfa: $rsp 112 +
STACK CFI 3c635 .cfa: $rsp 32 +
STACK CFI 3c63a .cfa: $rsp 24 +
STACK CFI 3c63b .cfa: $rsp 16 +
STACK CFI 3c641 .cfa: $rsp 8 +
STACK CFI 3c648 .cfa: $rsp 112 +
STACK CFI INIT 90ea0 9c .cfa: $rsp 8 + .ra: .cfa -8 + ^
STACK CFI INIT 90f40 24 .cfa: $rsp 8 + .ra: .cfa -8 + ^
STACK CFI 90f41 $rbx: .cfa -16 + ^ .cfa: $rsp 16 +
STACK CFI 90f63 .cfa: $rsp 8 +
STACK CFI INIT 90f70 aa .cfa: $rsp 8 + .ra: .cfa -8 + ^
STACK CFI 90f72 $r12: .cfa -16 + ^ .cfa: $rsp 16 +
STACK CFI 90f78 $rbx: .cfa -24 + ^ .cfa: $rsp 24 +
STACK CFI 90f7f .cfa: $rsp 64 +
STACK CFI 90fe1 .cfa: $rsp 24 +
STACK CFI 90fe5 .cfa: $rsp 16 +
STACK CFI 90fe7 .cfa: $rsp 8 +
STACK CFI 90ff0 .cfa: $rsp 64 +
STACK CFI INIT 3c6f0 11a .cfa: $rsp 8 + .ra: .cfa -8 + ^
STACK CFI 3c701 $rbp: .cfa -16 + ^ .cfa: $rsp 16 +
STACK CFI 3c702 $rbx: .cfa -24 + ^ .cfa: $rsp 24 +
STACK CFI 3c709 .cfa: $rsp 80 +
STACK CFI 3c779 .cfa: $rsp 24 +
STACK CFI 3c77a $rbx: $rbx .cfa: $rsp 16 +
STACK CFI 3c77b $rbp: $rbp .cfa: $rsp 8 +
STACK CFI 3c780 $rbp: .cfa -16 + ^ $rbx: .cfa -24 + ^ .cfa: $rsp 80 +
STACK CFI 3c7f4 .cfa: $rsp 24 +
STACK CFI 3c7f5 $rbx: $rbx .cfa: $rsp 16 +
STACK CFI 3c7f6 $rbp: $rbp .cfa: $rsp 8 +
STACK CFI 3c7f7 $rbp: .cfa -16 + ^ $rbx: .cfa -24 + ^ .cfa: $rsp 80 +
STACK CFI INIT 3c810 152 .cfa: $rsp 8 + .ra: .cfa -8 + ^
STACK CFI 3c812 $r12: .cfa -16 + ^ .cfa: $rsp 16 +
STACK CFI 3c816 $rbp: .cfa -24 + ^ .cfa: $rsp 24 +
STACK CFI 3c817 $rbx: .cfa -32 + ^ .cfa: $rsp 32 +
STACK CFI 3c81b .cfa: $rsp 80 +
STACK CFI 3c8c2 .cfa: $rsp 32 +
STACK CFI 3c8c5 .cfa: $rsp 24 +
STACK CFI 3c8c6 .cfa: $rsp 16 +
STACK CFI 3c8c8 .cfa: $rsp 8 +
STACK CFI 3c8d0 .cfa: $rsp 80 +
STACK CFI 3c8e2 .cfa: $rsp 32 +
STACK CFI 3c8e8 .cfa: $rsp 24 +
STACK CFI 3c8e9 .cfa: $rsp 16 +
STACK CFI 3c8eb .cfa: $rsp 8 +
STACK CFI 3c8ec .cfa: $rsp 80 +
STACK CFI INIT 3c970 152 .cfa: $rsp 8 + .ra: .cfa -8 + ^
STACK CFI 3c972 $r12: .cfa -16 + ^ .cfa: $rsp 16 +
STACK CFI 3c976 $rbp: .cfa -24 + ^ .cfa: $rsp 24 +
STACK CFI 3c977 $rbx: .cfa -32 + ^ .cfa: $rsp 32 +
STACK CFI 3c97b .cfa: $rsp 80 +
STACK CFI 3ca22 .cfa: $rsp 32 +
STACK CFI 3ca25 .cfa: $rsp 24 +
STACK CFI 3ca26 .cfa: $rsp 16 +
STACK CFI 3ca28 .cfa: $rsp 8 +
STACK CFI 3ca30 .cfa: $rsp 80 +
STACK CFI 3ca42 .cfa: $rsp 32 +
STACK CFI 3ca48 .cfa: $rsp 24 +
STACK CFI 3ca49 .cfa: $rsp 16 +
STACK CFI 3ca4b .cfa: $rsp 8 +
STACK CFI 3ca4c .cfa: $rsp 80 +
STACK CFI INIT 3cad0 270 .cfa: $rsp 8 + .ra: .cfa -8 + ^
STACK CFI 3cad2 $r12: .cfa -16 + ^ .cfa: $rsp 16 +
STACK CFI 3cad3 $rbp: .cfa -24 + ^ .cfa: $rsp 24 +
STACK CFI 3cad4 $rbx: .cfa -32 + ^ .cfa: $rsp 32 +
STACK CFI 3cad8 .cfa: $rsp 112 +
STACK CFI 3cafe .cfa: $rsp 32 +
STACK CFI 3caff .cfa: $rsp 24 +
STACK CFI 3cb00 .cfa: $rsp 16 +
STACK CFI 3cb02 .cfa: $rsp 8 +
STACK CFI 3cb08 .cfa: $rsp 112 +
STACK CFI 3cc0a .cfa: $rsp 32 +
STACK CFI 3cc0f .cfa: $rsp 24 +
STACK CFI 3cc10 .cfa: $rsp 16 +
STACK CFI 3cc16 .cfa: $rsp 8 +
STACK CFI 3cc17 .cfa: $rsp 112 +
STACK CFI INIT 3cd40 23f .cfa: $rsp 8 + .ra: .cfa -8 + ^
STACK CFI 3cd42 $r13: .cfa -16 + ^ .cfa: $rsp 16 +
STACK CFI 3cd44 $r12: .cfa -24 + ^ .cfa: $rsp 24 +
STACK CFI 3cd45 $rbp: .cfa -32 + ^ .cfa: $rsp 32 +
STACK CFI 3cd48 $rbx: .cfa -40 + ^ .cfa: $rsp 40 +
STACK CFI 3cd4f .cfa: $rsp 128 +
STACK CFI 3cdb8 .cfa: $rsp 40 +
STACK CFI 3cdb9 .cfa: $rsp 32 +
STACK CFI 3cdba .cfa: $rsp 24 +
STACK CFI 3cdc0 .cfa: $rsp 16 +
STACK CFI 3cdc6 .cfa: $rsp 8 +
STACK CFI 3cdd0 .cfa: $rsp 128 +
STACK CFI 3cdd4 .cfa: $rsp 40 +
STACK CFI 3cdd9 .cfa: $rsp 32 +
STACK CFI 3cdda .cfa: $rsp 24 +
STACK CFI 3cddc .cfa: $rsp 16 +
STACK CFI 3cde2 .cfa: $rsp 8 +
STACK CFI 3cde8 .cfa: $rsp 128 +
STACK CFI 3cdfc .cfa: $rsp 40 +
STACK CFI 3cdfd .cfa: $rsp 32 +
STACK CFI 3cdfe .cfa: $rsp 24 +
STACK CFI 3ce04 .cfa: $rsp 16 +
STACK CFI 3ce06 .cfa: $rsp 8 +
STACK CFI 3ce18 .cfa: $rsp 128 +
STACK CFI 3ce1c .cfa: $rsp 40 +
STACK CFI 3ce21 .cfa: $rsp 32 +
STACK CFI 3ce22 .cfa: $rsp 24 +
STACK CFI 3ce24 .cfa: $rsp 16 +
STACK CFI 3ce26 .cfa: $rsp 8 +
STACK CFI 3ce30 .cfa: $rsp 128 +
STACK CFI 3ce44 .cfa: $rsp 40 +
STACK CFI 3ce45 .cfa: $rsp 32 +
STACK CFI 3ce46 .cfa: $rsp 24 +
STACK CFI 3ce50 .cfa: $rsp 16 +
STACK CFI 3ce52 .cfa: $rsp 8 +
STACK CFI 3ce60 .cfa: $rsp 128 +
STACK CFI 3cf15 .cfa: $rsp 40 +
STACK CFI 3cf1a .cfa: $rsp 32 +
STACK CFI 3cf1b .cfa: $rsp 24 +
STACK CFI 3cf1d .cfa: $rsp 16 +
STACK CFI 3cf23 .cfa: $rsp 8 +
STACK CFI 3cf28 .cfa: $rsp 128 +
STACK CFI INIT 3cf80 30f .cfa: $rsp 8 + .ra: .cfa -8 + ^
STACK CFI 3cf82 $r12: .cfa -16 + ^ .cfa: $rsp 16 +
STACK CFI 3cf83 $rbp: .cfa -24 + ^ .cfa: $rsp 24 +
STACK CFI 3cf87 $rbx: .cfa -32 + ^ .cfa: $rsp 32 +
STACK CFI 3cf8d .cfa: $rsp 96 +
STACK CFI 3cff8 .cfa: $rsp 32 +
STACK CFI 3cff9 .cfa: $rsp 24 +
STACK CFI 3cffa .cfa: $rsp 16 +
STACK CFI 3d004 .cfa: $rsp 8 +
STACK CFI 3d010 .cfa: $rsp 96 +
STACK CFI 3d034 .cfa: $rsp 32 +
STACK CFI 3d035 .cfa: $rsp 24 +
STACK CFI 3d03e .cfa: $rsp 16 +
STACK CFI 3d040 .cfa: $rsp 8 +
STACK CFI 3d060 .cfa: $rsp 96 +
STACK CFI 3d074 .cfa: $rsp 32 +
STACK CFI 3d075 .cfa: $rsp 24 +
STACK CFI 3d076 .cfa: $rsp 16 +
STACK CFI 3d080 .cfa: $rsp 8 +
STACK CFI 3d090 .cfa: $rsp 96 +
STACK CFI 3d0a4 .cfa: $rsp 32 +
STACK CFI 3d0ad .cfa: $rsp 24 +
STACK CFI 3d0ae .cfa: $rsp 16 +
STACK CFI 3d0b8 .cfa: $rsp 8 +
STACK CFI 3d0d8 .cfa: $rsp 96 +
STACK CFI 3d0ec .cfa: $rsp 32 +
STACK CFI 3d0ed .cfa: $rsp 24 +
STACK CFI 3d0ee .cfa: $rsp 16 +
STACK CFI 3d0f4 .cfa: $rsp 8 +
STACK CFI 3d108 .cfa: $rsp 96 +
STACK CFI 3d11c .cfa: $rsp 32 +
STACK CFI 3d129 .cfa: $rsp 24 +
STACK CFI 3d12a .cfa: $rsp 16 +
STACK CFI 3d134 .cfa: $rsp 8 +
STACK CFI 3d158 .cfa: $rsp 96 +
STACK CFI 3d174 .cfa: $rsp 32 +
STACK CFI 3d181 .cfa: $rsp 24 +
STACK CFI 3d182 .cfa: $rsp 16 +
STACK CFI 3d18c .cfa: $rsp 8 +
STACK CFI 3d1b0 .cfa: $rsp 96 +
STACK CFI 3d1c4 .cfa: $rsp 32 +
STACK CFI 3d1c5 .cfa: $rsp 24 +
STACK CFI 3d1c6 .cfa: $rsp 16 +
STACK CFI 3d1d0 .cfa: $rsp 8 +
STACK CFI 3d1e0 .cfa: $rsp 96 +
STACK CFI 3d261 .cfa: $rsp 32 +
STACK CFI 3d266 .cfa: $rsp 24 +
STACK CFI 3d267 .cfa: $rsp 16 +
STACK CFI 3d26d .cfa: $rsp 8 +
STACK CFI 3d270 .cfa: $rsp 96 +
STACK CFI INIT 3d290 33f .cfa: $rsp 8 + .ra: .cfa -8 + ^
STACK CFI 3d292 $r12: .cfa -16 + ^ .cfa: $rsp 16 +
STACK CFI 3d293 $rbp: .cfa -24 + ^ .cfa: $rsp 24 +
STACK CFI 3d296 $rbx: .cfa -32 + ^ .cfa: $rsp 32 +
STACK CFI 3d29d .cfa: $rsp 144 +
STACK CFI 3d43a .cfa: $rsp 32 +
STACK CFI 3d43b .cfa: $rsp 24 +
STACK CFI 3d43c .cfa: $rsp 16 +
STACK CFI 3d43e .cfa: $rsp 8 +
STACK CFI 3d440 .cfa: $rsp 144 +
STACK CFI 3d5a1 .cfa: $rsp 32 +
STACK CFI 3d5a6 .cfa: $rsp 24 +
STACK CFI 3d5a7 .cfa: $rsp 16 +
STACK CFI 3d5ad .cfa: $rsp 8 +
STACK CFI 3d5b0 .cfa: $rsp 144 +
STACK CFI INIT 3d5d0 b9 .cfa: $rsp 8 + .ra: .cfa -8 + ^
STACK CFI 3d5d1 $rbp: .cfa -16 + ^ .cfa: $rsp 16 +
STACK CFI 3d5d2 $rbx: .cfa -24 + ^ .cfa: $rsp 24 +
STACK CFI 3d5d6 .cfa: $rsp 80 +
STACK CFI 3d604 .cfa: $rsp 24 +
STACK CFI 3d605 .cfa: $rsp 16 +
STACK CFI 3d606 .cfa: $rsp 8 +
STACK CFI 3d610 .cfa: $rsp 80 +
STACK CFI INIT 3d690 b9 .cfa: $rsp 8 + .ra: .cfa -8 + ^
STACK CFI 3d691 $rbp: .cfa -16 + ^ .cfa: $rsp 16 +
STACK CFI 3d692 $rbx: .cfa -24 + ^ .cfa: $rsp 24 +
STACK CFI 3d696 .cfa: $rsp 80 +
STACK CFI 3d6c4 .cfa: $rsp 24 +
STACK CFI 3d6c5 .cfa: $rsp 16 +
STACK CFI 3d6c6 .cfa: $rsp 8 +
STACK CFI 3d6d0 .cfa: $rsp 80 +
STACK CFI INIT 3d750 b1 .cfa: $rsp 8 + .ra: .cfa -8 + ^
STACK CFI 3d751 $rbp: .cfa -16 + ^ .cfa: $rsp 16 +
STACK CFI 3d752 $rbx: .cfa -24 + ^ .cfa: $rsp 24 +
STACK CFI 3d756 .cfa: $rsp 80 +
STACK CFI 3d782 .cfa: $rsp 24 +
STACK CFI 3d783 .cfa: $rsp 16 +
STACK CFI 3d784 .cfa: $rsp 8 +
STACK CFI 3d788 .cfa: $rsp 80 +
STACK CFI INIT 3d810 b1 .cfa: $rsp 8 + .ra: .cfa -8 + ^
STACK CFI 3d811 $rbp: .cfa -16 + ^ .cfa: $rsp 16 +
STACK CFI 3d812 $rbx: .cfa -24 + ^ .cfa: $rsp 24 +
STACK CFI 3d816 .cfa: $rsp 80 +
STACK CFI 3d842 .cfa: $rsp 24 +
STACK CFI 3d843 .cfa: $rsp 16 +
STACK CFI 3d844 .cfa: $rsp 8 +
STACK CFI 3d848 .cfa: $rsp 80 +
STACK CFI INIT 91020 ac .cfa: $rsp 8 + .ra: .cfa -8 + ^
STACK CFI 91021 $rbp: .cfa -16 + ^ .cfa: $rsp 16 +
STACK CFI 91022 $rbx: .cfa -24 + ^ .cfa: $rsp 24 +
STACK CFI 91026 .cfa: $rsp 48 +
STACK CFI 91037 .cfa: $rsp 24 +
STACK CFI 91038 .cfa: $rsp 16 +
STACK CFI 91039 .cfa: $rsp 8 +
STACK CFI 91040 .cfa: $rsp 48 +
STACK CFI 91098 .cfa: $rsp 24 +
STACK CFI 9109b .cfa: $rsp 16 +
STACK CFI 9109c .cfa: $rsp 8 +
STACK CFI 9109d .cfa: $rsp 48 +
STACK CFI INIT 910d0 ac .cfa: $rsp 8 + .ra: .cfa -8 + ^
STACK CFI 910d1 $rbp: .cfa -16 + ^ .cfa: $rsp 16 +
STACK CFI 910d2 $rbx: .cfa -24 + ^ .cfa: $rsp 24 +
STACK CFI 910d6 .cfa: $rsp 48 +
STACK CFI 910e7 .cfa: $rsp 24 +
STACK CFI 910e8 .cfa: $rsp 16 +
STACK CFI 910e9 .cfa: $rsp 8 +
STACK CFI 910f0 .cfa: $rsp 48 +
STACK CFI 91148 .cfa: $rsp 24 +
STACK CFI 9114b .cfa: $rsp 16 +
STACK CFI 9114c .cfa: $rsp 8 +
STACK CFI 9114d .cfa: $rsp 48 +
STACK CFI INIT 3d8d0 2bc .cfa: $rsp 8 + .ra: .cfa -8 + ^
STACK CFI 3d8d2 $r14: .cfa -16 + ^ .cfa: $rsp 16 +
STACK CFI 3d8d4 $r13: .cfa -24 + ^ .cfa: $rsp 24 +
STACK CFI 3d8d6 $r12: .cfa -32 + ^ .cfa: $rsp 32 +
STACK CFI 3d8d7 $rbp: .cfa -40 + ^ .cfa: $rsp 40 +
STACK CFI 3d8d8 $rbx: .cfa -48 + ^ .cfa: $rsp 48 +
STACK CFI 3d8df .cfa: $rsp 96 +
STACK CFI 3d902 .cfa: $rsp 48 +
STACK CFI 3d903 .cfa: $rsp 40 +
STACK CFI 3d904 .cfa: $rsp 32 +
STACK CFI 3d906 .cfa: $rsp 24 +
STACK CFI 3d908 .cfa: $rsp 16 +
STACK CFI 3d90a .cfa: $rsp 8 +
STACK CFI 3d910 .cfa: $rsp 96 +
STACK CFI 3da2b .cfa: $rsp 48 +
STACK CFI 3da2c .cfa: $rsp 40 +
STACK CFI 3da2d .cfa: $rsp 32 +
STACK CFI 3da2f .cfa: $rsp 24 +
STACK CFI 3da31 .cfa: $rsp 16 +
STACK CFI 3da33 .cfa: $rsp 8 +
STACK CFI 3da38 .cfa: $rsp 96 +
STACK CFI INIT 3db90 21 .cfa: $rsp 8 + .ra: .cfa -8 + ^
STACK CFI 3db91 $rbx: .cfa -16 + ^ .cfa: $rsp 16 +
STACK CFI 3dbb0 .cfa: $rsp 8 +
STACK CFI INIT 3dbc0 21 .cfa: $rsp 8 + .ra: .cfa -8 + ^
STACK CFI 3dbc1 $rbx: .cfa -16 + ^ .cfa: $rsp 16 +
STACK CFI 3dbe0 .cfa: $rsp 8 +
STACK CFI INIT 3dbf0 46 .cfa: $rsp 8 + .ra: .cfa -8 + ^
STACK CFI 3dbf1 $rbx: .cfa -16 + ^ .cfa: $rsp 16 +
STACK CFI 3dc11 .cfa: $rsp 8 +
STACK CFI 3dc20 .cfa: $rsp 16 +
STACK CFI INIT 3dc40 16f .cfa: $rsp 8 + .ra: .cfa -8 + ^
STACK CFI 3dc44 .cfa: $rsp 32 +
STACK CFI 3dcdb .cfa: $rsp 8 +
STACK CFI 3dce0 .cfa: $rsp 32 +
STACK CFI 3dcee .cfa: $rsp 8 +
STACK CFI 3dcf0 .cfa: $rsp 32 +
STACK CFI INIT 91180 32 .cfa: $rsp 8 + .ra: .cfa -8 + ^
STACK CFI 91184 .cfa: $rsp 48 +
STACK CFI 911b1 .cfa: $rsp 8 +
STACK CFI INIT 3ddb0 7d .cfa: $rsp 8 + .ra: .cfa -8 + ^
STACK CFI 3ddb1 $rbp: .cfa -16 + ^ .cfa: $rsp 16 +
STACK CFI 3ddbd $rbx: .cfa -24 + ^ .cfa: $rsp 24 +
STACK CFI 3ddc4 .cfa: $rsp 48 +
STACK CFI 3de00 .cfa: $rsp 24 +
STACK CFI 3de01 .cfa: $rsp 16 +
STACK CFI 3de02 .cfa: $rsp 8 +
STACK CFI 3de08 .cfa: $rsp 48 +
STACK CFI 3de2a .cfa: $rsp 24 +
STACK CFI 3de2b .cfa: $rsp 16 +
STACK CFI 3de2c .cfa: $rsp 8 +
STACK CFI INIT 3de30 a .cfa: $rsp 8 + .ra: .cfa -8 + ^
STACK CFI INIT 3de40 a .cfa: $rsp 8 + .ra: .cfa -8 + ^
STACK CFI INIT 3de50 4 .cfa: $rsp 8 + .ra: .cfa -8 + ^
STACK CFI INIT 3de60 5 .cfa: $rsp 8 + .ra: .cfa -8 + ^
STACK CFI INIT 3de70 4a .cfa: $rsp 8 + .ra: .cfa -8 + ^
STACK CFI INIT 3dec0 99 .cfa: $rsp 8 + .ra: .cfa -8 + ^
STACK CFI 3dec1 $rbp: .cfa -16 + ^ .cfa: $rsp 16 +
STACK CFI 3dec2 $rbx: .cfa -24 + ^ .cfa: $rsp 24 +
STACK CFI 3dec9 .cfa: $rsp 48 +
STACK CFI 3def2 .cfa: $rsp 24 +
STACK CFI 3def3 .cfa: $rsp 16 +
STACK CFI 3def4 .cfa: $rsp 8 +
STACK CFI 3def8 .cfa: $rsp 48 +
STACK CFI 3df32 .cfa: $rsp 24 +
STACK CFI 3df33 .cfa: $rsp 16 +
STACK CFI 3df34 .cfa: $rsp 8 +
STACK CFI 3df38 .cfa: $rsp 48 +
STACK CFI INIT 3df60 21 .cfa: $rsp 8 + .ra: .cfa -8 + ^
STACK CFI 3df61 $rbx: .cfa -16 + ^ .cfa: $rsp 16 +
STACK CFI 3df70 .cfa: $rsp 8 +
STACK CFI 3df78 .cfa: $rsp 16 +
STACK CFI 3df7c .cfa: $rsp 8 +
STACK CFI INIT 3df90 b1 .cfa: $rsp 8 + .ra: .cfa -8 + ^
STACK CFI 3df92 $r12: .cfa -16 + ^ .cfa: $rsp 16 +
STACK CFI 3df96 $rbp: .cfa -24 + ^ .cfa: $rsp 24 +
STACK CFI 3df9a $rbx: .cfa -32 + ^ .cfa: $rsp 32 +
STACK CFI 3dfa1 .cfa: $rsp 64 +
STACK CFI 3e03c .cfa: $rsp 32 +
STACK CFI 3e03d .cfa: $rsp 24 +
STACK CFI 3e03e .cfa: $rsp 16 +
STACK CFI 3e040 .cfa: $rsp 8 +
STACK CFI INIT 3e050 b1 .cfa: $rsp 8 + .ra: .cfa -8 + ^
STACK CFI 3e052 $r12: .cfa -16 + ^ .cfa: $rsp 16 +
STACK CFI 3e056 $rbp: .cfa -24 + ^ .cfa: $rsp 24 +
STACK CFI 3e05a $rbx: .cfa -32 + ^ .cfa: $rsp 32 +
STACK CFI 3e061 .cfa: $rsp 64 +
STACK CFI 3e0fc .cfa: $rsp 32 +
STACK CFI 3e0fd .cfa: $rsp 24 +
STACK CFI 3e0fe .cfa: $rsp 16 +
STACK CFI 3e100 .cfa: $rsp 8 +
STACK CFI INIT 3e110 21 .cfa: $rsp 8 + .ra: .cfa -8 + ^
STACK CFI 3e111 $rbx: .cfa -16 + ^ .cfa: $rsp 16 +
STACK CFI 3e120 .cfa: $rsp 8 +
STACK CFI 3e128 .cfa: $rsp 16 +
STACK CFI 3e12c .cfa: $rsp 8 +
STACK CFI INIT 3e140 21 .cfa: $rsp 8 + .ra: .cfa -8 + ^
STACK CFI 3e141 $rbx: .cfa -16 + ^ .cfa: $rsp 16 +
STACK CFI 3e150 .cfa: $rsp 8 +
STACK CFI 3e158 .cfa: $rsp 16 +
STACK CFI 3e15c .cfa: $rsp 8 +
STACK CFI INIT 3e170 71 .cfa: $rsp 8 + .ra: .cfa -8 + ^
STACK CFI 3e172 $r12: .cfa -16 + ^ .cfa: $rsp 16 +
STACK CFI 3e17d $rbp: .cfa -24 + ^ .cfa: $rsp 24 +
STACK CFI 3e182 $rbx: .cfa -32 + ^ .cfa: $rsp 32 +
STACK CFI 3e1bd .cfa: $rsp 24 +
STACK CFI 3e1be .cfa: $rsp 16 +
STACK CFI 3e1c0 .cfa: $rsp 8 +
STACK CFI 3e1c1 .cfa: $rsp 32 +
STACK CFI INIT 3e1f0 65 .cfa: $rsp 8 + .ra: .cfa -8 + ^
STACK CFI 3e1f2 $r12: .cfa -16 + ^ .cfa: $rsp 16 +
STACK CFI 3e1f3 $rbp: .cfa -24 + ^ .cfa: $rsp 24 +
STACK CFI 3e1f8 $rbx: .cfa -32 + ^ .cfa: $rsp 32 +
STACK CFI 3e231 .cfa: $rsp 24 +
STACK CFI 3e232 .cfa: $rsp 16 +
STACK CFI 3e234 .cfa: $rsp 8 +
STACK CFI 3e235 .cfa: $rsp 32 +
STACK CFI INIT 3e260 66 .cfa: $rsp 8 + .ra: .cfa -8 + ^
STACK CFI 3e262 $r12: .cfa -16 + ^ .cfa: $rsp 16 +
STACK CFI 3e263 $rbp: .cfa -24 + ^ .cfa: $rsp 24 +
STACK CFI 3e268 $rbx: .cfa -32 + ^ .cfa: $rsp 32 +
STACK CFI 3e2a2 .cfa: $rsp 24 +
STACK CFI 3e2a3 .cfa: $rsp 16 +
STACK CFI 3e2a5 .cfa: $rsp 8 +
STACK CFI 3e2a6 .cfa: $rsp 32 +
STACK CFI INIT 3e2d0 7b .cfa: $rsp 8 + .ra: .cfa -8 + ^
STACK CFI 3e2d2 $r13: .cfa -16 + ^ .cfa: $rsp 16 +
STACK CFI 3e2d7 $r12: .cfa -24 + ^ .cfa: $rsp 24 +
STACK CFI 3e2d8 $rbp: .cfa -32 + ^ .cfa: $rsp 32 +
STACK CFI 3e2dd $rbx: .cfa -40 + ^ .cfa: $rsp 40 +
STACK CFI 3e2e8 .cfa: $rsp 48 +
STACK CFI 3e324 .cfa: $rsp 40 +
STACK CFI 3e325 .cfa: $rsp 32 +
STACK CFI 3e326 .cfa: $rsp 24 +
STACK CFI 3e328 .cfa: $rsp 16 +
STACK CFI 3e32a .cfa: $rsp 8 +
STACK CFI 3e32b .cfa: $rsp 48 +
STACK CFI INIT 3e350 83 .cfa: $rsp 8 + .ra: .cfa -8 + ^
STACK CFI 3e352 $r13: .cfa -16 + ^ .cfa: $rsp 16 +
STACK CFI 3e359 $r12: .cfa -24 + ^ .cfa: $rsp 24 +
STACK CFI 3e35a $rbp: .cfa -32 + ^ .cfa: $rsp 32 +
STACK CFI 3e35f $rbx: .cfa -40 + ^ .cfa: $rsp 40 +
STACK CFI 3e36a .cfa: $rsp 48 +
STACK CFI 3e3ac .cfa: $rsp 40 +
STACK CFI 3e3ad .cfa: $rsp 32 +
STACK CFI 3e3ae .cfa: $rsp 24 +
STACK CFI 3e3b0 .cfa: $rsp 16 +
STACK CFI 3e3b2 .cfa: $rsp 8 +
STACK CFI 3e3b3 .cfa: $rsp 48 +
STACK CFI INIT 3e3e0 5 .cfa: $rsp 8 + .ra: .cfa -8 + ^
STACK CFI INIT 3e3f0 4 .cfa: $rsp 8 + .ra: .cfa -8 + ^
STACK CFI INIT 3e400 d .cfa: $rsp 8 + .ra: .cfa -8 + ^
STACK CFI INIT 3e410 9 .cfa: $rsp 8 + .ra: .cfa -8 + ^
STACK CFI INIT 3e420 28 .cfa: $rsp 8 + .ra: .cfa -8 + ^
STACK CFI 3e421 $rbp: .cfa -16 + ^ .cfa: $rsp 16 +
STACK CFI 3e42a $rbx: .cfa -24 + ^ .cfa: $rsp 24 +
STACK CFI 3e431 .cfa: $rsp 32 +
STACK CFI 3e43a .cfa: $rsp 24 +
STACK CFI 3e442 .cfa: $rsp 16 +
STACK CFI 3e443 .cfa: $rsp 8 +
STACK CFI INIT 3e450 28 .cfa: $rsp 8 + .ra: .cfa -8 + ^
STACK CFI 3e451 $rbp: .cfa -16 + ^ .cfa: $rsp 16 +
STACK CFI 3e45a $rbx: .cfa -24 + ^ .cfa: $rsp 24 +
STACK CFI 3e461 .cfa: $rsp 32 +
STACK CFI 3e46a .cfa: $rsp 24 +
STACK CFI 3e472 .cfa: $rsp 16 +
STACK CFI 3e473 .cfa: $rsp 8 +
STACK CFI INIT 3e480 32 .cfa: $rsp 8 + .ra: .cfa -8 + ^
STACK CFI 3e481 $rbp: .cfa -16 + ^ .cfa: $rsp 16 +
STACK CFI 3e489 $rbx: .cfa -24 + ^ .cfa: $rsp 24 +
STACK CFI 3e490 .cfa: $rsp 32 +
STACK CFI 3e4a4 .cfa: $rsp 24 +
STACK CFI 3e4ac .cfa: $rsp 16 +
STACK CFI 3e4ad .cfa: $rsp 8 +
STACK CFI INIT 3e4c0 dc9 .cfa: $rsp 8 + .ra: .cfa -8 + ^
STACK CFI 3e4c2 $r13: .cfa -16 + ^ .cfa: $rsp 16 +
STACK CFI 3e4c4 $r12: .cfa -24 + ^ .cfa: $rsp 24 +
STACK CFI 3e4c5 $rbp: .cfa -32 + ^ .cfa: $rsp 32 +
STACK CFI 3e4c6 $rbx: .cfa -40 + ^ .cfa: $rsp 40 +
STACK CFI 3e4d0 .cfa: $rsp 240 +
STACK CFI 3e5d7 .cfa: $rsp 40 +
STACK CFI 3e5d8 .cfa: $rsp 32 +
STACK CFI 3e5d9 .cfa: $rsp 24 +
STACK CFI 3e5db .cfa: $rsp 16 +
STACK CFI 3e5dd .cfa: $rsp 8 +
STACK CFI 3e5e0 .cfa: $rsp 240 +
STACK CFI 3e84c .cfa: $rsp 40 +
STACK CFI 3e84d .cfa: $rsp 32 +
STACK CFI 3e84e .cfa: $rsp 24 +
STACK CFI 3e850 .cfa: $rsp 16 +
STACK CFI 3e852 .cfa: $rsp 8 +
STACK CFI 3e858 .cfa: $rsp 240 +
STACK CFI 3ebee .cfa: $rsp 40 +
STACK CFI 3ebef .cfa: $rsp 32 +
STACK CFI 3ebf0 .cfa: $rsp 24 +
STACK CFI 3ebf2 .cfa: $rsp 16 +
STACK CFI 3ebf4 .cfa: $rsp 8 +
STACK CFI 3ebf8 .cfa: $rsp 240 +
STACK CFI 3f091 .cfa: $rsp 40 +
STACK CFI 3f092 .cfa: $rsp 32 +
STACK CFI 3f093 .cfa: $rsp 24 +
STACK CFI 3f095 .cfa: $rsp 16 +
STACK CFI 3f097 .cfa: $rsp 8 +
STACK CFI 3f0a0 .cfa: $rsp 240 +
STACK CFI INIT 3f290 5 .cfa: $rsp 8 + .ra: .cfa -8 + ^
STACK CFI INIT 3f2a0 58 .cfa: $rsp 8 + .ra: .cfa -8 + ^
STACK CFI 3f2a2 $r12: .cfa -16 + ^ .cfa: $rsp 16 +
STACK CFI 3f2a6 $rbp: .cfa -24 + ^ .cfa: $rsp 24 +
STACK CFI 3f2aa $rbx: .cfa -32 + ^ .cfa: $rsp 32 +
STACK CFI 3f2f4 .cfa: $rsp 24 +
STACK CFI 3f2f5 .cfa: $rsp 16 +
STACK CFI 3f2f7 .cfa: $rsp 8 +
STACK CFI INIT 3f300 5 .cfa: $rsp 8 + .ra: .cfa -8 + ^
STACK CFI INIT 3f310 5 .cfa: $rsp 8 + .ra: .cfa -8 + ^
STACK CFI INIT 3f320 5 .cfa: $rsp 8 + .ra: .cfa -8 + ^
STACK CFI INIT 3f330 43 .cfa: $rsp 8 + .ra: .cfa -8 + ^
STACK CFI INIT 3f380 c1 .cfa: $rsp 8 + .ra: .cfa -8 + ^
STACK CFI 3f38a $r12: .cfa -16 + ^ .cfa: $rsp 16 +
STACK CFI 3f38b $rbp: .cfa -24 + ^ .cfa: $rsp 24 +
STACK CFI 3f38f $rbx: .cfa -32 + ^ .cfa: $rsp 32 +
STACK CFI 3f40d $rbx: $rbx .cfa: $rsp 24 +
STACK CFI 3f40e $rbp: $rbp .cfa: $rsp 16 +
STACK CFI 3f418 $r12: $r12 .cfa: $rsp 8 +
STACK CFI 3f428 $r12: .cfa -16 + ^ $rbp: .cfa -24 + ^ $rbx: .cfa -32 + ^ .cfa: $rsp 32 +
STACK CFI 3f429 $rbx: $rbx .cfa: $rsp 24 +
STACK CFI 3f42a $rbp: $rbp .cfa: $rsp 16 +
STACK CFI 3f434 $r12: $r12 .cfa: $rsp 8 +
STACK CFI INIT 3f450 233 .cfa: $rsp 8 + .ra: .cfa -8 + ^
STACK CFI 3f452 $r12: .cfa -16 + ^ .cfa: $rsp 16 +
STACK CFI 3f453 $rbp: .cfa -24 + ^ .cfa: $rsp 24 +
STACK CFI 3f454 $rbx: .cfa -32 + ^ .cfa: $rsp 32 +
STACK CFI 3f45b .cfa: $rsp 112 +
STACK CFI 3f54a .cfa: $rsp 32 +
STACK CFI 3f54b .cfa: $rsp 24 +
STACK CFI 3f54c .cfa: $rsp 16 +
STACK CFI 3f54e .cfa: $rsp 8 +
STACK CFI 3f550 .cfa: $rsp 112 +
STACK CFI 3f5ac .cfa: $rsp 32 +
STACK CFI 3f5ad .cfa: $rsp 24 +
STACK CFI 3f5ae .cfa: $rsp 16 +
STACK CFI 3f5b0 .cfa: $rsp 8 +
STACK CFI 3f5b8 .cfa: $rsp 112 +
STACK CFI INIT 3f690 aa .cfa: $rsp 8 + .ra: .cfa -8 + ^
STACK CFI 3f692 $r12: .cfa -16 + ^ .cfa: $rsp 16 +
STACK CFI 3f699 $rbp: .cfa -24 + ^ .cfa: $rsp 24 +
STACK CFI 3f69d $rbx: .cfa -32 + ^ .cfa: $rsp 32 +
STACK CFI 3f6f3 .cfa: $rsp 24 +
STACK CFI 3f6f4 .cfa: $rsp 16 +
STACK CFI 3f6f6 .cfa: $rsp 8 +
STACK CFI 3f700 .cfa: $rsp 32 +
STACK CFI 3f701 .cfa: $rsp 24 +
STACK CFI 3f702 .cfa: $rsp 16 +
STACK CFI 3f704 .cfa: $rsp 8 +
STACK CFI 3f708 .cfa: $rsp 32 +
STACK CFI INIT 3f740 72 .cfa: $rsp 8 + .ra: .cfa -8 + ^
STACK CFI INIT 3f7c0 e .cfa: $rsp 8 + .ra: .cfa -8 + ^
STACK CFI INIT 3f7d0 e .cfa: $rsp 8 + .ra: .cfa -8 + ^
STACK CFI INIT 3f7e0 e .cfa: $rsp 8 + .ra: .cfa -8 + ^
STACK CFI INIT 3f7f0 e .cfa: $rsp 8 + .ra: .cfa -8 + ^
STACK CFI INIT 3f800 e .cfa: $rsp 8 + .ra: .cfa -8 + ^
STACK CFI INIT 3f810 e .cfa: $rsp 8 + .ra: .cfa -8 + ^
STACK CFI INIT 3f820 b .cfa: $rsp 8 + .ra: .cfa -8 + ^
STACK CFI INIT 3f830 e .cfa: $rsp 8 + .ra: .cfa -8 + ^
STACK CFI INIT 3f840 3d0 .cfa: $rsp 8 + .ra: .cfa -8 + ^
STACK CFI 3f842 $r15: .cfa -16 + ^ .cfa: $rsp 16 +
STACK CFI 3f844 $r14: .cfa -24 + ^ .cfa: $rsp 24 +
STACK CFI 3f849 $r13: .cfa -32 + ^ .cfa: $rsp 32 +
STACK CFI 3f84b $r12: .cfa -40 + ^ .cfa: $rsp 40 +
STACK CFI 3f84f $rbp: .cfa -48 + ^ .cfa: $rsp 48 +
STACK CFI 3f853 $rbx: .cfa -56 + ^ .cfa: $rsp 56 +
STACK CFI 3f859 .cfa: $rsp 80 +
STACK CFI 3f9b2 .cfa: $rsp 56 +
STACK CFI 3f9b3 .cfa: $rsp 48 +
STACK CFI 3f9b4 .cfa: $rsp 40 +
STACK CFI 3f9b6 .cfa: $rsp 32 +
STACK CFI 3f9b8 .cfa: $rsp 24 +
STACK CFI 3f9ba .cfa: $rsp 16 +
STACK CFI 3f9bc .cfa: $rsp 8 +
STACK CFI 3f9c0 .cfa: $rsp 80 +
STACK CFI INIT 3fc10 410 .cfa: $rsp 8 + .ra: .cfa -8 + ^
STACK CFI 3fc12 $r15: .cfa -16 + ^ .cfa: $rsp 16 +
STACK CFI 3fc14 $r14: .cfa -24 + ^ .cfa: $rsp 24 +
STACK CFI 3fc19 $r13: .cfa -32 + ^ .cfa: $rsp 32 +
STACK CFI 3fc1b $r12: .cfa -40 + ^ .cfa: $rsp 40 +
STACK CFI 3fc1f $rbp: .cfa -48 + ^ .cfa: $rsp 48 +
STACK CFI 3fc23 $rbx: .cfa -56 + ^ .cfa: $rsp 56 +
STACK CFI 3fc29 .cfa: $rsp 96 +
STACK CFI 3fd9b .cfa: $rsp 56 +
STACK CFI 3fd9c .cfa: $rsp 48 +
STACK CFI 3fd9d .cfa: $rsp 40 +
STACK CFI 3fd9f .cfa: $rsp 32 +
STACK CFI 3fda1 .cfa: $rsp 24 +
STACK CFI 3fda3 .cfa: $rsp 16 +
STACK CFI 3fda5 .cfa: $rsp 8 +
STACK CFI 3fdb0 .cfa: $rsp 96 +
STACK CFI INIT 40020 14d .cfa: $rsp 8 + .ra: .cfa -8 + ^
STACK CFI 40022 $r15: .cfa -16 + ^ .cfa: $rsp 16 +
STACK CFI 40027 $r14: .cfa -24 + ^ .cfa: $rsp 24 +
STACK CFI 40029 $r13: .cfa -32 + ^ .cfa: $rsp 32 +
STACK CFI 4002b $r12: .cfa -40 + ^ .cfa: $rsp 40 +
STACK CFI 4002f $rbp: .cfa -48 + ^ .cfa: $rsp 48 +
STACK CFI 40033 $rbx: .cfa -56 + ^ .cfa: $rsp 56 +
STACK CFI 40037 .cfa: $rsp 96 +
STACK CFI 40156 .cfa: $rsp 56 +
STACK CFI 40157 .cfa: $rsp 48 +
STACK CFI 40158 .cfa: $rsp 40 +
STACK CFI 4015a .cfa: $rsp 32 +
STACK CFI 4015c .cfa: $rsp 24 +
STACK CFI 4015e .cfa: $rsp 16 +
STACK CFI 40160 .cfa: $rsp 8 +
STACK CFI 40168 .cfa: $rsp 96 +
STACK CFI INIT 40170 14d .cfa: $rsp 8 + .ra: .cfa -8 + ^
STACK CFI 40172 $r15: .cfa -16 + ^ .cfa: $rsp 16 +
STACK CFI 40177 $r14: .cfa -24 + ^ .cfa: $rsp 24 +
STACK CFI 40179 $r13: .cfa -32 + ^ .cfa: $rsp 32 +
STACK CFI 4017b $r12: .cfa -40 + ^ .cfa: $rsp 40 +
STACK CFI 4017f $rbp: .cfa -48 + ^ .cfa: $rsp 48 +
STACK CFI 40183 $rbx: .cfa -56 + ^ .cfa: $rsp 56 +
STACK CFI 40187 .cfa: $rsp 96 +
STACK CFI 402a6 .cfa: $rsp 56 +
STACK CFI 402a7 .cfa: $rsp 48 +
STACK CFI 402a8 .cfa: $rsp 40 +
STACK CFI 402aa .cfa: $rsp 32 +
STACK CFI 402ac .cfa: $rsp 24 +
STACK CFI 402ae .cfa: $rsp 16 +
STACK CFI 402b0 .cfa: $rsp 8 +
STACK CFI 402b8 .cfa: $rsp 96 +
STACK CFI INIT 402c0 174 .cfa: $rsp 8 + .ra: .cfa -8 + ^
STACK CFI 402c2 $r14: .cfa -16 + ^ .cfa: $rsp 16 +
STACK CFI 402c7 $r13: .cfa -24 + ^ .cfa: $rsp 24 +
STACK CFI 402cc $r12: .cfa -32 + ^ .cfa: $rsp 32 +
STACK CFI 402cd $rbp: .cfa -40 + ^ .cfa: $rsp 40 +
STACK CFI 402ce $rbx: .cfa -48 + ^ .cfa: $rsp 48 +
STACK CFI 402d4 .cfa: $rsp 64 +
STACK CFI 4041f .cfa: $rsp 48 +
STACK CFI 40420 .cfa: $rsp 40 +
STACK CFI 40421 .cfa: $rsp 32 +
STACK CFI 40423 .cfa: $rsp 24 +
STACK CFI 40425 .cfa: $rsp 16 +
STACK CFI 40427 .cfa: $rsp 8 +
STACK CFI 40430 .cfa: $rsp 64 +
STACK CFI INIT 40440 1c4 .cfa: $rsp 8 + .ra: .cfa -8 + ^
STACK CFI 40442 $r14: .cfa -16 + ^ .cfa: $rsp 16 +
STACK CFI 40447 $r13: .cfa -24 + ^ .cfa: $rsp 24 +
STACK CFI 4044c $r12: .cfa -32 + ^ .cfa: $rsp 32 +
STACK CFI 4044d $rbp: .cfa -40 + ^ .cfa: $rsp 40 +
STACK CFI 4044e $rbx: .cfa -48 + ^ .cfa: $rsp 48 +
STACK CFI 40454 .cfa: $rsp 64 +
STACK CFI 405f6 .cfa: $rsp 48 +
STACK CFI 405f7 .cfa: $rsp 40 +
STACK CFI 405f8 .cfa: $rsp 32 +
STACK CFI 405fa .cfa: $rsp 24 +
STACK CFI 405fc .cfa: $rsp 16 +
STACK CFI 405fe .cfa: $rsp 8 +
STACK CFI 40600 .cfa: $rsp 64 +
STACK CFI INIT 40610 a .cfa: $rsp 8 + .ra: .cfa -8 + ^
STACK CFI INIT 40620 12 .cfa: $rsp 8 + .ra: .cfa -8 + ^
STACK CFI INIT 40640 1a .cfa: $rsp 8 + .ra: .cfa -8 + ^
STACK CFI INIT 40660 e .cfa: $rsp 8 + .ra: .cfa -8 + ^
STACK CFI INIT 40670 165 .cfa: $rsp 8 + .ra: .cfa -8 + ^
STACK CFI 40674 .cfa: $rsp 48 +
STACK CFI 406ed .cfa: $rsp 8 +
STACK CFI 406f0 .cfa: $rsp 48 +
STACK CFI INIT 407e0 d8 .cfa: $rsp 8 + .ra: .cfa -8 + ^
STACK CFI 407e1 $rbp: .cfa -16 + ^ .cfa: $rsp 16 +
STACK CFI 407e5 $rbx: .cfa -24 + ^ .cfa: $rsp 24 +
STACK CFI 407eb .cfa: $rsp 48 +
STACK CFI 4084f .cfa: $rsp 24 +
STACK CFI 40850 .cfa: $rsp 16 +
STACK CFI 40851 .cfa: $rsp 8 +
STACK CFI 40858 .cfa: $rsp 48 +
STACK CFI INIT 408c0 d8 .cfa: $rsp 8 + .ra: .cfa -8 + ^
STACK CFI 408c1 $rbp: .cfa -16 + ^ .cfa: $rsp 16 +
STACK CFI 408c5 $rbx: .cfa -24 + ^ .cfa: $rsp 24 +
STACK CFI 408cb .cfa: $rsp 48 +
STACK CFI 4092f .cfa: $rsp 24 +
STACK CFI 40930 .cfa: $rsp 16 +
STACK CFI 40931 .cfa: $rsp 8 +
STACK CFI 40938 .cfa: $rsp 48 +
STACK CFI INIT 409a0 25 .cfa: $rsp 8 + .ra: .cfa -8 + ^
STACK CFI INIT 409d0 2c .cfa: $rsp 8 + .ra: .cfa -8 + ^
STACK CFI 409d4 .cfa: $rsp 32 +
STACK CFI 409fb .cfa: $rsp 8 +
STACK CFI INIT 40a00 eb .cfa: $rsp 8 + .ra: .cfa -8 + ^
STACK CFI 40a01 $rbx: .cfa -16 + ^ .cfa: $rsp 16 +
STACK CFI 40a05 .cfa: $rsp 32 +
STACK CFI 40a6f .cfa: $rsp 16 +
STACK CFI 40a70 .cfa: $rsp 8 +
STACK CFI 40a78 .cfa: $rsp 32 +
STACK CFI INIT 40af0 2f .cfa: $rsp 8 + .ra: .cfa -8 + ^
STACK CFI 40af1 $rbx: .cfa -16 + ^ .cfa: $rsp 16 +
STACK CFI 40af5 .cfa: $rsp 32 +
STACK CFI 40b1d .cfa: $rsp 16 +
STACK CFI 40b1e .cfa: $rsp 8 +
STACK CFI INIT 40b20 1b .cfa: $rsp 8 + .ra: .cfa -8 + ^
STACK CFI INIT 40b40 6a .cfa: $rsp 8 + .ra: .cfa -8 + ^
STACK CFI INIT 40bb0 7a .cfa: $rsp 8 + .ra: .cfa -8 + ^
STACK CFI INIT 40c30 62 .cfa: $rsp 8 + .ra: .cfa -8 + ^
STACK CFI INIT 40ca0 370 .cfa: $rsp 8 + .ra: .cfa -8 + ^
STACK CFI 40ca2 $r14: .cfa -16 + ^ .cfa: $rsp 16 +
STACK CFI 40ca4 $r13: .cfa -24 + ^ .cfa: $rsp 24 +
STACK CFI 40ca6 $r12: .cfa -32 + ^ .cfa: $rsp 32 +
STACK CFI 40ca7 $rbp: .cfa -40 + ^ .cfa: $rsp 40 +
STACK CFI 40cab $rbx: .cfa -48 + ^ .cfa: $rsp 48 +
STACK CFI 40cb1 .cfa: $rsp 80 +
STACK CFI 40fa4 .cfa: $rsp 48 +
STACK CFI 40fa5 .cfa: $rsp 40 +
STACK CFI 40fa6 .cfa: $rsp 32 +
STACK CFI 40fa8 .cfa: $rsp 24 +
STACK CFI 40faa .cfa: $rsp 16 +
STACK CFI 40fac .cfa: $rsp 8 +
STACK CFI 40fb0 .cfa: $rsp 80 +
STACK CFI INIT 41010 68 .cfa: $rsp 8 + .ra: .cfa -8 + ^
STACK CFI INIT 41080 43 .cfa: $rsp 8 + .ra: .cfa -8 + ^
STACK CFI INIT 410d0 7 .cfa: $rsp 8 + .ra: .cfa -8 + ^
STACK CFI INIT 410e0 2f .cfa: $rsp 8 + .ra: .cfa -8 + ^
STACK CFI 410e4 .cfa: $rsp 16 +
STACK CFI 41104 .cfa: $rsp 8 +
STACK CFI 41108 .cfa: $rsp 16 +
STACK CFI 4110e .cfa: $rsp 8 +
STACK CFI INIT 41110 31 .cfa: $rsp 8 + .ra: .cfa -8 + ^
STACK CFI 41111 $rbx: .cfa -16 + ^ .cfa: $rsp 16 +
STACK CFI 41118 .cfa: $rsp 32 +
STACK CFI 4113f .cfa: $rsp 16 +
STACK CFI 41140 .cfa: $rsp 8 +
STACK CFI INIT 41150 5c .cfa: $rsp 8 + .ra: .cfa -8 + ^
STACK CFI 41151 $rbp: .cfa -16 + ^ .cfa: $rsp 16 +
STACK CFI 41155 $rbx: .cfa -24 + ^ .cfa: $rsp 24 +
STACK CFI 41159 .cfa: $rsp 32 +
STACK CFI 411a8 .cfa: $rsp 24 +
STACK CFI 411a9 .cfa: $rsp 16 +
STACK CFI 411aa .cfa: $rsp 8 +
STACK CFI INIT 411b0 55 .cfa: $rsp 8 + .ra: .cfa -8 + ^
STACK CFI 411b4 .cfa: $rsp 16 +
STACK CFI 411d6 .cfa: $rsp 8 +
STACK CFI 411e0 .cfa: $rsp 16 +
STACK CFI 41204 .cfa: $rsp 8 +
STACK CFI INIT 41210 32 .cfa: $rsp 8 + .ra: .cfa -8 + ^
STACK CFI INIT 41250 18 .cfa: $rsp 8 + .ra: .cfa -8 + ^
STACK CFI 41254 .cfa: $rsp 32 +
STACK CFI 41267 .cfa: $rsp 8 +
STACK CFI INIT 41270 32 .cfa: $rsp 8 + .ra: .cfa -8 + ^
STACK CFI INIT 412b0 18 .cfa: $rsp 8 + .ra: .cfa -8 + ^
STACK CFI 412b4 .cfa: $rsp 32 +
STACK CFI 412c7 .cfa: $rsp 8 +
STACK CFI INIT 412d0 1c6 .cfa: $rsp 8 + .ra: .cfa -8 + ^
STACK CFI 412d2 $r12: .cfa -16 + ^ .cfa: $rsp 16 +
STACK CFI 412d3 $rbp: .cfa -24 + ^ .cfa: $rsp 24 +
STACK CFI 412d4 $rbx: .cfa -32 + ^ .cfa: $rsp 32 +
STACK CFI 412db .cfa: $rsp 112 +
STACK CFI 4130c .cfa: $rsp 32 +
STACK CFI 4130d .cfa: $rsp 24 +
STACK CFI 4130e .cfa: $rsp 16 +
STACK CFI 41310 .cfa: $rsp 8 +
STACK CFI 41318 .cfa: $rsp 112 +
STACK CFI 413f8 .cfa: $rsp 32 +
STACK CFI 413f9 .cfa: $rsp 24 +
STACK CFI 413fa .cfa: $rsp 16 +
STACK CFI 413fc .cfa: $rsp 8 +
STACK CFI 41400 .cfa: $rsp 112 +
STACK CFI INIT 414a0 1a4 .cfa: $rsp 8 + .ra: .cfa -8 + ^
STACK CFI 414a2 $r12: .cfa -16 + ^ .cfa: $rsp 16 +
STACK CFI 414a3 $rbp: .cfa -24 + ^ .cfa: $rsp 24 +
STACK CFI 414a4 $rbx: .cfa -32 + ^ .cfa: $rsp 32 +
STACK CFI 414ab .cfa: $rsp 112 +
STACK CFI 414d5 .cfa: $rsp 32 +
STACK CFI 414d6 .cfa: $rsp 24 +
STACK CFI 414d7 .cfa: $rsp 16 +
STACK CFI 414d9 .cfa: $rsp 8 +
STACK CFI 414e0 .cfa: $rsp 112 +
STACK CFI 415c5 .cfa: $rsp 32 +
STACK CFI 415c6 .cfa: $rsp 24 +
STACK CFI 415c7 .cfa: $rsp 16 +
STACK CFI 415c9 .cfa: $rsp 8 +
STACK CFI 415ca .cfa: $rsp 112 +
STACK CFI INIT 41650 2a3 .cfa: $rsp 8 + .ra: .cfa -8 + ^
STACK CFI 41652 $r13: .cfa -16 + ^ .cfa: $rsp 16 +
STACK CFI 41654 $r12: .cfa -24 + ^ .cfa: $rsp 24 +
STACK CFI 41658 $rbp: .cfa -32 + ^ .cfa: $rsp 32 +
STACK CFI 4165b $rbx: .cfa -40 + ^ .cfa: $rsp 40 +
STACK CFI 4165f .cfa: $rsp 96 +
STACK CFI 416bd .cfa: $rsp 40 +
STACK CFI 416be .cfa: $rsp 32 +
STACK CFI 416bf .cfa: $rsp 24 +
STACK CFI 416c1 .cfa: $rsp 16 +
STACK CFI 416c3 .cfa: $rsp 8 +
STACK CFI 416c8 .cfa: $rsp 96 +
STACK CFI INIT 41900 e .cfa: $rsp 8 + .ra: .cfa -8 + ^
STACK CFI INIT 41910 23 .cfa: $rsp 8 + .ra: .cfa -8 + ^
STACK CFI INIT 41940 22 .cfa: $rsp 8 + .ra: .cfa -8 + ^
STACK CFI 41941 $rbp: .cfa -16 + ^ .cfa: $rsp 16 +
STACK CFI 41942 $rbx: .cfa -24 + ^ .cfa: $rsp 24 +
STACK CFI 41949 .cfa: $rsp 32 +
STACK CFI 4195c .cfa: $rsp 24 +
STACK CFI 4195d .cfa: $rsp 16 +
STACK CFI 41961 .cfa: $rsp 8 +
STACK CFI INIT 41970 71 .cfa: $rsp 8 + .ra: .cfa -8 + ^
STACK CFI 41972 $r12: .cfa -16 + ^ .cfa: $rsp 16 +
STACK CFI 41975 $rbp: .cfa -24 + ^ .cfa: $rsp 24 +
STACK CFI 41976 $rbx: .cfa -32 + ^ .cfa: $rsp 32 +
STACK CFI 4198b .cfa: $rsp 24 +
STACK CFI 4198c .cfa: $rsp 16 +
STACK CFI 41990 .cfa: $rsp 8 +
STACK CFI 41998 .cfa: $rsp 32 +
STACK CFI 419c5 .cfa: $rsp 24 +
STACK CFI 419c6 .cfa: $rsp 16 +
STACK CFI 419dc .cfa: $rsp 8 +
STACK CFI INIT 419f0 61 .cfa: $rsp 8 + .ra: .cfa -8 + ^
STACK CFI 419f2 $r12: .cfa -16 + ^ .cfa: $rsp 16 +
STACK CFI 419f6 $rbp: .cfa -24 + ^ .cfa: $rsp 24 +
STACK CFI 419f7 $rbx: .cfa -32 + ^ .cfa: $rsp 32 +
STACK CFI 41a0d .cfa: $rsp 24 +
STACK CFI 41a0e .cfa: $rsp 16 +
STACK CFI 41a10 .cfa: $rsp 8 +
STACK CFI 41a18 .cfa: $rsp 32 +
STACK CFI INIT 41a60 7 .cfa: $rsp 8 + .ra: .cfa -8 + ^
STACK CFI INIT 41a70 7 .cfa: $rsp 8 + .ra: .cfa -8 + ^
STACK CFI INIT 41a80 1e2 .cfa: $rsp 8 + .ra: .cfa -8 + ^
STACK CFI 41a82 $r12: .cfa -16 + ^ .cfa: $rsp 16 +
STACK CFI 41a83 $rbp: .cfa -24 + ^ .cfa: $rsp 24 +
STACK CFI 41a89 $rbx: .cfa -32 + ^ .cfa: $rsp 32 +
STACK CFI 41a90 .cfa: $rsp 112 +
STACK CFI 41ab8 .cfa: $rsp 32 +
STACK CFI 41ab9 .cfa: $rsp 24 +
STACK CFI 41aba .cfa: $rsp 16 +
STACK CFI 41abc .cfa: $rsp 8 +
STACK CFI 41ac0 .cfa: $rsp 112 +
STACK CFI 41bb9 .cfa: $rsp 32 +
STACK CFI 41bbc .cfa: $rsp 24 +
STACK CFI 41bbd .cfa: $rsp 16 +
STACK CFI 41bbf .cfa: $rsp 8 +
STACK CFI 41bc0 .cfa: $rsp 112 +
STACK CFI INIT 41c70 1e2 .cfa: $rsp 8 + .ra: .cfa -8 + ^
STACK CFI 41c72 $r12: .cfa -16 + ^ .cfa: $rsp 16 +
STACK CFI 41c73 $rbp: .cfa -24 + ^ .cfa: $rsp 24 +
STACK CFI 41c79 $rbx: .cfa -32 + ^ .cfa: $rsp 32 +
STACK CFI 41c80 .cfa: $rsp 112 +
STACK CFI 41ca5 .cfa: $rsp 32 +
STACK CFI 41ca6 .cfa: $rsp 24 +
STACK CFI 41ca7 .cfa: $rsp 16 +
STACK CFI 41ca9 .cfa: $rsp 8 +
STACK CFI 41cb0 .cfa: $rsp 112 +
STACK CFI 41da9 .cfa: $rsp 32 +
STACK CFI 41dac .cfa: $rsp 24 +
STACK CFI 41dad .cfa: $rsp 16 +
STACK CFI 41daf .cfa: $rsp 8 +
STACK CFI 41db0 .cfa: $rsp 112 +
STACK CFI INIT 41e60 249 .cfa: $rsp 8 + .ra: .cfa -8 + ^
STACK CFI 41e62 $r13: .cfa -16 + ^ .cfa: $rsp 16 +
STACK CFI 41e64 $r12: .cfa -24 + ^ .cfa: $rsp 24 +
STACK CFI 41e68 $rbp: .cfa -32 + ^ .cfa: $rsp 32 +
STACK CFI 41e6c $rbx: .cfa -40 + ^ .cfa: $rsp 40 +
STACK CFI 41e76 .cfa: $rsp 128 +
STACK CFI 41ebd .cfa: $rsp 40 +
STACK CFI 41ec1 .cfa: $rsp 32 +
STACK CFI 41ec2 .cfa: $rsp 24 +
STACK CFI 41ec4 .cfa: $rsp 16 +
STACK CFI 41ec6 .cfa: $rsp 8 +
STACK CFI 41ed0 .cfa: $rsp 128 +
STACK CFI 41ff4 .cfa: $rsp 40 +
STACK CFI 41ff5 .cfa: $rsp 32 +
STACK CFI 41ff6 .cfa: $rsp 24 +
STACK CFI 41ff8 .cfa: $rsp 16 +
STACK CFI 41ffa .cfa: $rsp 8 +
STACK CFI 42000 .cfa: $rsp 128 +
STACK CFI INIT 420b0 25 .cfa: $rsp 8 + .ra: .cfa -8 + ^
STACK CFI INIT 420e0 10 .cfa: $rsp 8 + .ra: .cfa -8 + ^
STACK CFI INIT 420f0 3 .cfa: $rsp 8 + .ra: .cfa -8 + ^
STACK CFI INIT 42100 6 .cfa: $rsp 8 + .ra: .cfa -8 + ^
STACK CFI INIT 42110 6 .cfa: $rsp 8 + .ra: .cfa -8 + ^
STACK CFI INIT 42120 5 .cfa: $rsp 8 + .ra: .cfa -8 + ^
STACK CFI INIT 42130 65 .cfa: $rsp 8 + .ra: .cfa -8 + ^
STACK CFI 4218e .cfa: $rsp 16 +
STACK CFI 42194 .cfa: $rsp 8 +
STACK CFI INIT 421a0 45 .cfa: $rsp 8 + .ra: .cfa -8 + ^
STACK CFI INIT 421f0 bc7 .cfa: $rsp 8 + .ra: .cfa -8 + ^
STACK CFI 421f2 $r15: .cfa -16 + ^ .cfa: $rsp 16 +
STACK CFI 421f4 $r14: .cfa -24 + ^ .cfa: $rsp 24 +
STACK CFI 421f6 $r13: .cfa -32 + ^ .cfa: $rsp 32 +
STACK CFI 421f8 $r12: .cfa -40 + ^ .cfa: $rsp 40 +
STACK CFI 421f9 $rbp: .cfa -48 + ^ .cfa: $rsp 48 +
STACK CFI 421fa $rbx: .cfa -56 + ^ .cfa: $rsp 56 +
STACK CFI 42204 .cfa: $rsp 320 +
STACK CFI 42213 .cfa: $rsp 56 +
STACK CFI 42214 .cfa: $rsp 48 +
STACK CFI 42215 .cfa: $rsp 40 +
STACK CFI 42217 .cfa: $rsp 32 +
STACK CFI 42219 .cfa: $rsp 24 +
STACK CFI 4221b .cfa: $rsp 16 +
STACK CFI 4221d .cfa: $rsp 8 +
STACK CFI 42220 .cfa: $rsp 320 +
STACK CFI INIT 42dc0 59 .cfa: $rsp 8 + .ra: .cfa -8 + ^
STACK CFI 42dc2 $r12: .cfa -16 + ^ .cfa: $rsp 16 +
STACK CFI 42dc6 $rbp: .cfa -24 + ^ .cfa: $rsp 24 +
STACK CFI 42dca $rbx: .cfa -32 + ^ .cfa: $rsp 32 +
STACK CFI 42dd1 .cfa: $rsp 64 +
STACK CFI 42e14 .cfa: $rsp 32 +
STACK CFI 42e15 .cfa: $rsp 24 +
STACK CFI 42e16 .cfa: $rsp 16 +
STACK CFI 42e18 .cfa: $rsp 8 +
STACK CFI INIT 42e20 5 .cfa: $rsp 8 + .ra: .cfa -8 + ^
STACK CFI INIT 42e30 5 .cfa: $rsp 8 + .ra: .cfa -8 + ^
STACK CFI INIT 42e40 5 .cfa: $rsp 8 + .ra: .cfa -8 + ^
STACK CFI INIT 42e50 9 .cfa: $rsp 8 + .ra: .cfa -8 + ^
STACK CFI INIT 42e60 9 .cfa: $rsp 8 + .ra: .cfa -8 + ^
STACK CFI INIT 42e70 9 .cfa: $rsp 8 + .ra: .cfa -8 + ^
STACK CFI INIT 42e80 e .cfa: $rsp 8 + .ra: .cfa -8 + ^
STACK CFI INIT 42e90 10 .cfa: $rsp 8 + .ra: .cfa -8 + ^
STACK CFI INIT 42ea0 e .cfa: $rsp 8 + .ra: .cfa -8 + ^
STACK CFI INIT 42eb0 7f .cfa: $rsp 8 + .ra: .cfa -8 + ^
STACK CFI 42eb1 $rbp: .cfa -16 + ^ .cfa: $rsp 16 +
STACK CFI 42eb5 $rbx: .cfa -24 + ^ .cfa: $rsp 24 +
STACK CFI 42ebc .cfa: $rsp 32 +
STACK CFI 42edf .cfa: $rsp 24 +
STACK CFI 42ee3 .cfa: $rsp 16 +
STACK CFI 42ee4 .cfa: $rsp 8 +
STACK CFI 42ee8 .cfa: $rsp 32 +
STACK CFI 42f16 .cfa: $rsp 24 +
STACK CFI 42f1a .cfa: $rsp 16 +
STACK CFI 42f1b .cfa: $rsp 8 +
STACK CFI 42f1c .cfa: $rsp 32 +
STACK CFI INIT 42f30 e .cfa: $rsp 8 + .ra: .cfa -8 + ^
STACK CFI INIT 42f40 e .cfa: $rsp 8 + .ra: .cfa -8 + ^
STACK CFI INIT 42f50 e .cfa: $rsp 8 + .ra: .cfa -8 + ^
STACK CFI INIT 42f60 e .cfa: $rsp 8 + .ra: .cfa -8 + ^
STACK CFI INIT 42f70 b .cfa: $rsp 8 + .ra: .cfa -8 + ^
STACK CFI INIT 42f80 14 .cfa: $rsp 8 + .ra: .cfa -8 + ^
STACK CFI INIT 42fa0 2a .cfa: $rsp 8 + .ra: .cfa -8 + ^
STACK CFI INIT 42fd0 2a .cfa: $rsp 8 + .ra: .cfa -8 + ^
STACK CFI INIT 43000 201 .cfa: $rsp 8 + .ra: .cfa -8 + ^
STACK CFI 43002 $r12: .cfa -16 + ^ .cfa: $rsp 16 +
STACK CFI 43003 $rbp: .cfa -24 + ^ .cfa: $rsp 24 +
STACK CFI 43004 $rbx: .cfa -32 + ^ .cfa: $rsp 32 +
STACK CFI 43008 .cfa: $rsp 128 +
STACK CFI 43047 .cfa: $rsp 32 +
STACK CFI 43048 .cfa: $rsp 24 +
STACK CFI 43049 .cfa: $rsp 16 +
STACK CFI 4304b .cfa: $rsp 8 +
STACK CFI 43050 .cfa: $rsp 128 +
STACK CFI 43159 .cfa: $rsp 32 +
STACK CFI 4315a .cfa: $rsp 24 +
STACK CFI 4315b .cfa: $rsp 16 +
STACK CFI 4315d .cfa: $rsp 8 +
STACK CFI 4315e .cfa: $rsp 128 +
STACK CFI INIT 43210 c7 .cfa: $rsp 8 + .ra: .cfa -8 + ^
STACK CFI 43211 $rbp: .cfa -16 + ^ .cfa: $rsp 16 +
STACK CFI 43215 $rbx: .cfa -24 + ^ .cfa: $rsp 24 +
STACK CFI 4321c .cfa: $rsp 48 +
STACK CFI 432aa .cfa: $rsp 24 +
STACK CFI 432ab .cfa: $rsp 16 +
STACK CFI 432ac .cfa: $rsp 8 +
STACK CFI 432b0 .cfa: $rsp 48 +
STACK CFI 432b6 .cfa: $rsp 24 +
STACK CFI 432b7 .cfa: $rsp 16 +
STACK CFI 432b8 .cfa: $rsp 8 +
STACK CFI 432c0 .cfa: $rsp 48 +
STACK CFI INIT 432e0 5a .cfa: $rsp 8 + .ra: .cfa -8 + ^
STACK CFI 432e1 $rbx: .cfa -16 + ^ .cfa: $rsp 16 +
STACK CFI 432e8 .cfa: $rsp 32 +
STACK CFI 4330e .cfa: $rsp 16 +
STACK CFI 4330f .cfa: $rsp 8 +
STACK CFI 43310 .cfa: $rsp 32 +
STACK CFI INIT 43340 1a .cfa: $rsp 8 + .ra: .cfa -8 + ^
STACK CFI INIT 43360 1a .cfa: $rsp 8 + .ra: .cfa -8 + ^
STACK CFI INIT 43380 3b .cfa: $rsp 8 + .ra: .cfa -8 + ^
STACK CFI 43382 $r12: .cfa -16 + ^ .cfa: $rsp 16 +
STACK CFI 43383 $rbp: .cfa -24 + ^ .cfa: $rsp 24 +
STACK CFI 43387 $rbx: .cfa -32 + ^ .cfa: $rsp 32 +
STACK CFI 4338e .cfa: $rsp 48 +
STACK CFI 433b6 .cfa: $rsp 32 +
STACK CFI 433b7 .cfa: $rsp 24 +
STACK CFI 433b8 .cfa: $rsp 16 +
STACK CFI 433ba .cfa: $rsp 8 +
STACK CFI INIT 433c0 170 .cfa: $rsp 8 + .ra: .cfa -8 + ^
STACK CFI 433c2 $r15: .cfa -16 + ^ .cfa: $rsp 16 +
STACK CFI 433c4 $r14: .cfa -24 + ^ .cfa: $rsp 24 +
STACK CFI 433c9 $r13: .cfa -32 + ^ .cfa: $rsp 32 +
STACK CFI 433ce $r12: .cfa -40 + ^ .cfa: $rsp 40 +
STACK CFI 433d2 $rbp: .cfa -48 + ^ .cfa: $rsp 48 +
STACK CFI 433d6 $rbx: .cfa -56 + ^ .cfa: $rsp 56 +
STACK CFI 433da .cfa: $rsp 80 +
STACK CFI 43423 .cfa: $rsp 56 +
STACK CFI 43424 .cfa: $rsp 48 +
STACK CFI 43425 .cfa: $rsp 40 +
STACK CFI 43427 .cfa: $rsp 32 +
STACK CFI 43429 .cfa: $rsp 24 +
STACK CFI 4342b .cfa: $rsp 16 +
STACK CFI 4342d .cfa: $rsp 8 +
STACK CFI 43430 .cfa: $rsp 80 +
STACK CFI 43466 .cfa: $rsp 56 +
STACK CFI 43467 .cfa: $rsp 48 +
STACK CFI 43468 .cfa: $rsp 40 +
STACK CFI 4346a .cfa: $rsp 32 +
STACK CFI 4346c .cfa: $rsp 24 +
STACK CFI 4346e .cfa: $rsp 16 +
STACK CFI 43470 .cfa: $rsp 8 +
STACK CFI 43478 .cfa: $rsp 80 +
STACK CFI INIT 43530 f7 .cfa: $rsp 8 + .ra: .cfa -8 + ^
STACK CFI 43531 $rbp: .cfa -16 + ^ .cfa: $rsp 16 +
STACK CFI 4353a $rbx: .cfa -24 + ^ .cfa: $rsp 24 +
STACK CFI 43541 .cfa: $rsp 64 +
STACK CFI 435f8 .cfa: $rsp 24 +
STACK CFI 435f9 .cfa: $rsp 16 +
STACK CFI 435fa .cfa: $rsp 8 +
STACK CFI 43600 .cfa: $rsp 64 +
STACK CFI 4360a .cfa: $rsp 24 +
STACK CFI 4360b .cfa: $rsp 16 +
STACK CFI 4360c .cfa: $rsp 8 +
STACK CFI 43610 .cfa: $rsp 64 +
STACK CFI INIT 43630 41 .cfa: $rsp 8 + .ra: .cfa -8 + ^
STACK CFI INIT 43680 a7 .cfa: $rsp 8 + .ra: .cfa -8 + ^
STACK CFI 43681 $rbp: .cfa -16 + ^ .cfa: $rsp 16 +
STACK CFI 43682 $rbx: .cfa -24 + ^ .cfa: $rsp 24 +
STACK CFI 43689 .cfa: $rsp 48 +
STACK CFI 43699 .cfa: $rsp 24 +
STACK CFI 4369a .cfa: $rsp 16 +
STACK CFI 4369b .cfa: $rsp 8 +
STACK CFI 436a0 .cfa: $rsp 48 +
STACK CFI 4370b .cfa: $rsp 24 +
STACK CFI 4370c .cfa: $rsp 16 +
STACK CFI 4370d .cfa: $rsp 8 +
STACK CFI 43710 .cfa: $rsp 48 +
STACK CFI INIT 43730 a7 .cfa: $rsp 8 + .ra: .cfa -8 + ^
STACK CFI 43731 $rbp: .cfa -16 + ^ .cfa: $rsp 16 +
STACK CFI 43732 $rbx: .cfa -24 + ^ .cfa: $rsp 24 +
STACK CFI 43739 .cfa: $rsp 48 +
STACK CFI 43749 .cfa: $rsp 24 +
STACK CFI 4374a .cfa: $rsp 16 +
STACK CFI 4374b .cfa: $rsp 8 +
STACK CFI 43750 .cfa: $rsp 48 +
STACK CFI 437bb .cfa: $rsp 24 +
STACK CFI 437bc .cfa: $rsp 16 +
STACK CFI 437bd .cfa: $rsp 8 +
STACK CFI 437c0 .cfa: $rsp 48 +
STACK CFI INIT 437e0 19 .cfa: $rsp 8 + .ra: .cfa -8 + ^
STACK CFI INIT 43800 19 .cfa: $rsp 8 + .ra: .cfa -8 + ^
STACK CFI INIT 43820 1d5 .cfa: $rsp 8 + .ra: .cfa -8 + ^
STACK CFI 43822 $r12: .cfa -16 + ^ .cfa: $rsp 16 +
STACK CFI 43823 $rbp: .cfa -24 + ^ .cfa: $rsp 24 +
STACK CFI 43824 $rbx: .cfa -32 + ^ .cfa: $rsp 32 +
STACK CFI 4382a .cfa: $rsp 112 +
STACK CFI 43847 .cfa: $rsp 32 +
STACK CFI 43848 .cfa: $rsp 24 +
STACK CFI 43849 .cfa: $rsp 16 +
STACK CFI 4384b .cfa: $rsp 8 +
STACK CFI 43850 .cfa: $rsp 112 +
STACK CFI 43949 .cfa: $rsp 32 +
STACK CFI 4394a .cfa: $rsp 24 +
STACK CFI 4394b .cfa: $rsp 16 +
STACK CFI 4394d .cfa: $rsp 8 +
STACK CFI 43950 .cfa: $rsp 112 +
STACK CFI INIT 43a00 19 .cfa: $rsp 8 + .ra: .cfa -8 + ^
STACK CFI INIT 43a20 19 .cfa: $rsp 8 + .ra: .cfa -8 + ^
STACK CFI INIT 43a40 19 .cfa: $rsp 8 + .ra: .cfa -8 + ^
STACK CFI INIT 43a60 19 .cfa: $rsp 8 + .ra: .cfa -8 + ^
STACK CFI INIT 43a80 19 .cfa: $rsp 8 + .ra: .cfa -8 + ^
STACK CFI INIT 43aa0 1e .cfa: $rsp 8 + .ra: .cfa -8 + ^
STACK CFI INIT 43ac0 17 .cfa: $rsp 8 + .ra: .cfa -8 + ^
STACK CFI INIT 43ae0 37 .cfa: $rsp 8 + .ra: .cfa -8 + ^
STACK CFI 43ae2 $r12: .cfa -16 + ^ .cfa: $rsp 16 +
STACK CFI 43ae6 $rbp: .cfa -24 + ^ .cfa: $rsp 24 +
STACK CFI 43aee $rbx: .cfa -32 + ^ .cfa: $rsp 32 +
STACK CFI 43b13 .cfa: $rsp 24 +
STACK CFI 43b14 .cfa: $rsp 16 +
STACK CFI 43b16 .cfa: $rsp 8 +
STACK CFI INIT 43b20 37 .cfa: $rsp 8 + .ra: .cfa -8 + ^
STACK CFI 43b22 $r12: .cfa -16 + ^ .cfa: $rsp 16 +
STACK CFI 43b26 $rbp: .cfa -24 + ^ .cfa: $rsp 24 +
STACK CFI 43b2e $rbx: .cfa -32 + ^ .cfa: $rsp 32 +
STACK CFI 43b53 .cfa: $rsp 24 +
STACK CFI 43b54 .cfa: $rsp 16 +
STACK CFI 43b56 .cfa: $rsp 8 +
STACK CFI INIT 43b60 7e .cfa: $rsp 8 + .ra: .cfa -8 + ^
STACK CFI INIT 43be0 15 .cfa: $rsp 8 + .ra: .cfa -8 + ^
STACK CFI INIT 43c00 34 .cfa: $rsp 8 + .ra: .cfa -8 + ^
STACK CFI 43c02 $r12: .cfa -16 + ^ .cfa: $rsp 16 +
STACK CFI 43c06 $rbp: .cfa -24 + ^ .cfa: $rsp 24 +
STACK CFI 43c0e $rbx: .cfa -32 + ^ .cfa: $rsp 32 +
STACK CFI 43c30 .cfa: $rsp 24 +
STACK CFI 43c31 .cfa: $rsp 16 +
STACK CFI 43c33 .cfa: $rsp 8 +
STACK CFI INIT 43c40 9 .cfa: $rsp 8 + .ra: .cfa -8 + ^
STACK CFI INIT 43c50 50c .cfa: $rsp 8 + .ra: .cfa -8 + ^
STACK CFI 43c52 $r13: .cfa -16 + ^ .cfa: $rsp 16 +
STACK CFI 43c54 $r12: .cfa -24 + ^ .cfa: $rsp 24 +
STACK CFI 43c55 $rbp: .cfa -32 + ^ .cfa: $rsp 32 +
STACK CFI 43c56 $rbx: .cfa -40 + ^ .cfa: $rsp 40 +
STACK CFI 43c5d .cfa: $rsp 144 +
STACK CFI 43d5d .cfa: $rsp 40 +
STACK CFI 43d5e .cfa: $rsp 32 +
STACK CFI 43d5f .cfa: $rsp 24 +
STACK CFI 43d61 .cfa: $rsp 16 +
STACK CFI 43d63 .cfa: $rsp 8 +
STACK CFI 43d68 .cfa: $rsp 144 +
STACK CFI 43e90 .cfa: $rsp 40 +
STACK CFI 43e91 .cfa: $rsp 32 +
STACK CFI 43e92 .cfa: $rsp 24 +
STACK CFI 43e94 .cfa: $rsp 16 +
STACK CFI 43e96 .cfa: $rsp 8 +
STACK CFI 43ea0 .cfa: $rsp 144 +
STACK CFI INIT 44160 17 .cfa: $rsp 8 + .ra: .cfa -8 + ^
STACK CFI INIT 44180 24 .cfa: $rsp 8 + .ra: .cfa -8 + ^
STACK CFI INIT 441b0 17 .cfa: $rsp 8 + .ra: .cfa -8 + ^
STACK CFI INIT 441d0 1e .cfa: $rsp 8 + .ra: .cfa -8 + ^
STACK CFI INIT 441f0 20 .cfa: $rsp 8 + .ra: .cfa -8 + ^
STACK CFI 441f1 $rbp: .cfa -16 + ^ .cfa: $rsp 16 +
STACK CFI 441f4 $rbx: .cfa -24 + ^ .cfa: $rsp 24 +
STACK CFI 441fb .cfa: $rsp 32 +
STACK CFI 44204 .cfa: $rsp 24 +
STACK CFI 4420a .cfa: $rsp 16 +
STACK CFI 4420b .cfa: $rsp 8 +
STACK CFI INIT 44210 7 .cfa: $rsp 8 + .ra: .cfa -8 + ^
STACK CFI INIT 44220 17 .cfa: $rsp 8 + .ra: .cfa -8 + ^
STACK CFI INIT 44240 1e .cfa: $rsp 8 + .ra: .cfa -8 + ^
STACK CFI INIT 44260 20 .cfa: $rsp 8 + .ra: .cfa -8 + ^
STACK CFI 44261 $rbp: .cfa -16 + ^ .cfa: $rsp 16 +
STACK CFI 44264 $rbx: .cfa -24 + ^ .cfa: $rsp 24 +
STACK CFI 4426b .cfa: $rsp 32 +
STACK CFI 44274 .cfa: $rsp 24 +
STACK CFI 4427a .cfa: $rsp 16 +
STACK CFI 4427b .cfa: $rsp 8 +
STACK CFI INIT 44280 9 .cfa: $rsp 8 + .ra: .cfa -8 + ^
STACK CFI INIT 44290 c .cfa: $rsp 8 + .ra: .cfa -8 + ^
STACK CFI INIT 442a0 c .cfa: $rsp 8 + .ra: .cfa -8 + ^
STACK CFI INIT 442b0 31 .cfa: $rsp 8 + .ra: .cfa -8 + ^
STACK CFI 442b2 $r12: .cfa -16 + ^ .cfa: $rsp 16 +
STACK CFI 442b6 $rbp: .cfa -24 + ^ .cfa: $rsp 24 +
STACK CFI 442bb $rbx: .cfa -32 + ^ .cfa: $rsp 32 +
STACK CFI 442dd .cfa: $rsp 24 +
STACK CFI 442de .cfa: $rsp 16 +
STACK CFI 442e0 .cfa: $rsp 8 +
STACK CFI INIT 442f0 c .cfa: $rsp 8 + .ra: .cfa -8 + ^
STACK CFI INIT 44300 31 .cfa: $rsp 8 + .ra: .cfa -8 + ^
STACK CFI 44302 $r12: .cfa -16 + ^ .cfa: $rsp 16 +
STACK CFI 44306 $rbp: .cfa -24 + ^ .cfa: $rsp 24 +
STACK CFI 4430b $rbx: .cfa -32 + ^ .cfa: $rsp 32 +
STACK CFI 4432d .cfa: $rsp 24 +
STACK CFI 4432e .cfa: $rsp 16 +
STACK CFI 44330 .cfa: $rsp 8 +
STACK CFI INIT 44340 18 .cfa: $rsp 8 + .ra: .cfa -8 + ^
STACK CFI INIT 44360 11 .cfa: $rsp 8 + .ra: .cfa -8 + ^
STACK CFI INIT 44380 14 .cfa: $rsp 8 + .ra: .cfa -8 + ^
STACK CFI INIT 443a0 41 .cfa: $rsp 8 + .ra: .cfa -8 + ^
STACK CFI 443a1 $rbp: .cfa -16 + ^ .cfa: $rsp 16 +
STACK CFI 443a5 $rbx: .cfa -24 + ^ .cfa: $rsp 24 +
STACK CFI 443b3 .cfa: $rsp 32 +
STACK CFI 443c3 .cfa: $rsp 24 +
STACK CFI 443c4 .cfa: $rsp 16 +
STACK CFI 443c5 .cfa: $rsp 8 +
STACK CFI 443d0 .cfa: $rsp 32 +
STACK CFI 443d4 .cfa: $rsp 24 +
STACK CFI 443db .cfa: $rsp 16 +
STACK CFI 443dc .cfa: $rsp 8 +
STACK CFI INIT 443f0 9 .cfa: $rsp 8 + .ra: .cfa -8 + ^
STACK CFI INIT 44400 41 .cfa: $rsp 8 + .ra: .cfa -8 + ^
STACK CFI 44401 $rbp: .cfa -16 + ^ .cfa: $rsp 16 +
STACK CFI 44405 $rbx: .cfa -24 + ^ .cfa: $rsp 24 +
STACK CFI 44413 .cfa: $rsp 32 +
STACK CFI 44423 .cfa: $rsp 24 +
STACK CFI 44424 .cfa: $rsp 16 +
STACK CFI 44425 .cfa: $rsp 8 +
STACK CFI 44430 .cfa: $rsp 32 +
STACK CFI 44434 .cfa: $rsp 24 +
STACK CFI 4443b .cfa: $rsp 16 +
STACK CFI 4443c .cfa: $rsp 8 +
STACK CFI INIT 44450 c .cfa: $rsp 8 + .ra: .cfa -8 + ^
STACK CFI INIT 44460 9 .cfa: $rsp 8 + .ra: .cfa -8 + ^
STACK CFI INIT 44470 c .cfa: $rsp 8 + .ra: .cfa -8 + ^
STACK CFI INIT 44480 c .cfa: $rsp 8 + .ra: .cfa -8 + ^
STACK CFI INIT 44490 26 .cfa: $rsp 8 + .ra: .cfa -8 + ^
STACK CFI INIT 444c0 26 .cfa: $rsp 8 + .ra: .cfa -8 + ^
STACK CFI INIT 444f0 a2 .cfa: $rsp 8 + .ra: .cfa -8 + ^
STACK CFI 444f1 $rbp: .cfa -16 + ^ .cfa: $rsp 16 +
STACK CFI 444f6 $rbx: .cfa -24 + ^ .cfa: $rsp 24 +
STACK CFI 444fd .cfa: $rsp 48 +
STACK CFI 44569 .cfa: $rsp 24 +
STACK CFI 4456a .cfa: $rsp 16 +
STACK CFI 4456b .cfa: $rsp 8 +
STACK CFI 44570 .cfa: $rsp 48 +
STACK CFI INIT 445a0 268 .cfa: $rsp 8 + .ra: .cfa -8 + ^
STACK CFI 445a2 $r12: .cfa -16 + ^ .cfa: $rsp 16 +
STACK CFI 445a3 $rbp: .cfa -24 + ^ .cfa: $rsp 24 +
STACK CFI 445a4 $rbx: .cfa -32 + ^ .cfa: $rsp 32 +
STACK CFI 445ab .cfa: $rsp 112 +
STACK CFI 446b5 .cfa: $rsp 32 +
STACK CFI 446b6 .cfa: $rsp 24 +
STACK CFI 446b7 .cfa: $rsp 16 +
STACK CFI 446b9 .cfa: $rsp 8 +
STACK CFI 446c0 .cfa: $rsp 112 +
STACK CFI INIT 44810 ff .cfa: $rsp 8 + .ra: .cfa -8 + ^
STACK CFI 44812 $r13: .cfa -16 + ^ .cfa: $rsp 16 +
STACK CFI 44814 $r12: .cfa -24 + ^ .cfa: $rsp 24 +
STACK CFI 44815 $rbp: .cfa -32 + ^ .cfa: $rsp 32 +
STACK CFI 44816 $rbx: .cfa -40 + ^ .cfa: $rsp 40 +
STACK CFI 4481d .cfa: $rsp 80 +
STACK CFI 448d9 .cfa: $rsp 40 +
STACK CFI 448da .cfa: $rsp 32 +
STACK CFI 448db .cfa: $rsp 24 +
STACK CFI 448dd .cfa: $rsp 16 +
STACK CFI 448df .cfa: $rsp 8 +
STACK CFI 448e0 .cfa: $rsp 80 +
STACK CFI INIT 44910 1f5 .cfa: $rsp 8 + .ra: .cfa -8 + ^
STACK CFI 44911 $rbx: .cfa -16 + ^ .cfa: $rsp 16 +
STACK CFI 44918 .cfa: $rsp 32 +
STACK CFI 4497b .cfa: $rsp 16 +
STACK CFI 4497c .cfa: $rsp 8 +
STACK CFI 44980 .cfa: $rsp 32 +
STACK CFI 449d2 .cfa: $rsp 16 +
STACK CFI 449d3 .cfa: $rsp 8 +
STACK CFI 449d8 .cfa: $rsp 32 +
STACK CFI 44a37 .cfa: $rsp 16 +
STACK CFI 44a38 .cfa: $rsp 8 +
STACK CFI 44a40 .cfa: $rsp 32 +
STACK CFI 44a82 .cfa: $rsp 16 +
STACK CFI 44a83 .cfa: $rsp 8 +
STACK CFI 44a88 .cfa: $rsp 32 +
STACK CFI INIT 44b10 267 .cfa: $rsp 8 + .ra: .cfa -8 + ^
STACK CFI 44b12 $r13: .cfa -16 + ^ .cfa: $rsp 16 +
STACK CFI 44b16 $r12: .cfa -24 + ^ .cfa: $rsp 24 +
STACK CFI 44b17 $rbp: .cfa -32 + ^ .cfa: $rsp 32 +
STACK CFI 44b18 $rbx: .cfa -40 + ^ .cfa: $rsp 40 +
STACK CFI 44b1f .cfa: $rsp 96 +
STACK CFI 44b29 .cfa: $rsp 40 +
STACK CFI 44b2a .cfa: $rsp 32 +
STACK CFI 44b2b .cfa: $rsp 24 +
STACK CFI 44b2d .cfa: $rsp 16 +
STACK CFI 44b2f .cfa: $rsp 8 +
STACK CFI 44b30 .cfa: $rsp 96 +
STACK CFI INIT 44d80 1f2 .cfa: $rsp 8 + .ra: .cfa -8 + ^
STACK CFI 44d82 $r13: .cfa -16 + ^ .cfa: $rsp 16 +
STACK CFI 44d84 $r12: .cfa -24 + ^ .cfa: $rsp 24 +
STACK CFI 44d85 $rbp: .cfa -32 + ^ .cfa: $rsp 32 +
STACK CFI 44d89 $rbx: .cfa -40 + ^ .cfa: $rsp 40 +
STACK CFI 44d8d .cfa: $rsp 96 +
STACK CFI 44dbd .cfa: $rsp 40 +
STACK CFI 44dbe .cfa: $rsp 32 +
STACK CFI 44dbf .cfa: $rsp 24 +
STACK CFI 44dc1 .cfa: $rsp 16 +
STACK CFI 44dc3 .cfa: $rsp 8 +
STACK CFI 44dc8 .cfa: $rsp 96 +
STACK CFI 44e4b .cfa: $rsp 40 +
STACK CFI 44e4c .cfa: $rsp 32 +
STACK CFI 44e4d .cfa: $rsp 24 +
STACK CFI 44e4f .cfa: $rsp 16 +
STACK CFI 44e51 .cfa: $rsp 8 +
STACK CFI 44e58 .cfa: $rsp 96 +
STACK CFI INIT 44f80 205 .cfa: $rsp 8 + .ra: .cfa -8 + ^
STACK CFI 44f82 $r12: .cfa -16 + ^ .cfa: $rsp 16 +
STACK CFI 44f83 $rbp: .cfa -24 + ^ .cfa: $rsp 24 +
STACK CFI 44f84 $rbx: .cfa -32 + ^ .cfa: $rsp 32 +
STACK CFI 44f8a .cfa: $rsp 112 +
STACK CFI 44fa8 .cfa: $rsp 32 +
STACK CFI 44fa9 .cfa: $rsp 24 +
STACK CFI 44faa .cfa: $rsp 16 +
STACK CFI 44fac .cfa: $rsp 8 +
STACK CFI 44fb0 .cfa: $rsp 112 +
STACK CFI 44fb4 .cfa: $rsp 32 +
STACK CFI 44fba .cfa: $rsp 24 +
STACK CFI 44fbb .cfa: $rsp 16 +
STACK CFI 44fbd .cfa: $rsp 8 +
STACK CFI 44fc0 .cfa: $rsp 112 +
STACK CFI 450d0 .cfa: $rsp 32 +
STACK CFI 450d6 .cfa: $rsp 24 +
STACK CFI 450d7 .cfa: $rsp 16 +
STACK CFI 450d9 .cfa: $rsp 8 +
STACK CFI 450e0 .cfa: $rsp 112 +
STACK CFI 450e4 .cfa: $rsp 32 +
STACK CFI 450ea .cfa: $rsp 24 +
STACK CFI 450eb .cfa: $rsp 16 +
STACK CFI 450ed .cfa: $rsp 8 +
STACK CFI 450ee .cfa: $rsp 112 +
STACK CFI INIT 45190 1d4 .cfa: $rsp 8 + .ra: .cfa -8 + ^
STACK CFI 45192 $r12: .cfa -16 + ^ .cfa: $rsp 16 +
STACK CFI 45193 $rbp: .cfa -24 + ^ .cfa: $rsp 24 +
STACK CFI 45194 $rbx: .cfa -32 + ^ .cfa: $rsp 32 +
STACK CFI 45198 .cfa: $rsp 112 +
STACK CFI 451b6 .cfa: $rsp 32 +
STACK CFI 451b7 .cfa: $rsp 24 +
STACK CFI 451b8 .cfa: $rsp 16 +
STACK CFI 451ba .cfa: $rsp 8 +
STACK CFI 451c0 .cfa: $rsp 112 +
STACK CFI 451c4 .cfa: $rsp 32 +
STACK CFI 451ca .cfa: $rsp 24 +
STACK CFI 451cb .cfa: $rsp 16 +
STACK CFI 451cd .cfa: $rsp 8 +
STACK CFI 451d0 .cfa: $rsp 112 +
STACK CFI 452c3 .cfa: $rsp 32 +
STACK CFI 452c9 .cfa: $rsp 24 +
STACK CFI 452ca .cfa: $rsp 16 +
STACK CFI 452cc .cfa: $rsp 8 +
STACK CFI 452d0 .cfa: $rsp 112 +
STACK CFI 452d4 .cfa: $rsp 32 +
STACK CFI 452da .cfa: $rsp 24 +
STACK CFI 452db .cfa: $rsp 16 +
STACK CFI 452dd .cfa: $rsp 8 +
STACK CFI 452de .cfa: $rsp 112 +
STACK CFI INIT 45370 d0 .cfa: $rsp 8 + .ra: .cfa -8 + ^
STACK CFI INIT 45440 13 .cfa: $rsp 8 + .ra: .cfa -8 + ^
STACK CFI 45441 $rbx: .cfa -16 + ^ .cfa: $rsp 16 +
STACK CFI 45452 .cfa: $rsp 8 +
STACK CFI INIT 45460 31e .cfa: $rsp 8 + .ra: .cfa -8 + ^
STACK CFI 45461 $rbx: .cfa -16 + ^ .cfa: $rsp 16 +
STACK CFI 45468 .cfa: $rsp 32 +
STACK CFI 45510 .cfa: $rsp 16 +
STACK CFI 45511 .cfa: $rsp 8 +
STACK CFI 45528 .cfa: $rsp 32 +
STACK CFI 45591 .cfa: $rsp 16 +
STACK CFI 45592 .cfa: $rsp 8 +
STACK CFI 45598 .cfa: $rsp 32 +
STACK CFI 455e7 .cfa: $rsp 16 +
STACK CFI 455e8 .cfa: $rsp 8 +
STACK CFI 45600 .cfa: $rsp 32 +
STACK CFI INIT 45780 564 .cfa: $rsp 8 + .ra: .cfa -8 + ^
STACK CFI 45781 $rbp: .cfa -16 + ^ .cfa: $rsp 16 +
STACK CFI 45782 $rbx: .cfa -24 + ^ .cfa: $rsp 24 +
STACK CFI 45789 .cfa: $rsp 96 +
STACK CFI 458a9 .cfa: $rsp 24 +
STACK CFI 458aa .cfa: $rsp 16 +
STACK CFI 458af .cfa: $rsp 8 +
STACK CFI 458b0 .cfa: $rsp 96 +
STACK CFI 459c3 .cfa: $rsp 24 +
STACK CFI 459c8 .cfa: $rsp 16 +
STACK CFI 459c9 .cfa: $rsp 8 +
STACK CFI 459d8 .cfa: $rsp 96 +
STACK CFI 45a10 .cfa: $rsp 24 +
STACK CFI 45a15 .cfa: $rsp 16 +
STACK CFI 45a16 .cfa: $rsp 8 +
STACK CFI 45a20 .cfa: $rsp 96 +
STACK CFI 45a8d .cfa: $rsp 24 +
STACK CFI 45a8e .cfa: $rsp 16 +
STACK CFI 45a93 .cfa: $rsp 8 +
STACK CFI 45a98 .cfa: $rsp 96 +
STACK CFI 45c2d .cfa: $rsp 24 +
STACK CFI 45c2e .cfa: $rsp 16 +
STACK CFI 45c2f .cfa: $rsp 8 +
STACK CFI 45c40 .cfa: $rsp 96 +
STACK CFI INIT 45cf0 4d9 .cfa: $rsp 8 + .ra: .cfa -8 + ^
STACK CFI 45cf2 $r15: .cfa -16 + ^ .cfa: $rsp 16 +
STACK CFI 45cf7 $r14: .cfa -24 + ^ .cfa: $rsp 24 +
STACK CFI 45cf9 $r13: .cfa -32 + ^ .cfa: $rsp 32 +
STACK CFI 45cfb $r12: .cfa -40 + ^ .cfa: $rsp 40 +
STACK CFI 45cfc $rbp: .cfa -48 + ^ .cfa: $rsp 48 +
STACK CFI 45cfd $rbx: .cfa -56 + ^ .cfa: $rsp 56 +
STACK CFI 45d01 .cfa: $rsp 128 +
STACK CFI 45dd4 .cfa: $rsp 56 +
STACK CFI 45dd5 .cfa: $rsp 48 +
STACK CFI 45dd6 .cfa: $rsp 40 +
STACK CFI 45dd8 .cfa: $rsp 32 +
STACK CFI 45dda .cfa: $rsp 24 +
STACK CFI 45ddc .cfa: $rsp 16 +
STACK CFI 45dde .cfa: $rsp 8 +
STACK CFI 45de0 .cfa: $rsp 128 +
STACK CFI 45f64 .cfa: $rsp 56 +
STACK CFI 45f65 .cfa: $rsp 48 +
STACK CFI 45f66 .cfa: $rsp 40 +
STACK CFI 45f68 .cfa: $rsp 32 +
STACK CFI 45f6a .cfa: $rsp 24 +
STACK CFI 45f6c .cfa: $rsp 16 +
STACK CFI 45f6e .cfa: $rsp 8 +
STACK CFI 45f70 .cfa: $rsp 128 +
STACK CFI INIT 461d0 1c2 .cfa: $rsp 8 + .ra: .cfa -8 + ^
STACK CFI 461d2 $r13: .cfa -16 + ^ .cfa: $rsp 16 +
STACK CFI 461d4 $r12: .cfa -24 + ^ .cfa: $rsp 24 +
STACK CFI 461d5 $rbp: .cfa -32 + ^ .cfa: $rsp 32 +
STACK CFI 461d9 $rbx: .cfa -40 + ^ .cfa: $rsp 40 +
STACK CFI 461dd .cfa: $rsp 96 +
STACK CFI 46289 .cfa: $rsp 40 +
STACK CFI 4628a .cfa: $rsp 32 +
STACK CFI 4628b .cfa: $rsp 24 +
STACK CFI 4628d .cfa: $rsp 16 +
STACK CFI 4628f .cfa: $rsp 8 +
STACK CFI 46290 .cfa: $rsp 96 +
STACK CFI 46301 .cfa: $rsp 40 +
STACK CFI 46302 .cfa: $rsp 32 +
STACK CFI 46303 .cfa: $rsp 24 +
STACK CFI 46305 .cfa: $rsp 16 +
STACK CFI 46307 .cfa: $rsp 8 +
STACK CFI 46310 .cfa: $rsp 96 +
STACK CFI 46378 .cfa: $rsp 40 +
STACK CFI 46379 .cfa: $rsp 32 +
STACK CFI 4637a .cfa: $rsp 24 +
STACK CFI 4637c .cfa: $rsp 16 +
STACK CFI 4637e .cfa: $rsp 8 +
STACK CFI 4637f .cfa: $rsp 96 +
STACK CFI INIT 463a0 bc .cfa: $rsp 8 + .ra: .cfa -8 + ^
STACK CFI 463a1 $rbp: .cfa -16 + ^ .cfa: $rsp 16 +
STACK CFI 463a2 $rbx: .cfa -24 + ^ .cfa: $rsp 24 +
STACK CFI 463a9 .cfa: $rsp 80 +
STACK CFI 463c8 .cfa: $rsp 24 +
STACK CFI 463c9 .cfa: $rsp 16 +
STACK CFI 463ca .cfa: $rsp 8 +
STACK CFI 463d0 .cfa: $rsp 80 +
STACK CFI INIT 46460 11 .cfa: $rsp 8 + .ra: .cfa -8 + ^
STACK CFI INIT 46480 21 .cfa: $rsp 8 + .ra: .cfa -8 + ^
STACK CFI 46481 $rbx: .cfa -16 + ^ .cfa: $rsp 16 +
STACK CFI 464a0 .cfa: $rsp 8 +
STACK CFI INIT 464b0 27 .cfa: $rsp 8 + .ra: .cfa -8 + ^
STACK CFI 464b1 $rbx: .cfa -16 + ^ .cfa: $rsp 16 +
STACK CFI 464d6 .cfa: $rsp 8 +
STACK CFI INIT 464e0 27 .cfa: $rsp 8 + .ra: .cfa -8 + ^
STACK CFI 464e1 $rbx: .cfa -16 + ^ .cfa: $rsp 16 +
STACK CFI 46506 .cfa: $rsp 8 +
STACK CFI INIT 46510 27 .cfa: $rsp 8 + .ra: .cfa -8 + ^
STACK CFI 46511 $rbx: .cfa -16 + ^ .cfa: $rsp 16 +
STACK CFI 46536 .cfa: $rsp 8 +
STACK CFI INIT 46540 24 .cfa: $rsp 8 + .ra: .cfa -8 + ^
STACK CFI 46541 $rbx: .cfa -16 + ^ .cfa: $rsp 16 +
STACK CFI 46563 .cfa: $rsp 8 +
STACK CFI INIT 46570 2e .cfa: $rsp 8 + .ra: .cfa -8 + ^
STACK CFI INIT 465a0 2e .cfa: $rsp 8 + .ra: .cfa -8 + ^
STACK CFI INIT 465d0 3a9 .cfa: $rsp 8 + .ra: .cfa -8 + ^
STACK CFI 465d2 $r15: .cfa -16 + ^ .cfa: $rsp 16 +
STACK CFI 465e1 $r14: .cfa -24 + ^ .cfa: $rsp 24 +
STACK CFI 465e3 $r13: .cfa -32 + ^ .cfa: $rsp 32 +
STACK CFI 465e5 $r12: .cfa -40 + ^ .cfa: $rsp 40 +
STACK CFI 465e6 $rbp: .cfa -48 + ^ .cfa: $rsp 48 +
STACK CFI 465e7 $rbx: .cfa -56 + ^ .cfa: $rsp 56 +
STACK CFI 465ee .cfa: $rsp 112 +
STACK CFI 468dd .cfa: $rsp 56 +
STACK CFI 468de .cfa: $rsp 48 +
STACK CFI 468df .cfa: $rsp 40 +
STACK CFI 468e1 .cfa: $rsp 32 +
STACK CFI 468e3 .cfa: $rsp 24 +
STACK CFI 468e5 .cfa: $rsp 16 +
STACK CFI 468e7 .cfa: $rsp 8 +
STACK CFI 468e8 .cfa: $rsp 112 +
STACK CFI INIT 911c0 87 .cfa: $rsp 8 + .ra: .cfa -8 + ^
STACK CFI 911c1 $rbx: .cfa -16 + ^ .cfa: $rsp 16 +
STACK CFI 911f9 .cfa: $rsp 8 +
STACK CFI 91210 .cfa: $rsp 16 +
STACK CFI 91241 .cfa: $rsp 8 +
STACK CFI 91242 .cfa: $rsp 16 +
STACK CFI INIT 46980 74b .cfa: $rsp 8 + .ra: .cfa -8 + ^
STACK CFI 46982 $r15: .cfa -16 + ^ .cfa: $rsp 16 +
STACK CFI 46987 $r14: .cfa -24 + ^ .cfa: $rsp 24 +
STACK CFI 4698c $r13: .cfa -32 + ^ .cfa: $rsp 32 +
STACK CFI 46992 $r12: .cfa -40 + ^ .cfa: $rsp 40 +
STACK CFI 46996 $rbp: .cfa -48 + ^ .cfa: $rsp 48 +
STACK CFI 46997 $rbx: .cfa -56 + ^ .cfa: $rsp 56 +
STACK CFI 469a1 .cfa: $rsp 336 +
STACK CFI 46e72 .cfa: $rsp 56 +
STACK CFI 46e76 .cfa: $rsp 48 +
STACK CFI 46e77 .cfa: $rsp 40 +
STACK CFI 46e79 .cfa: $rsp 32 +
STACK CFI 46e7b .cfa: $rsp 24 +
STACK CFI 46e7d .cfa: $rsp 16 +
STACK CFI 46e7f .cfa: $rsp 8 +
STACK CFI 46e80 .cfa: $rsp 336 +
STACK CFI INIT 470d0 9 .cfa: $rsp 8 + .ra: .cfa -8 + ^
STACK CFI INIT 470e0 5 .cfa: $rsp 8 + .ra: .cfa -8 + ^
STACK CFI INIT 470f0 5 .cfa: $rsp 8 + .ra: .cfa -8 + ^
STACK CFI INIT 47100 5 .cfa: $rsp 8 + .ra: .cfa -8 + ^
STACK CFI INIT 47110 9 .cfa: $rsp 8 + .ra: .cfa -8 + ^
STACK CFI INIT 47120 9 .cfa: $rsp 8 + .ra: .cfa -8 + ^
STACK CFI INIT 47130 9 .cfa: $rsp 8 + .ra: .cfa -8 + ^
STACK CFI INIT 47140 9 .cfa: $rsp 8 + .ra: .cfa -8 + ^
STACK CFI INIT 47150 aa .cfa: $rsp 8 + .ra: .cfa -8 + ^
STACK CFI 47152 $r12: .cfa -16 + ^ .cfa: $rsp 16 +
STACK CFI 47159 $rbp: .cfa -24 + ^ .cfa: $rsp 24 +
STACK CFI 4715d $rbx: .cfa -32 + ^ .cfa: $rsp 32 +
STACK CFI 471b3 .cfa: $rsp 24 +
STACK CFI 471b4 .cfa: $rsp 16 +
STACK CFI 471b6 .cfa: $rsp 8 +
STACK CFI 471c0 .cfa: $rsp 32 +
STACK CFI 471c1 .cfa: $rsp 24 +
STACK CFI 471c2 .cfa: $rsp 16 +
STACK CFI 471c4 .cfa: $rsp 8 +
STACK CFI 471c8 .cfa: $rsp 32 +
STACK CFI INIT 47200 bd .cfa: $rsp 8 + .ra: .cfa -8 + ^
STACK CFI 47202 $r12: .cfa -16 + ^ .cfa: $rsp 16 +
STACK CFI 47209 $rbp: .cfa -24 + ^ .cfa: $rsp 24 +
STACK CFI 4720d $rbx: .cfa -32 + ^ .cfa: $rsp 32 +
STACK CFI 47273 .cfa: $rsp 24 +
STACK CFI 47274 .cfa: $rsp 16 +
STACK CFI 47276 .cfa: $rsp 8 +
STACK CFI 47280 .cfa: $rsp 32 +
STACK CFI 47281 .cfa: $rsp 24 +
STACK CFI 47282 .cfa: $rsp 16 +
STACK CFI 47284 .cfa: $rsp 8 +
STACK CFI 47288 .cfa: $rsp 32 +
STACK CFI INIT 472c0 22 .cfa: $rsp 8 + .ra: .cfa -8 + ^
STACK CFI INIT 472f0 22 .cfa: $rsp 8 + .ra: .cfa -8 + ^
STACK CFI INIT 47320 54 .cfa: $rsp 8 + .ra: .cfa -8 + ^
STACK CFI 47322 $r12: .cfa -16 + ^ .cfa: $rsp 16 +
STACK CFI 47323 $rbp: .cfa -24 + ^ .cfa: $rsp 24 +
STACK CFI 47324 $rbx: .cfa -32 + ^ .cfa: $rsp 32 +
STACK CFI 4735d .cfa: $rsp 24 +
STACK CFI 4735e .cfa: $rsp 16 +
STACK CFI 47360 .cfa: $rsp 8 +
STACK CFI 47368 .cfa: $rsp 32 +
STACK CFI INIT 47380 3f .cfa: $rsp 8 + .ra: .cfa -8 + ^
STACK CFI 47382 $r12: .cfa -16 + ^ .cfa: $rsp 16 +
STACK CFI 4738a $rbp: .cfa -24 + ^ .cfa: $rsp 24 +
STACK CFI 4738b $rbx: .cfa -32 + ^ .cfa: $rsp 32 +
STACK CFI 47391 .cfa: $rsp 24 +
STACK CFI 47392 .cfa: $rsp 16 +
STACK CFI 47394 .cfa: $rsp 8 +
STACK CFI 47398 .cfa: $rsp 32 +
STACK CFI 473bb .cfa: $rsp 24 +
STACK CFI 473bc .cfa: $rsp 16 +
STACK CFI 473be .cfa: $rsp 8 +
STACK CFI INIT 473c0 2b5 .cfa: $rsp 8 + .ra: .cfa -8 + ^
STACK CFI 473c2 $r12: .cfa -16 + ^ .cfa: $rsp 16 +
STACK CFI 473c3 $rbp: .cfa -24 + ^ .cfa: $rsp 24 +
STACK CFI 473c4 $rbx: .cfa -32 + ^ .cfa: $rsp 32 +
STACK CFI 473c8 .cfa: $rsp 112 +
STACK CFI 474c5 .cfa: $rsp 32 +
STACK CFI 474c6 .cfa: $rsp 24 +
STACK CFI 474c7 .cfa: $rsp 16 +
STACK CFI 474c9 .cfa: $rsp 8 +
STACK CFI 474d0 .cfa: $rsp 112 +
STACK CFI INIT 47680 2b5 .cfa: $rsp 8 + .ra: .cfa -8 + ^
STACK CFI 47682 $r12: .cfa -16 + ^ .cfa: $rsp 16 +
STACK CFI 47683 $rbp: .cfa -24 + ^ .cfa: $rsp 24 +
STACK CFI 47684 $rbx: .cfa -32 + ^ .cfa: $rsp 32 +
STACK CFI 47688 .cfa: $rsp 112 +
STACK CFI 4778b .cfa: $rsp 32 +
STACK CFI 4778c .cfa: $rsp 24 +
STACK CFI 4778d .cfa: $rsp 16 +
STACK CFI 4778f .cfa: $rsp 8 +
STACK CFI 47790 .cfa: $rsp 112 +
STACK CFI INIT 47940 24 .cfa: $rsp 8 + .ra: .cfa -8 + ^
STACK CFI 47941 $rbp: .cfa -16 + ^ .cfa: $rsp 16 +
STACK CFI 47948 $rbx: .cfa -24 + ^ .cfa: $rsp 24 +
STACK CFI 4794f .cfa: $rsp 32 +
STACK CFI 47958 .cfa: $rsp 24 +
STACK CFI 4795e .cfa: $rsp 16 +
STACK CFI 4795f .cfa: $rsp 8 +
STACK CFI INIT 47970 254 .cfa: $rsp 8 + .ra: .cfa -8 + ^
STACK CFI 47972 $r12: .cfa -16 + ^ .cfa: $rsp 16 +
STACK CFI 47978 $rbp: .cfa -24 + ^ .cfa: $rsp 24 +
STACK CFI 4797c $rbx: .cfa -32 + ^ .cfa: $rsp 32 +
STACK CFI 47983 .cfa: $rsp 128 +
STACK CFI 479ee .cfa: $rsp 32 +
STACK CFI 479ef .cfa: $rsp 24 +
STACK CFI 479f0 .cfa: $rsp 16 +
STACK CFI 479f2 .cfa: $rsp 8 +
STACK CFI 479f8 .cfa: $rsp 128 +
STACK CFI 47aff .cfa: $rsp 32 +
STACK CFI 47b00 .cfa: $rsp 24 +
STACK CFI 47b01 .cfa: $rsp 16 +
STACK CFI 47b03 .cfa: $rsp 8 +
STACK CFI 47b04 .cfa: $rsp 128 +
STACK CFI 47b84 .cfa: $rsp 32 +
STACK CFI 47b85 .cfa: $rsp 24 +
STACK CFI 47b86 .cfa: $rsp 16 +
STACK CFI 47b88 .cfa: $rsp 8 +
STACK CFI 47b90 .cfa: $rsp 128 +
STACK CFI INIT 47bd0 264 .cfa: $rsp 8 + .ra: .cfa -8 + ^
STACK CFI 47bd2 $r12: .cfa -16 + ^ .cfa: $rsp 16 +
STACK CFI 47bd7 $rbp: .cfa -24 + ^ .cfa: $rsp 24 +
STACK CFI 47bd8 $rbx: .cfa -32 + ^ .cfa: $rsp 32 +
STACK CFI 47bde .cfa: $rsp 128 +
STACK CFI 47c52 .cfa: $rsp 32 +
STACK CFI 47c53 .cfa: $rsp 24 +
STACK CFI 47c54 .cfa: $rsp 16 +
STACK CFI 47c5a .cfa: $rsp 8 +
STACK CFI 47c60 .cfa: $rsp 128 +
STACK CFI 47d5f .cfa: $rsp 32 +
STACK CFI 47d64 .cfa: $rsp 24 +
STACK CFI 47d65 .cfa: $rsp 16 +
STACK CFI 47d6b .cfa: $rsp 8 +
STACK CFI 47d6c .cfa: $rsp 128 +
STACK CFI 47dfa .cfa: $rsp 32 +
STACK CFI 47dfb .cfa: $rsp 24 +
STACK CFI 47dfc .cfa: $rsp 16 +
STACK CFI 47dfe .cfa: $rsp 8 +
STACK CFI 47e00 .cfa: $rsp 128 +
STACK CFI INIT 47e40 d7 .cfa: $rsp 8 + .ra: .cfa -8 + ^
STACK CFI 47e41 $rbp: .cfa -16 + ^ .cfa: $rsp 16 +
STACK CFI 47e49 $rbx: .cfa -24 + ^ .cfa: $rsp 24 +
STACK CFI 47e50 .cfa: $rsp 80 +
STACK CFI 47f14 .cfa: $rsp 24 +
STACK CFI 47f15 .cfa: $rsp 16 +
STACK CFI 47f16 .cfa: $rsp 8 +
STACK CFI INIT 47f20 264 .cfa: $rsp 8 + .ra: .cfa -8 + ^
STACK CFI 47f22 $r12: .cfa -16 + ^ .cfa: $rsp 16 +
STACK CFI 47f2c $rbp: .cfa -24 + ^ .cfa: $rsp 24 +
STACK CFI 47f30 $rbx: .cfa -32 + ^ .cfa: $rsp 32 +
STACK CFI 47f37 .cfa: $rsp 128 +
STACK CFI 47faa .cfa: $rsp 32 +
STACK CFI 47fab .cfa: $rsp 24 +
STACK CFI 47fac .cfa: $rsp 16 +
STACK CFI 47fae .cfa: $rsp 8 +
STACK CFI 47fb0 .cfa: $rsp 128 +
STACK CFI 480af .cfa: $rsp 32 +
STACK CFI 480b0 .cfa: $rsp 24 +
STACK CFI 480b1 .cfa: $rsp 16 +
STACK CFI 480b3 .cfa: $rsp 8 +
STACK CFI 480b4 .cfa: $rsp 128 +
STACK CFI 48141 .cfa: $rsp 32 +
STACK CFI 48142 .cfa: $rsp 24 +
STACK CFI 48143 .cfa: $rsp 16 +
STACK CFI 48145 .cfa: $rsp 8 +
STACK CFI 48150 .cfa: $rsp 128 +
STACK CFI INIT 48190 17 .cfa: $rsp 8 + .ra: .cfa -8 + ^
STACK CFI INIT 481b0 38c .cfa: $rsp 8 + .ra: .cfa -8 + ^
STACK CFI 481b2 $r13: .cfa -16 + ^ .cfa: $rsp 16 +
STACK CFI 481b4 $r12: .cfa -24 + ^ .cfa: $rsp 24 +
STACK CFI 481b5 $rbp: .cfa -32 + ^ .cfa: $rsp 32 +
STACK CFI 481b9 $rbx: .cfa -40 + ^ .cfa: $rsp 40 +
STACK CFI 481c0 .cfa: $rsp 128 +
STACK CFI 482bb .cfa: $rsp 40 +
STACK CFI 482bc .cfa: $rsp 32 +
STACK CFI 482bd .cfa: $rsp 24 +
STACK CFI 482bf .cfa: $rsp 16 +
STACK CFI 482c1 .cfa: $rsp 8 +
STACK CFI 482c8 .cfa: $rsp 128 +
STACK CFI INIT 48540 484 .cfa: $rsp 8 + .ra: .cfa -8 + ^
STACK CFI 48542 $r13: .cfa -16 + ^ .cfa: $rsp 16 +
STACK CFI 48544 $r12: .cfa -24 + ^ .cfa: $rsp 24 +
STACK CFI 48545 $rbp: .cfa -32 + ^ .cfa: $rsp 32 +
STACK CFI 48549 $rbx: .cfa -40 + ^ .cfa: $rsp 40 +
STACK CFI 48550 .cfa: $rsp 160 +
STACK CFI 4865b .cfa: $rsp 40 +
STACK CFI 4865c .cfa: $rsp 32 +
STACK CFI 4865d .cfa: $rsp 24 +
STACK CFI 4865f .cfa: $rsp 16 +
STACK CFI 48661 .cfa: $rsp 8 +
STACK CFI 48668 .cfa: $rsp 160 +
STACK CFI 4875e .cfa: $rsp 40 +
STACK CFI 4875f .cfa: $rsp 32 +
STACK CFI 48760 .cfa: $rsp 24 +
STACK CFI 48762 .cfa: $rsp 16 +
STACK CFI 48764 .cfa: $rsp 8 +
STACK CFI 48768 .cfa: $rsp 160 +
STACK CFI INIT 489d0 24 .cfa: $rsp 8 + .ra: .cfa -8 + ^
STACK CFI 489d1 $rbx: .cfa -16 + ^ .cfa: $rsp 16 +
STACK CFI 489f3 .cfa: $rsp 8 +
STACK CFI INIT 48a00 13e .cfa: $rsp 8 + .ra: .cfa -8 + ^
STACK CFI 48a02 $r15: .cfa -16 + ^ .cfa: $rsp 16 +
STACK CFI 48a04 $r14: .cfa -24 + ^ .cfa: $rsp 24 +
STACK CFI 48a09 $r13: .cfa -32 + ^ .cfa: $rsp 32 +
STACK CFI 48a0b $r12: .cfa -40 + ^ .cfa: $rsp 40 +
STACK CFI 48a12 $rbp: .cfa -48 + ^ .cfa: $rsp 48 +
STACK CFI 48a16 $rbx: .cfa -56 + ^ .cfa: $rsp 56 +
STACK CFI 48a1a .cfa: $rsp 128 +
STACK CFI 48a3f .cfa: $rsp 56 +
STACK CFI 48a40 .cfa: $rsp 48 +
STACK CFI 48a41 .cfa: $rsp 40 +
STACK CFI 48a43 .cfa: $rsp 32 +
STACK CFI 48a45 .cfa: $rsp 24 +
STACK CFI 48a47 .cfa: $rsp 16 +
STACK CFI 48a49 .cfa: $rsp 8 +
STACK CFI 48a50 .cfa: $rsp 128 +
STACK CFI 48af5 .cfa: $rsp 56 +
STACK CFI 48af6 .cfa: $rsp 48 +
STACK CFI 48af7 .cfa: $rsp 40 +
STACK CFI 48af9 .cfa: $rsp 32 +
STACK CFI 48afb .cfa: $rsp 24 +
STACK CFI 48afd .cfa: $rsp 16 +
STACK CFI 48aff .cfa: $rsp 8 +
STACK CFI 48b00 .cfa: $rsp 128 +
STACK CFI INIT 48b40 358 .cfa: $rsp 8 + .ra: .cfa -8 + ^
STACK CFI 48b42 $r15: .cfa -16 + ^ .cfa: $rsp 16 +
STACK CFI 48b44 $r14: .cfa -24 + ^ .cfa: $rsp 24 +
STACK CFI 48b46 $r13: .cfa -32 + ^ .cfa: $rsp 32 +
STACK CFI 48b4b $r12: .cfa -40 + ^ .cfa: $rsp 40 +
STACK CFI 48b4c $rbp: .cfa -48 + ^ .cfa: $rsp 48 +
STACK CFI 48b53 $rbx: .cfa -56 + ^ .cfa: $rsp 56 +
STACK CFI 48b5a .cfa: $rsp 144 +
STACK CFI 48b7f .cfa: $rsp 56 +
STACK CFI 48b80 .cfa: $rsp 48 +
STACK CFI 48b81 .cfa: $rsp 40 +
STACK CFI 48b83 .cfa: $rsp 32 +
STACK CFI 48b85 .cfa: $rsp 24 +
STACK CFI 48b87 .cfa: $rsp 16 +
STACK CFI 48b89 .cfa: $rsp 8 +
STACK CFI 48b90 .cfa: $rsp 144 +
STACK CFI 48ce5 .cfa: $rsp 56 +
STACK CFI 48ce6 .cfa: $rsp 48 +
STACK CFI 48ce7 .cfa: $rsp 40 +
STACK CFI 48ce9 .cfa: $rsp 32 +
STACK CFI 48ceb .cfa: $rsp 24 +
STACK CFI 48ced .cfa: $rsp 16 +
STACK CFI 48cef .cfa: $rsp 8 +
STACK CFI 48cf0 .cfa: $rsp 144 +
STACK CFI INIT 48ea0 24 .cfa: $rsp 8 + .ra: .cfa -8 + ^
STACK CFI 48ea1 $rbx: .cfa -16 + ^ .cfa: $rsp 16 +
STACK CFI 48ec3 .cfa: $rsp 8 +
STACK CFI INIT 48ed0 1a5 .cfa: $rsp 8 + .ra: .cfa -8 + ^
STACK CFI 48ed2 $r13: .cfa -16 + ^ .cfa: $rsp 16 +
STACK CFI 48ed7 $r12: .cfa -24 + ^ .cfa: $rsp 24 +
STACK CFI 48edb $rbp: .cfa -32 + ^ .cfa: $rsp 32 +
STACK CFI 48edc $rbx: .cfa -40 + ^ .cfa: $rsp 40 +
STACK CFI 48ee3 .cfa: $rsp 96 +
STACK CFI 49048 .cfa: $rsp 40 +
STACK CFI 49049 .cfa: $rsp 32 +
STACK CFI 4904a .cfa: $rsp 24 +
STACK CFI 4904c .cfa: $rsp 16 +
STACK CFI 4904e .cfa: $rsp 8 +
STACK CFI 4904f .cfa: $rsp 96 +
STACK CFI INIT 49080 e .cfa: $rsp 8 + .ra: .cfa -8 + ^
STACK CFI INIT 49090 e .cfa: $rsp 8 + .ra: .cfa -8 + ^
STACK CFI INIT 490a0 b9 .cfa: $rsp 8 + .ra: .cfa -8 + ^
STACK CFI 490a2 $r14: .cfa -16 + ^ .cfa: $rsp 16 +
STACK CFI 490a4 $r13: .cfa -24 + ^ .cfa: $rsp 24 +
STACK CFI 490a9 $r12: .cfa -32 + ^ .cfa: $rsp 32 +
STACK CFI 490ad $rbp: .cfa -40 + ^ .cfa: $rsp 40 +
STACK CFI 490ae $rbx: .cfa -48 + ^ .cfa: $rsp 48 +
STACK CFI 49151 .cfa: $rsp 40 +
STACK CFI 49152 .cfa: $rsp 32 +
STACK CFI 49154 .cfa: $rsp 24 +
STACK CFI 49156 .cfa: $rsp 16 +
STACK CFI 49158 .cfa: $rsp 8 +
STACK CFI INIT 49160 85 .cfa: $rsp 8 + .ra: .cfa -8 + ^
STACK CFI 49162 $r13: .cfa -16 + ^ .cfa: $rsp 16 +
STACK CFI 49164 $r12: .cfa -24 + ^ .cfa: $rsp 24 +
STACK CFI 49168 $rbp: .cfa -32 + ^ .cfa: $rsp 32 +
STACK CFI 49173 $rbx: .cfa -40 + ^ .cfa: $rsp 40 +
STACK CFI 49179 .cfa: $rsp 48 +
STACK CFI 491de .cfa: $rsp 40 +
STACK CFI 491df .cfa: $rsp 32 +
STACK CFI 491e0 .cfa: $rsp 24 +
STACK CFI 491e2 .cfa: $rsp 16 +
STACK CFI 491e4 .cfa: $rsp 8 +
STACK CFI INIT 491f0 e .cfa: $rsp 8 + .ra: .cfa -8 + ^
STACK CFI INIT 49200 2cb .cfa: $rsp 8 + .ra: .cfa -8 + ^
STACK CFI 49202 $r13: .cfa -16 + ^ .cfa: $rsp 16 +
STACK CFI 49208 $r12: .cfa -24 + ^ .cfa: $rsp 24 +
STACK CFI 49209 $rbp: .cfa -32 + ^ .cfa: $rsp 32 +
STACK CFI 4920d $rbx: .cfa -40 + ^ .cfa: $rsp 40 +
STACK CFI 49217 .cfa: $rsp 192 +
STACK CFI 494c4 .cfa: $rsp 40 +
STACK CFI 494c5 .cfa: $rsp 32 +
STACK CFI 494c6 .cfa: $rsp 24 +
STACK CFI 494c8 .cfa: $rsp 16 +
STACK CFI 494ca .cfa: $rsp 8 +
STACK CFI INIT 494d0 21c .cfa: $rsp 8 + .ra: .cfa -8 + ^
STACK CFI 494d1 $rbp: .cfa -16 + ^ .cfa: $rsp 16 +
STACK CFI 494d2 $rbx: .cfa -24 + ^ .cfa: $rsp 24 +
STACK CFI 494d6 .cfa: $rsp 96 +
STACK CFI 49614 .cfa: $rsp 24 +
STACK CFI 49615 .cfa: $rsp 16 +
STACK CFI 49616 .cfa: $rsp 8 +
STACK CFI 49620 .cfa: $rsp 96 +
STACK CFI 49654 .cfa: $rsp 24 +
STACK CFI 49655 .cfa: $rsp 16 +
STACK CFI 49656 .cfa: $rsp 8 +
STACK CFI 49660 .cfa: $rsp 96 +
STACK CFI 496c2 .cfa: $rsp 24 +
STACK CFI 496c3 .cfa: $rsp 16 +
STACK CFI 496c4 .cfa: $rsp 8 +
STACK CFI 496d0 .cfa: $rsp 96 +
STACK CFI INIT 496f0 42 .cfa: $rsp 8 + .ra: .cfa -8 + ^
STACK CFI INIT 49740 104 .cfa: $rsp 8 + .ra: .cfa -8 + ^
STACK CFI 49741 $rbp: .cfa -16 + ^ .cfa: $rsp 16 +
STACK CFI 49742 $rbx: .cfa -24 + ^ .cfa: $rsp 24 +
STACK CFI 49749 .cfa: $rsp 48 +
STACK CFI 49808 .cfa: $rsp 24 +
STACK CFI 49809 .cfa: $rsp 16 +
STACK CFI 4980a .cfa: $rsp 8 +
STACK CFI 49810 .cfa: $rsp 48 +
STACK CFI INIT 49850 1b .cfa: $rsp 8 + .ra: .cfa -8 + ^
STACK CFI INIT 49870 b .cfa: $rsp 8 + .ra: .cfa -8 + ^
STACK CFI INIT 49880 e .cfa: $rsp 8 + .ra: .cfa -8 + ^
STACK CFI INIT 49890 19c .cfa: $rsp 8 + .ra: .cfa -8 + ^
STACK CFI 49892 $r13: .cfa -16 + ^ .cfa: $rsp 16 +
STACK CFI 49897 $r12: .cfa -24 + ^ .cfa: $rsp 24 +
STACK CFI 4989b $rbp: .cfa -32 + ^ .cfa: $rsp 32 +
STACK CFI 4989c $rbx: .cfa -40 + ^ .cfa: $rsp 40 +
STACK CFI 498a3 .cfa: $rsp 48 +
STACK CFI 4996b .cfa: $rsp 40 +
STACK CFI 4996f .cfa: $rsp 32 +
STACK CFI 49970 .cfa: $rsp 24 +
STACK CFI 49972 .cfa: $rsp 16 +
STACK CFI 49974 .cfa: $rsp 8 +
STACK CFI 49980 .cfa: $rsp 48 +
STACK CFI 49984 .cfa: $rsp 40 +
STACK CFI 49985 .cfa: $rsp 32 +
STACK CFI 49986 .cfa: $rsp 24 +
STACK CFI 49988 .cfa: $rsp 16 +
STACK CFI 4998a .cfa: $rsp 8 +
STACK CFI 49990 .cfa: $rsp 48 +
STACK CFI INIT 49a30 aa .cfa: $rsp 8 + .ra: .cfa -8 + ^
STACK CFI 49a32 $r12: .cfa -16 + ^ .cfa: $rsp 16 +
STACK CFI 49a39 $rbp: .cfa -24 + ^ .cfa: $rsp 24 +
STACK CFI 49a3d $rbx: .cfa -32 + ^ .cfa: $rsp 32 +
STACK CFI 49a93 .cfa: $rsp 24 +
STACK CFI 49a94 .cfa: $rsp 16 +
STACK CFI 49a96 .cfa: $rsp 8 +
STACK CFI 49aa0 .cfa: $rsp 32 +
STACK CFI 49aa1 .cfa: $rsp 24 +
STACK CFI 49aa2 .cfa: $rsp 16 +
STACK CFI 49aa4 .cfa: $rsp 8 +
STACK CFI 49aa8 .cfa: $rsp 32 +
STACK CFI INIT 49ae0 5e2 .cfa: $rsp 8 + .ra: .cfa -8 + ^
STACK CFI 49ae1 $rbp: .cfa -16 + ^ .cfa: $rsp 16 +
STACK CFI 49ae2 $rbx: .cfa -24 + ^ .cfa: $rsp 24 +
STACK CFI 49ae9 .cfa: $rsp 96 +
STACK CFI 49c2f .cfa: $rsp 24 +
STACK CFI 49c30 .cfa: $rsp 16 +
STACK CFI 49c31 .cfa: $rsp 8 +
STACK CFI 49c38 .cfa: $rsp 96 +
STACK CFI INIT 4a0d0 e7 .cfa: $rsp 8 + .ra: .cfa -8 + ^
STACK CFI 4a0d1 $rbx: .cfa -16 + ^ .cfa: $rsp 16 +
STACK CFI 4a0d8 .cfa: $rsp 48 +
STACK CFI 4a143 .cfa: $rsp 16 +
STACK CFI 4a144 .cfa: $rsp 8 +
STACK CFI 4a148 .cfa: $rsp 48 +
STACK CFI 4a167 .cfa: $rsp 16 +
STACK CFI 4a168 .cfa: $rsp 8 +
STACK CFI 4a170 .cfa: $rsp 48 +
STACK CFI INIT 4a1c0 e7 .cfa: $rsp 8 + .ra: .cfa -8 + ^
STACK CFI 4a1c1 $rbx: .cfa -16 + ^ .cfa: $rsp 16 +
STACK CFI 4a1c8 .cfa: $rsp 48 +
STACK CFI 4a233 .cfa: $rsp 16 +
STACK CFI 4a234 .cfa: $rsp 8 +
STACK CFI 4a238 .cfa: $rsp 48 +
STACK CFI 4a257 .cfa: $rsp 16 +
STACK CFI 4a258 .cfa: $rsp 8 +
STACK CFI 4a260 .cfa: $rsp 48 +
STACK CFI INIT 4a2b0 20 .cfa: $rsp 8 + .ra: .cfa -8 + ^
STACK CFI 4a2b1 $rbp: .cfa -16 + ^ .cfa: $rsp 16 +
STACK CFI 4a2b4 $rbx: .cfa -24 + ^ .cfa: $rsp 24 +
STACK CFI 4a2bb .cfa: $rsp 32 +
STACK CFI 4a2c4 .cfa: $rsp 24 +
STACK CFI 4a2ca .cfa: $rsp 16 +
STACK CFI 4a2cb .cfa: $rsp 8 +
STACK CFI INIT 4a2d0 23 .cfa: $rsp 8 + .ra: .cfa -8 + ^
STACK CFI INIT 4a300 32 .cfa: $rsp 8 + .ra: .cfa -8 + ^
STACK CFI INIT 4a340 ec .cfa: $rsp 8 + .ra: .cfa -8 + ^
STACK CFI 4a342 $r12: .cfa -16 + ^ .cfa: $rsp 16 +
STACK CFI 4a349 $rbp: .cfa -24 + ^ .cfa: $rsp 24 +
STACK CFI 4a34a $rbx: .cfa -32 + ^ .cfa: $rsp 32 +
STACK CFI 4a3c8 .cfa: $rsp 24 +
STACK CFI 4a3c9 .cfa: $rsp 16 +
STACK CFI 4a3cb .cfa: $rsp 8 +
STACK CFI 4a3d0 .cfa: $rsp 32 +
STACK CFI 4a3df .cfa: $rsp 24 +
STACK CFI 4a3e0 .cfa: $rsp 16 +
STACK CFI 4a3e2 .cfa: $rsp 8 +
STACK CFI 4a3e8 .cfa: $rsp 32 +
STACK CFI INIT 4a430 1a .cfa: $rsp 8 + .ra: .cfa -8 + ^
STACK CFI INIT 4a450 1a .cfa: $rsp 8 + .ra: .cfa -8 + ^
STACK CFI INIT 4a470 4c .cfa: $rsp 8 + .ra: .cfa -8 + ^
STACK CFI 4a472 $r12: .cfa -16 + ^ .cfa: $rsp 16 +
STACK CFI 4a473 $rbp: .cfa -24 + ^ .cfa: $rsp 24 +
STACK CFI 4a474 $rbx: .cfa -32 + ^ .cfa: $rsp 32 +
STACK CFI 4a4a4 .cfa: $rsp 24 +
STACK CFI 4a4a5 .cfa: $rsp 16 +
STACK CFI 4a4a7 .cfa: $rsp 8 +
STACK CFI 4a4b0 .cfa: $rsp 32 +
STACK CFI INIT 4a4c0 39 .cfa: $rsp 8 + .ra: .cfa -8 + ^
STACK CFI 4a4c2 $r12: .cfa -16 + ^ .cfa: $rsp 16 +
STACK CFI 4a4c7 $rbp: .cfa -24 + ^ .cfa: $rsp 24 +
STACK CFI 4a4c8 $rbx: .cfa -32 + ^ .cfa: $rsp 32 +
STACK CFI 4a4ce .cfa: $rsp 24 +
STACK CFI 4a4cf .cfa: $rsp 16 +
STACK CFI 4a4d1 .cfa: $rsp 8 +
STACK CFI 4a4d8 .cfa: $rsp 32 +
STACK CFI 4a4f5 .cfa: $rsp 24 +
STACK CFI 4a4f6 .cfa: $rsp 16 +
STACK CFI 4a4f8 .cfa: $rsp 8 +
STACK CFI INIT 4a500 1b2 .cfa: $rsp 8 + .ra: .cfa -8 + ^
STACK CFI 4a502 $r14: .cfa -16 + ^ .cfa: $rsp 16 +
STACK CFI 4a504 $r13: .cfa -24 + ^ .cfa: $rsp 24 +
STACK CFI 4a509 $r12: .cfa -32 + ^ .cfa: $rsp 32 +
STACK CFI 4a50a $rbp: .cfa -40 + ^ .cfa: $rsp 40 +
STACK CFI 4a50e $rbx: .cfa -48 + ^ .cfa: $rsp 48 +
STACK CFI 4a514 .cfa: $rsp 96 +
STACK CFI 4a646 .cfa: $rsp 48 +
STACK CFI 4a649 .cfa: $rsp 40 +
STACK CFI 4a64a .cfa: $rsp 32 +
STACK CFI 4a64c .cfa: $rsp 24 +
STACK CFI 4a64e .cfa: $rsp 16 +
STACK CFI 4a650 .cfa: $rsp 8 +
STACK CFI 4a658 .cfa: $rsp 96 +
STACK CFI 4a66d .cfa: $rsp 48 +
STACK CFI 4a66e .cfa: $rsp 40 +
STACK CFI 4a66f .cfa: $rsp 32 +
STACK CFI 4a671 .cfa: $rsp 24 +
STACK CFI 4a673 .cfa: $rsp 16 +
STACK CFI 4a675 .cfa: $rsp 8 +
STACK CFI 4a680 .cfa: $rsp 96 +
STACK CFI INIT 4a6c0 1b2 .cfa: $rsp 8 + .ra: .cfa -8 + ^
STACK CFI 4a6c2 $r14: .cfa -16 + ^ .cfa: $rsp 16 +
STACK CFI 4a6c4 $r13: .cfa -24 + ^ .cfa: $rsp 24 +
STACK CFI 4a6c9 $r12: .cfa -32 + ^ .cfa: $rsp 32 +
STACK CFI 4a6ca $rbp: .cfa -40 + ^ .cfa: $rsp 40 +
STACK CFI 4a6ce $rbx: .cfa -48 + ^ .cfa: $rsp 48 +
STACK CFI 4a6d4 .cfa: $rsp 96 +
STACK CFI 4a806 .cfa: $rsp 48 +
STACK CFI 4a809 .cfa: $rsp 40 +
STACK CFI 4a80a .cfa: $rsp 32 +
STACK CFI 4a80c .cfa: $rsp 24 +
STACK CFI 4a80e .cfa: $rsp 16 +
STACK CFI 4a810 .cfa: $rsp 8 +
STACK CFI 4a818 .cfa: $rsp 96 +
STACK CFI 4a82d .cfa: $rsp 48 +
STACK CFI 4a82e .cfa: $rsp 40 +
STACK CFI 4a82f .cfa: $rsp 32 +
STACK CFI 4a831 .cfa: $rsp 24 +
STACK CFI 4a833 .cfa: $rsp 16 +
STACK CFI 4a835 .cfa: $rsp 8 +
STACK CFI 4a840 .cfa: $rsp 96 +
STACK CFI INIT 4a880 e0 .cfa: $rsp 8 + .ra: .cfa -8 + ^
STACK CFI 4a882 $r13: .cfa -16 + ^ .cfa: $rsp 16 +
STACK CFI 4a887 $r12: .cfa -24 + ^ .cfa: $rsp 24 +
STACK CFI 4a888 $rbp: .cfa -32 + ^ .cfa: $rsp 32 +
STACK CFI 4a88c $rbx: .cfa -40 + ^ .cfa: $rsp 40 +
STACK CFI 4a892 .cfa: $rsp 80 +
STACK CFI 4a946 .cfa: $rsp 40 +
STACK CFI 4a947 .cfa: $rsp 32 +
STACK CFI 4a948 .cfa: $rsp 24 +
STACK CFI 4a94a .cfa: $rsp 16 +
STACK CFI 4a94c .cfa: $rsp 8 +
STACK CFI 4a94d .cfa: $rsp 80 +
STACK CFI INIT 4a960 21c .cfa: $rsp 8 + .ra: .cfa -8 + ^
STACK CFI 4a961 $rbp: .cfa -16 + ^ .cfa: $rsp 16 +
STACK CFI 4a962 $rbx: .cfa -24 + ^ .cfa: $rsp 24 +
STACK CFI 4a966 .cfa: $rsp 96 +
STACK CFI 4aaa4 .cfa: $rsp 24 +
STACK CFI 4aaa5 .cfa: $rsp 16 +
STACK CFI 4aaa6 .cfa: $rsp 8 +
STACK CFI 4aab0 .cfa: $rsp 96 +
STACK CFI 4aae4 .cfa: $rsp 24 +
STACK CFI 4aae5 .cfa: $rsp 16 +
STACK CFI 4aae6 .cfa: $rsp 8 +
STACK CFI 4aaf0 .cfa: $rsp 96 +
STACK CFI 4ab52 .cfa: $rsp 24 +
STACK CFI 4ab53 .cfa: $rsp 16 +
STACK CFI 4ab54 .cfa: $rsp 8 +
STACK CFI 4ab60 .cfa: $rsp 96 +
STACK CFI INIT 4ab80 8a .cfa: $rsp 8 + .ra: .cfa -8 + ^
STACK CFI 4ab81 $rbp: .cfa -16 + ^ .cfa: $rsp 16 +
STACK CFI 4ab85 $rbx: .cfa -24 + ^ .cfa: $rsp 24 +
STACK CFI 4ab8c .cfa: $rsp 64 +
STACK CFI 4abe2 .cfa: $rsp 24 +
STACK CFI 4abe7 .cfa: $rsp 16 +
STACK CFI 4abe8 .cfa: $rsp 8 +
STACK CFI 4abf0 .cfa: $rsp 64 +
STACK CFI 4abfc .cfa: $rsp 24 +
STACK CFI 4abfd .cfa: $rsp 16 +
STACK CFI 4abfe .cfa: $rsp 8 +
STACK CFI 4abff .cfa: $rsp 64 +
STACK CFI INIT 4ac10 7f1 .cfa: $rsp 8 + .ra: .cfa -8 + ^
STACK CFI 4ac12 $r13: .cfa -16 + ^ .cfa: $rsp 16 +
STACK CFI 4ac14 $r12: .cfa -24 + ^ .cfa: $rsp 24 +
STACK CFI 4ac15 $rbp: .cfa -32 + ^ .cfa: $rsp 32 +
STACK CFI 4ac19 $rbx: .cfa -40 + ^ .cfa: $rsp 40 +
STACK CFI 4ac23 .cfa: $rsp 176 +
STACK CFI 4b1af .cfa: $rsp 40 +
STACK CFI 4b1b0 .cfa: $rsp 32 +
STACK CFI 4b1b1 .cfa: $rsp 24 +
STACK CFI 4b1b3 .cfa: $rsp 16 +
STACK CFI 4b1b5 .cfa: $rsp 8 +
STACK CFI 4b1c0 .cfa: $rsp 176 +
STACK CFI INIT 4b410 1e .cfa: $rsp 8 + .ra: .cfa -8 + ^
STACK CFI INIT 4b430 74 .cfa: $rsp 8 + .ra: .cfa -8 + ^
STACK CFI INIT 4b4b0 1e .cfa: $rsp 8 + .ra: .cfa -8 + ^
STACK CFI INIT 4b4d0 3d .cfa: $rsp 8 + .ra: .cfa -8 + ^
STACK CFI 4b4d1 $rbx: .cfa -16 + ^ .cfa: $rsp 16 +
STACK CFI 4b4e9 .cfa: $rsp 8 +
STACK CFI 4b4f0 .cfa: $rsp 16 +
STACK CFI 4b508 .cfa: $rsp 8 +
STACK CFI INIT 4b510 74 .cfa: $rsp 8 + .ra: .cfa -8 + ^
STACK CFI INIT 4b590 5 .cfa: $rsp 8 + .ra: .cfa -8 + ^
STACK CFI INIT 4b5a0 9 .cfa: $rsp 8 + .ra: .cfa -8 + ^
STACK CFI INIT 4b5b0 4a .cfa: $rsp 8 + .ra: .cfa -8 + ^
STACK CFI INIT 4b600 7 .cfa: $rsp 8 + .ra: .cfa -8 + ^
STACK CFI INIT 4b610 8 .cfa: $rsp 8 + .ra: .cfa -8 + ^
STACK CFI INIT 4b620 9 .cfa: $rsp 8 + .ra: .cfa -8 + ^
STACK CFI INIT 4b630 38 .cfa: $rsp 8 + .ra: .cfa -8 + ^
STACK CFI 4b634 .cfa: $rsp 32 +
STACK CFI 4b65c .cfa: $rsp 8 +
STACK CFI 4b660 .cfa: $rsp 32 +
STACK CFI INIT 4b670 7 .cfa: $rsp 8 + .ra: .cfa -8 + ^
STACK CFI INIT 4b680 2a .cfa: $rsp 8 + .ra: .cfa -8 + ^
STACK CFI INIT 4b6b0 c .cfa: $rsp 8 + .ra: .cfa -8 + ^
STACK CFI INIT 4b6c0 8 .cfa: $rsp 8 + .ra: .cfa -8 + ^
STACK CFI INIT 4b6d0 7 .cfa: $rsp 8 + .ra: .cfa -8 + ^
STACK CFI INIT 4b6e0 1cb .cfa: $rsp 8 + .ra: .cfa -8 + ^
STACK CFI 4b6e2 $r12: .cfa -16 + ^ .cfa: $rsp 16 +
STACK CFI 4b6e3 $rbp: .cfa -24 + ^ .cfa: $rsp 24 +
STACK CFI 4b6e4 $rbx: .cfa -32 + ^ .cfa: $rsp 32 +
STACK CFI 4b6eb .cfa: $rsp 112 +
STACK CFI 4b815 .cfa: $rsp 32 +
STACK CFI 4b816 .cfa: $rsp 24 +
STACK CFI 4b817 .cfa: $rsp 16 +
STACK CFI 4b819 .cfa: $rsp 8 +
STACK CFI 4b81a .cfa: $rsp 112 +
STACK CFI INIT 4b8b0 bc .cfa: $rsp 8 + .ra: .cfa -8 + ^
STACK CFI 4b8b2 $r12: .cfa -16 + ^ .cfa: $rsp 16 +
STACK CFI 4b8b3 $rbp: .cfa -24 + ^ .cfa: $rsp 24 +
STACK CFI 4b8b4 $rbx: .cfa -32 + ^ .cfa: $rsp 32 +
STACK CFI 4b928 .cfa: $rsp 24 +
STACK CFI 4b929 .cfa: $rsp 16 +
STACK CFI 4b92b .cfa: $rsp 8 +
STACK CFI 4b930 .cfa: $rsp 32 +
STACK CFI INIT 4b970 b .cfa: $rsp 8 + .ra: .cfa -8 + ^
STACK CFI INIT 4b980 1cb .cfa: $rsp 8 + .ra: .cfa -8 + ^
STACK CFI 4b982 $r12: .cfa -16 + ^ .cfa: $rsp 16 +
STACK CFI 4b983 $rbp: .cfa -24 + ^ .cfa: $rsp 24 +
STACK CFI 4b984 $rbx: .cfa -32 + ^ .cfa: $rsp 32 +
STACK CFI 4b98b .cfa: $rsp 112 +
STACK CFI 4bab5 .cfa: $rsp 32 +
STACK CFI 4bab6 .cfa: $rsp 24 +
STACK CFI 4bab7 .cfa: $rsp 16 +
STACK CFI 4bab9 .cfa: $rsp 8 +
STACK CFI 4baba .cfa: $rsp 112 +
STACK CFI INIT 4bb50 2b .cfa: $rsp 8 + .ra: .cfa -8 + ^
STACK CFI INIT 4bb80 e .cfa: $rsp 8 + .ra: .cfa -8 + ^
STACK CFI INIT 4bb90 1cb .cfa: $rsp 8 + .ra: .cfa -8 + ^
STACK CFI 4bb92 $r12: .cfa -16 + ^ .cfa: $rsp 16 +
STACK CFI 4bb93 $rbp: .cfa -24 + ^ .cfa: $rsp 24 +
STACK CFI 4bb94 $rbx: .cfa -32 + ^ .cfa: $rsp 32 +
STACK CFI 4bb9b .cfa: $rsp 112 +
STACK CFI 4bcc5 .cfa: $rsp 32 +
STACK CFI 4bcc6 .cfa: $rsp 24 +
STACK CFI 4bcc7 .cfa: $rsp 16 +
STACK CFI 4bcc9 .cfa: $rsp 8 +
STACK CFI 4bcca .cfa: $rsp 112 +
STACK CFI INIT 4bd60 2b .cfa: $rsp 8 + .ra: .cfa -8 + ^
STACK CFI INIT 4bd90 e .cfa: $rsp 8 + .ra: .cfa -8 + ^
STACK CFI INIT 4bda0 1cb .cfa: $rsp 8 + .ra: .cfa -8 + ^
STACK CFI 4bda2 $r12: .cfa -16 + ^ .cfa: $rsp 16 +
STACK CFI 4bda3 $rbp: .cfa -24 + ^ .cfa: $rsp 24 +
STACK CFI 4bda4 $rbx: .cfa -32 + ^ .cfa: $rsp 32 +
STACK CFI 4bdab .cfa: $rsp 112 +
STACK CFI 4bed5 .cfa: $rsp 32 +
STACK CFI 4bed6 .cfa: $rsp 24 +
STACK CFI 4bed7 .cfa: $rsp 16 +
STACK CFI 4bed9 .cfa: $rsp 8 +
STACK CFI 4beda .cfa: $rsp 112 +
STACK CFI INIT 4bf70 8 .cfa: $rsp 8 + .ra: .cfa -8 + ^
STACK CFI INIT 4bf80 e .cfa: $rsp 8 + .ra: .cfa -8 + ^
STACK CFI INIT 4bf90 2e2 .cfa: $rsp 8 + .ra: .cfa -8 + ^
STACK CFI 4bf92 $r14: .cfa -16 + ^ .cfa: $rsp 16 +
STACK CFI 4bf94 $r13: .cfa -24 + ^ .cfa: $rsp 24 +
STACK CFI 4bf96 $r12: .cfa -32 + ^ .cfa: $rsp 32 +
STACK CFI 4bf97 $rbp: .cfa -40 + ^ .cfa: $rsp 40 +
STACK CFI 4bf98 $rbx: .cfa -48 + ^ .cfa: $rsp 48 +
STACK CFI 4bf9f .cfa: $rsp 160 +
STACK CFI 4bfac .cfa: $rsp 48 +
STACK CFI 4bfad .cfa: $rsp 40 +
STACK CFI 4bfae .cfa: $rsp 32 +
STACK CFI 4bfb0 .cfa: $rsp 24 +
STACK CFI 4bfb2 .cfa: $rsp 16 +
STACK CFI 4bfb4 .cfa: $rsp 8 +
STACK CFI 4bfb8 .cfa: $rsp 160 +
STACK CFI 4c0a3 .cfa: $rsp 48 +
STACK CFI 4c0a4 .cfa: $rsp 40 +
STACK CFI 4c0a5 .cfa: $rsp 32 +
STACK CFI 4c0a7 .cfa: $rsp 24 +
STACK CFI 4c0a9 .cfa: $rsp 16 +
STACK CFI 4c0ab .cfa: $rsp 8 +
STACK CFI 4c0b0 .cfa: $rsp 160 +
STACK CFI INIT 4c280 34b .cfa: $rsp 8 + .ra: .cfa -8 + ^
STACK CFI 4c281 $rbp: .cfa -16 + ^ .cfa: $rsp 16 +
STACK CFI 4c282 $rbx: .cfa -24 + ^ .cfa: $rsp 24 +
STACK CFI 4c289 .cfa: $rsp 64 +
STACK CFI 4c2a3 .cfa: $rsp 24 +
STACK CFI 4c2a4 .cfa: $rsp 16 +
STACK CFI 4c2a5 .cfa: $rsp 8 +
STACK CFI 4c2b0 .cfa: $rsp 64 +
STACK CFI 4c2ef .cfa: $rsp 24 +
STACK CFI 4c2f0 .cfa: $rsp 16 +
STACK CFI 4c2f1 .cfa: $rsp 8 +
STACK CFI 4c2f8 .cfa: $rsp 64 +
STACK CFI INIT 4c5d0 26b .cfa: $rsp 8 + .ra: .cfa -8 + ^
STACK CFI 4c5d1 $rbx: .cfa -16 + ^ .cfa: $rsp 16 +
STACK CFI 4c5d8 .cfa: $rsp 48 +
STACK CFI 4c5e9 .cfa: $rsp 16 +
STACK CFI 4c5ea .cfa: $rsp 8 +
STACK CFI 4c5f0 .cfa: $rsp 48 +
STACK CFI 4c61b .cfa: $rsp 16 +
STACK CFI 4c621 .cfa: $rsp 8 +
STACK CFI 4c630 .cfa: $rsp 48 +
STACK CFI INIT 4c840 32 .cfa: $rsp 8 + .ra: .cfa -8 + ^
STACK CFI INIT 4c880 284 .cfa: $rsp 8 + .ra: .cfa -8 + ^
STACK CFI 4c882 $r13: .cfa -16 + ^ .cfa: $rsp 16 +
STACK CFI 4c884 $r12: .cfa -24 + ^ .cfa: $rsp 24 +
STACK CFI 4c888 $rbp: .cfa -32 + ^ .cfa: $rsp 32 +
STACK CFI 4c88c $rbx: .cfa -40 + ^ .cfa: $rsp 40 +
STACK CFI 4c893 .cfa: $rsp 128 +
STACK CFI 4c947 .cfa: $rsp 40 +
STACK CFI 4c948 .cfa: $rsp 32 +
STACK CFI 4c949 .cfa: $rsp 24 +
STACK CFI 4c94b .cfa: $rsp 16 +
STACK CFI 4c94d .cfa: $rsp 8 +
STACK CFI 4c950 .cfa: $rsp 128 +
STACK CFI 4ca5c .cfa: $rsp 40 +
STACK CFI 4ca5d .cfa: $rsp 32 +
STACK CFI 4ca5e .cfa: $rsp 24 +
STACK CFI 4ca60 .cfa: $rsp 16 +
STACK CFI 4ca62 .cfa: $rsp 8 +
STACK CFI 4ca68 .cfa: $rsp 128 +
STACK CFI INIT 4cb10 f0 .cfa: $rsp 8 + .ra: .cfa -8 + ^
STACK CFI 4cb12 $r12: .cfa -16 + ^ .cfa: $rsp 16 +
STACK CFI 4cb15 $rbp: .cfa -24 + ^ .cfa: $rsp 24 +
STACK CFI 4cb16 $rbx: .cfa -32 + ^ .cfa: $rsp 32 +
STACK CFI 4cb20 .cfa: $rsp 24 +
STACK CFI 4cb21 .cfa: $rsp 16 +
STACK CFI 4cb23 .cfa: $rsp 8 +
STACK CFI 4cb28 .cfa: $rsp 32 +
STACK CFI 4cb57 .cfa: $rsp 24 +
STACK CFI 4cb58 .cfa: $rsp 16 +
STACK CFI 4cb5a .cfa: $rsp 8 +
STACK CFI 4cb60 .cfa: $rsp 32 +
STACK CFI INIT 4cc00 1d5 .cfa: $rsp 8 + .ra: .cfa -8 + ^
STACK CFI 4cc02 $r13: .cfa -16 + ^ .cfa: $rsp 16 +
STACK CFI 4cc04 $r12: .cfa -24 + ^ .cfa: $rsp 24 +
STACK CFI 4cc05 $rbp: .cfa -32 + ^ .cfa: $rsp 32 +
STACK CFI 4cc09 $rbx: .cfa -40 + ^ .cfa: $rsp 40 +
STACK CFI 4cc0f .cfa: $rsp 128 +
STACK CFI 4cc24 .cfa: $rsp 40 +
STACK CFI 4cc25 .cfa: $rsp 32 +
STACK CFI 4cc26 .cfa: $rsp 24 +
STACK CFI 4cc28 .cfa: $rsp 16 +
STACK CFI 4cc2a .cfa: $rsp 8 +
STACK CFI 4cc30 .cfa: $rsp 128 +
STACK CFI INIT 4cde0 e .cfa: $rsp 8 + .ra: .cfa -8 + ^
STACK CFI INIT 4cdf0 5 .cfa: $rsp 8 + .ra: .cfa -8 + ^
STACK CFI INIT 4ce00 7a .cfa: $rsp 8 + .ra: .cfa -8 + ^
STACK CFI 4ce02 $r12: .cfa -16 + ^ .cfa: $rsp 16 +
STACK CFI 4ce0a $rbp: .cfa -24 + ^ .cfa: $rsp 24 +
STACK CFI 4ce0b $rbx: .cfa -32 + ^ .cfa: $rsp 32 +
STACK CFI 4ce52 .cfa: $rsp 24 +
STACK CFI 4ce53 .cfa: $rsp 16 +
STACK CFI 4ce55 .cfa: $rsp 8 +
STACK CFI 4ce60 .cfa: $rsp 32 +
STACK CFI 4ce76 .cfa: $rsp 24 +
STACK CFI 4ce77 .cfa: $rsp 16 +
STACK CFI 4ce79 .cfa: $rsp 8 +
STACK CFI INIT 4ce80 c .cfa: $rsp 8 + .ra: .cfa -8 + ^
STACK CFI INIT 4ce90 8 .cfa: $rsp 8 + .ra: .cfa -8 + ^
STACK CFI INIT 4cea0 7 .cfa: $rsp 8 + .ra: .cfa -8 + ^
STACK CFI INIT 4ceb0 52 .cfa: $rsp 8 + .ra: .cfa -8 + ^
STACK CFI INIT 4cf10 52 .cfa: $rsp 8 + .ra: .cfa -8 + ^
STACK CFI INIT 4cf70 25 .cfa: $rsp 8 + .ra: .cfa -8 + ^
STACK CFI INIT 4cfa0 7 .cfa: $rsp 8 + .ra: .cfa -8 + ^
STACK CFI INIT 4cfb0 7 .cfa: $rsp 8 + .ra: .cfa -8 + ^
STACK CFI INIT 4cfc0 1cf .cfa: $rsp 8 + .ra: .cfa -8 + ^
STACK CFI 4cfc2 $r13: .cfa -16 + ^ .cfa: $rsp 16 +
STACK CFI 4cfc7 $r12: .cfa -24 + ^ .cfa: $rsp 24 +
STACK CFI 4cfcb $rbp: .cfa -32 + ^ .cfa: $rsp 32 +
STACK CFI 4cfcc $rbx: .cfa -40 + ^ .cfa: $rsp 40 +
STACK CFI 4cfd3 .cfa: $rsp 48 +
STACK CFI 4d0b3 .cfa: $rsp 40 +
STACK CFI 4d0b7 .cfa: $rsp 32 +
STACK CFI 4d0b8 .cfa: $rsp 24 +
STACK CFI 4d0ba .cfa: $rsp 16 +
STACK CFI 4d0bc .cfa: $rsp 8 +
STACK CFI 4d0c8 .cfa: $rsp 48 +
STACK CFI 4d0cc .cfa: $rsp 40 +
STACK CFI 4d0cd .cfa: $rsp 32 +
STACK CFI 4d0ce .cfa: $rsp 24 +
STACK CFI 4d0d0 .cfa: $rsp 16 +
STACK CFI 4d0d2 .cfa: $rsp 8 +
STACK CFI 4d0d8 .cfa: $rsp 48 +
STACK CFI INIT 4d190 1cf .cfa: $rsp 8 + .ra: .cfa -8 + ^
STACK CFI 4d192 $r13: .cfa -16 + ^ .cfa: $rsp 16 +
STACK CFI 4d197 $r12: .cfa -24 + ^ .cfa: $rsp 24 +
STACK CFI 4d19b $rbp: .cfa -32 + ^ .cfa: $rsp 32 +
STACK CFI 4d19c $rbx: .cfa -40 + ^ .cfa: $rsp 40 +
STACK CFI 4d1a3 .cfa: $rsp 48 +
STACK CFI 4d283 .cfa: $rsp 40 +
STACK CFI 4d287 .cfa: $rsp 32 +
STACK CFI 4d288 .cfa: $rsp 24 +
STACK CFI 4d28a .cfa: $rsp 16 +
STACK CFI 4d28c .cfa: $rsp 8 +
STACK CFI 4d298 .cfa: $rsp 48 +
STACK CFI 4d29c .cfa: $rsp 40 +
STACK CFI 4d29d .cfa: $rsp 32 +
STACK CFI 4d29e .cfa: $rsp 24 +
STACK CFI 4d2a0 .cfa: $rsp 16 +
STACK CFI 4d2a2 .cfa: $rsp 8 +
STACK CFI 4d2a8 .cfa: $rsp 48 +
STACK CFI INIT 4d360 11 .cfa: $rsp 8 + .ra: .cfa -8 + ^
STACK CFI INIT 4d380 11 .cfa: $rsp 8 + .ra: .cfa -8 + ^
STACK CFI INIT 4d3a0 c .cfa: $rsp 8 + .ra: .cfa -8 + ^
STACK CFI INIT 4d3b0 c .cfa: $rsp 8 + .ra: .cfa -8 + ^
STACK CFI INIT 4d3c0 c .cfa: $rsp 8 + .ra: .cfa -8 + ^
STACK CFI INIT 4d3d0 c .cfa: $rsp 8 + .ra: .cfa -8 + ^
STACK CFI INIT 4d3e0 22 .cfa: $rsp 8 + .ra: .cfa -8 + ^
STACK CFI INIT 4d410 22 .cfa: $rsp 8 + .ra: .cfa -8 + ^
STACK CFI INIT 4d440 64 .cfa: $rsp 8 + .ra: .cfa -8 + ^
STACK CFI 4d442 $r12: .cfa -16 + ^ .cfa: $rsp 16 +
STACK CFI 4d443 $rbp: .cfa -24 + ^ .cfa: $rsp 24 +
STACK CFI 4d444 $rbx: .cfa -32 + ^ .cfa: $rsp 32 +
STACK CFI 4d461 .cfa: $rsp 24 +
STACK CFI 4d462 .cfa: $rsp 16 +
STACK CFI 4d464 .cfa: $rsp 8 +
STACK CFI 4d468 .cfa: $rsp 32 +
STACK CFI 4d4a0 .cfa: $rsp 24 +
STACK CFI 4d4a1 .cfa: $rsp 16 +
STACK CFI 4d4a3 .cfa: $rsp 8 +
STACK CFI INIT 4d4b0 50 .cfa: $rsp 8 + .ra: .cfa -8 + ^
STACK CFI 4d4b2 $r12: .cfa -16 + ^ .cfa: $rsp 16 +
STACK CFI 4d4ba $rbp: .cfa -24 + ^ .cfa: $rsp 24 +
STACK CFI 4d4bb $rbx: .cfa -32 + ^ .cfa: $rsp 32 +
STACK CFI 4d4d1 .cfa: $rsp 24 +
STACK CFI 4d4d2 .cfa: $rsp 16 +
STACK CFI 4d4d4 .cfa: $rsp 8 +
STACK CFI 4d4d8 .cfa: $rsp 32 +
STACK CFI 4d4fc .cfa: $rsp 24 +
STACK CFI 4d4fd .cfa: $rsp 16 +
STACK CFI 4d4ff .cfa: $rsp 8 +
STACK CFI INIT 4d500 39 .cfa: $rsp 8 + .ra: .cfa -8 + ^
STACK CFI 4d501 $rbx: .cfa -16 + ^ .cfa: $rsp 16 +
STACK CFI 4d524 .cfa: $rsp 8 +
STACK CFI 4d528 .cfa: $rsp 16 +
STACK CFI 4d538 .cfa: $rsp 8 +
STACK CFI INIT 4d540 31 .cfa: $rsp 8 + .ra: .cfa -8 + ^
STACK CFI INIT 4d580 2a .cfa: $rsp 8 + .ra: .cfa -8 + ^
STACK CFI 4d581 $rbx: .cfa -16 + ^ .cfa: $rsp 16 +
STACK CFI 4d5a9 .cfa: $rsp 8 +
STACK CFI INIT 4d5b0 1b7 .cfa: $rsp 8 + .ra: .cfa -8 + ^
STACK CFI 4d5b2 $r15: .cfa -16 + ^ .cfa: $rsp 16 +
STACK CFI 4d5b4 $r14: .cfa -24 + ^ .cfa: $rsp 24 +
STACK CFI 4d5b6 $r13: .cfa -32 + ^ .cfa: $rsp 32 +
STACK CFI 4d5b8 $r12: .cfa -40 + ^ .cfa: $rsp 40 +
STACK CFI 4d5b9 $rbp: .cfa -48 + ^ .cfa: $rsp 48 +
STACK CFI 4d5ba $rbx: .cfa -56 + ^ .cfa: $rsp 56 +
STACK CFI 4d5c1 .cfa: $rsp 128 +
STACK CFI 4d6e8 .cfa: $rsp 56 +
STACK CFI 4d6ec .cfa: $rsp 48 +
STACK CFI 4d6ed .cfa: $rsp 40 +
STACK CFI 4d6ef .cfa: $rsp 32 +
STACK CFI 4d6f1 .cfa: $rsp 24 +
STACK CFI 4d6f3 .cfa: $rsp 16 +
STACK CFI 4d6f5 .cfa: $rsp 8 +
STACK CFI 4d6f6 .cfa: $rsp 128 +
STACK CFI INIT 4d770 c .cfa: $rsp 8 + .ra: .cfa -8 + ^
STACK CFI INIT 4d780 c .cfa: $rsp 8 + .ra: .cfa -8 + ^
STACK CFI INIT 4d790 b .cfa: $rsp 8 + .ra: .cfa -8 + ^
STACK CFI INIT 4d7a0 d .cfa: $rsp 8 + .ra: .cfa -8 + ^
STACK CFI INIT 4d7b0 7 .cfa: $rsp 8 + .ra: .cfa -8 + ^
STACK CFI INIT 4d7c0 c .cfa: $rsp 8 + .ra: .cfa -8 + ^
STACK CFI INIT 4d7d0 22 .cfa: $rsp 8 + .ra: .cfa -8 + ^
STACK CFI INIT 4d800 c .cfa: $rsp 8 + .ra: .cfa -8 + ^
STACK CFI INIT 4d810 c .cfa: $rsp 8 + .ra: .cfa -8 + ^
STACK CFI INIT 4d820 c .cfa: $rsp 8 + .ra: .cfa -8 + ^
STACK CFI INIT 4d830 20 .cfa: $rsp 8 + .ra: .cfa -8 + ^
STACK CFI 4d834 .cfa: $rsp 16 +
STACK CFI 4d84b .cfa: $rsp 8 +
STACK CFI INIT 4d850 c .cfa: $rsp 8 + .ra: .cfa -8 + ^
STACK CFI INIT 4d860 68 .cfa: $rsp 8 + .ra: .cfa -8 + ^
STACK CFI 4d861 $rbp: .cfa -16 + ^ .cfa: $rsp 16 +
STACK CFI 4d865 $rbx: .cfa -24 + ^ .cfa: $rsp 24 +
STACK CFI 4d86b .cfa: $rsp 32 +
STACK CFI 4d8ab .cfa: $rsp 24 +
STACK CFI 4d8ac .cfa: $rsp 16 +
STACK CFI 4d8ad .cfa: $rsp 8 +
STACK CFI 4d8b8 .cfa: $rsp 32 +
STACK CFI 4d8c2 .cfa: $rsp 24 +
STACK CFI 4d8c3 .cfa: $rsp 16 +
STACK CFI 4d8c4 .cfa: $rsp 8 +
STACK CFI INIT 4d8d0 58 .cfa: $rsp 8 + .ra: .cfa -8 + ^
STACK CFI 4d8d2 $r12: .cfa -16 + ^ .cfa: $rsp 16 +
STACK CFI 4d8da $rbp: .cfa -24 + ^ .cfa: $rsp 24 +
STACK CFI 4d8e1 $rbx: .cfa -32 + ^ .cfa: $rsp 32 +
STACK CFI 4d924 .cfa: $rsp 24 +
STACK CFI 4d925 .cfa: $rsp 16 +
STACK CFI 4d927 .cfa: $rsp 8 +
STACK CFI INIT 4d930 58 .cfa: $rsp 8 + .ra: .cfa -8 + ^
STACK CFI 4d932 $r12: .cfa -16 + ^ .cfa: $rsp 16 +
STACK CFI 4d936 $rbp: .cfa -24 + ^ .cfa: $rsp 24 +
STACK CFI 4d941 $rbx: .cfa -32 + ^ .cfa: $rsp 32 +
STACK CFI 4d984 .cfa: $rsp 24 +
STACK CFI 4d985 .cfa: $rsp 16 +
STACK CFI 4d987 .cfa: $rsp 8 +
STACK CFI INIT 4d990 58 .cfa: $rsp 8 + .ra: .cfa -8 + ^
STACK CFI 4d992 $r12: .cfa -16 + ^ .cfa: $rsp 16 +
STACK CFI 4d996 $rbp: .cfa -24 + ^ .cfa: $rsp 24 +
STACK CFI 4d9a1 $rbx: .cfa -32 + ^ .cfa: $rsp 32 +
STACK CFI 4d9e4 .cfa: $rsp 24 +
STACK CFI 4d9e5 .cfa: $rsp 16 +
STACK CFI 4d9e7 .cfa: $rsp 8 +
STACK CFI INIT 4d9f0 58 .cfa: $rsp 8 + .ra: .cfa -8 + ^
STACK CFI 4d9f2 $r12: .cfa -16 + ^ .cfa: $rsp 16 +
STACK CFI 4d9f6 $rbp: .cfa -24 + ^ .cfa: $rsp 24 +
STACK CFI 4da01 $rbx: .cfa -32 + ^ .cfa: $rsp 32 +
STACK CFI 4da44 .cfa: $rsp 24 +
STACK CFI 4da45 .cfa: $rsp 16 +
STACK CFI 4da47 .cfa: $rsp 8 +
STACK CFI INIT 4da50 4d .cfa: $rsp 8 + .ra: .cfa -8 + ^
STACK CFI 4da52 $r12: .cfa -16 + ^ .cfa: $rsp 16 +
STACK CFI 4da56 $rbp: .cfa -24 + ^ .cfa: $rsp 24 +
STACK CFI 4da5a $rbx: .cfa -32 + ^ .cfa: $rsp 32 +
STACK CFI 4da99 .cfa: $rsp 24 +
STACK CFI 4da9a .cfa: $rsp 16 +
STACK CFI 4da9c .cfa: $rsp 8 +
STACK CFI INIT 4daa0 132 .cfa: $rsp 8 + .ra: .cfa -8 + ^
STACK CFI 4daa2 $r12: .cfa -16 + ^ .cfa: $rsp 16 +
STACK CFI 4daa3 $rbp: .cfa -24 + ^ .cfa: $rsp 24 +
STACK CFI 4daa7 $rbx: .cfa -32 + ^ .cfa: $rsp 32 +
STACK CFI 4daab .cfa: $rsp 80 +
STACK CFI 4dae2 .cfa: $rsp 32 +
STACK CFI 4dae3 .cfa: $rsp 24 +
STACK CFI 4dae4 .cfa: $rsp 16 +
STACK CFI 4dae6 .cfa: $rsp 8 +
STACK CFI 4daf0 .cfa: $rsp 80 +
STACK CFI INIT 4dbe0 62 .cfa: $rsp 8 + .ra: .cfa -8 + ^
STACK CFI 4dbe2 $r12: .cfa -16 + ^ .cfa: $rsp 16 +
STACK CFI 4dbe6 $rbp: .cfa -24 + ^ .cfa: $rsp 24 +
STACK CFI 4dbe7 $rbx: .cfa -32 + ^ .cfa: $rsp 32 +
STACK CFI 4dbee .cfa: $rsp 48 +
STACK CFI 4dc08 .cfa: $rsp 32 +
STACK CFI 4dc09 .cfa: $rsp 24 +
STACK CFI 4dc0a .cfa: $rsp 16 +
STACK CFI 4dc0c .cfa: $rsp 8 +
STACK CFI 4dc10 .cfa: $rsp 48 +
STACK CFI 4dc3d .cfa: $rsp 32 +
STACK CFI 4dc3e .cfa: $rsp 24 +
STACK CFI 4dc3f .cfa: $rsp 16 +
STACK CFI 4dc41 .cfa: $rsp 8 +
STACK CFI INIT 4dc50 17d .cfa: $rsp 8 + .ra: .cfa -8 + ^
STACK CFI 4dc52 $r15: .cfa -16 + ^ .cfa: $rsp 16 +
STACK CFI 4dc57 $r14: .cfa -24 + ^ .cfa: $rsp 24 +
STACK CFI 4dc5c $r13: .cfa -32 + ^ .cfa: $rsp 32 +
STACK CFI 4dc5e $r12: .cfa -40 + ^ .cfa: $rsp 40 +
STACK CFI 4dc62 $rbp: .cfa -48 + ^ .cfa: $rsp 48 +
STACK CFI 4dc63 $rbx: .cfa -56 + ^ .cfa: $rsp 56 +
STACK CFI 4dc6a .cfa: $rsp 80 +
STACK CFI 4dcbe .cfa: $rsp 56 +
STACK CFI 4dcbf .cfa: $rsp 48 +
STACK CFI 4dcc0 .cfa: $rsp 40 +
STACK CFI 4dcc2 .cfa: $rsp 32 +
STACK CFI 4dcc4 .cfa: $rsp 24 +
STACK CFI 4dcc6 .cfa: $rsp 16 +
STACK CFI 4dcc8 .cfa: $rsp 8 +
STACK CFI 4dcd0 .cfa: $rsp 80 +
STACK CFI 4dd9d .cfa: $rsp 56 +
STACK CFI 4dd9e .cfa: $rsp 48 +
STACK CFI 4dd9f .cfa: $rsp 40 +
STACK CFI 4dda1 .cfa: $rsp 32 +
STACK CFI 4dda3 .cfa: $rsp 24 +
STACK CFI 4dda5 .cfa: $rsp 16 +
STACK CFI 4dda7 .cfa: $rsp 8 +
STACK CFI 4ddb0 .cfa: $rsp 80 +
STACK CFI INIT 4ddd0 42 .cfa: $rsp 8 + .ra: .cfa -8 + ^
STACK CFI 4ddd2 $r12: .cfa -16 + ^ .cfa: $rsp 16 +
STACK CFI 4ddd6 $rbp: .cfa -24 + ^ .cfa: $rsp 24 +
STACK CFI 4ddda $rbx: .cfa -32 + ^ .cfa: $rsp 32 +
STACK CFI 4ddff .cfa: $rsp 24 +
STACK CFI 4de00 .cfa: $rsp 16 +
STACK CFI 4de04 .cfa: $rsp 8 +
STACK CFI 4de08 .cfa: $rsp 32 +
STACK CFI 4de09 .cfa: $rsp 24 +
STACK CFI 4de0a .cfa: $rsp 16 +
STACK CFI 4de11 .cfa: $rsp 8 +
STACK CFI INIT 4de20 14 .cfa: $rsp 8 + .ra: .cfa -8 + ^
STACK CFI 4de24 .cfa: $rsp 16 +
STACK CFI 4de33 .cfa: $rsp 8 +
STACK CFI INIT 4de40 37 .cfa: $rsp 8 + .ra: .cfa -8 + ^
STACK CFI 4de41 $rbp: .cfa -16 + ^ .cfa: $rsp 16 +
STACK CFI 4de42 $rbx: .cfa -24 + ^ .cfa: $rsp 24 +
STACK CFI 4de49 .cfa: $rsp 32 +
STACK CFI 4de74 .cfa: $rsp 24 +
STACK CFI 4de75 .cfa: $rsp 16 +
STACK CFI 4de76 .cfa: $rsp 8 +
STACK CFI INIT 4de80 25 .cfa: $rsp 8 + .ra: .cfa -8 + ^
STACK CFI 4de81 $rbp: .cfa -16 + ^ .cfa: $rsp 16 +
STACK CFI 4de82 $rbx: .cfa -24 + ^ .cfa: $rsp 24 +
STACK CFI 4de89 .cfa: $rsp 32 +
STACK CFI 4dea0 .cfa: $rsp 24 +
STACK CFI 4dea3 .cfa: $rsp 16 +
STACK CFI 4dea4 .cfa: $rsp 8 +
STACK CFI INIT 4deb0 34 .cfa: $rsp 8 + .ra: .cfa -8 + ^
STACK CFI 4deb1 $rbx: .cfa -16 + ^ .cfa: $rsp 16 +
STACK CFI 4ded6 .cfa: $rsp 8 +
STACK CFI 4dee0 .cfa: $rsp 16 +
STACK CFI 4dee3 .cfa: $rsp 8 +
STACK CFI INIT 4def0 31 .cfa: $rsp 8 + .ra: .cfa -8 + ^
STACK CFI 4def1 $rbp: .cfa -16 + ^ .cfa: $rsp 16 +
STACK CFI 4def5 $rbx: .cfa -24 + ^ .cfa: $rsp 24 +
STACK CFI 4def9 .cfa: $rsp 32 +
STACK CFI 4df1e .cfa: $rsp 24 +
STACK CFI 4df1f .cfa: $rsp 16 +
STACK CFI 4df20 .cfa: $rsp 8 +
STACK CFI INIT 4df30 2a .cfa: $rsp 8 + .ra: .cfa -8 + ^
STACK CFI 4df31 $rbx: .cfa -16 + ^ .cfa: $rsp 16 +
STACK CFI 4df59 .cfa: $rsp 8 +
STACK CFI INIT 4df60 2a .cfa: $rsp 8 + .ra: .cfa -8 + ^
STACK CFI 4df61 $rbx: .cfa -16 + ^ .cfa: $rsp 16 +
STACK CFI 4df89 .cfa: $rsp 8 +
STACK CFI INIT 4df90 8e .cfa: $rsp 8 + .ra: .cfa -8 + ^
STACK CFI 4df92 $r12: .cfa -16 + ^ .cfa: $rsp 16 +
STACK CFI 4df96 $rbp: .cfa -24 + ^ .cfa: $rsp 24 +
STACK CFI 4df9d $rbx: .cfa -32 + ^ .cfa: $rsp 32 +
STACK CFI 4dfa1 .cfa: $rsp 48 +
STACK CFI 4dff3 .cfa: $rsp 32 +
STACK CFI 4dff4 .cfa: $rsp 24 +
STACK CFI 4dff5 .cfa: $rsp 16 +
STACK CFI 4dff7 .cfa: $rsp 8 +
STACK CFI 4dff8 .cfa: $rsp 48 +
STACK CFI INIT 4e020 c .cfa: $rsp 8 + .ra: .cfa -8 + ^
STACK CFI INIT 4e030 c .cfa: $rsp 8 + .ra: .cfa -8 + ^
STACK CFI INIT 4e040 c .cfa: $rsp 8 + .ra: .cfa -8 + ^
STACK CFI INIT 4e050 c .cfa: $rsp 8 + .ra: .cfa -8 + ^
STACK CFI INIT 4e060 c .cfa: $rsp 8 + .ra: .cfa -8 + ^
STACK CFI INIT 4e070 22 .cfa: $rsp 8 + .ra: .cfa -8 + ^
STACK CFI INIT 4e0a0 22 .cfa: $rsp 8 + .ra: .cfa -8 + ^
STACK CFI INIT 4e0d0 54 .cfa: $rsp 8 + .ra: .cfa -8 + ^
STACK CFI 4e0d2 $r12: .cfa -16 + ^ .cfa: $rsp 16 +
STACK CFI 4e0d3 $rbp: .cfa -24 + ^ .cfa: $rsp 24 +
STACK CFI 4e0d4 $rbx: .cfa -32 + ^ .cfa: $rsp 32 +
STACK CFI 4e10d .cfa: $rsp 24 +
STACK CFI 4e10e .cfa: $rsp 16 +
STACK CFI 4e110 .cfa: $rsp 8 +
STACK CFI 4e118 .cfa: $rsp 32 +
STACK CFI INIT 4e130 3f .cfa: $rsp 8 + .ra: .cfa -8 + ^
STACK CFI 4e132 $r12: .cfa -16 + ^ .cfa: $rsp 16 +
STACK CFI 4e13a $rbp: .cfa -24 + ^ .cfa: $rsp 24 +
STACK CFI 4e13b $rbx: .cfa -32 + ^ .cfa: $rsp 32 +
STACK CFI 4e141 .cfa: $rsp 24 +
STACK CFI 4e142 .cfa: $rsp 16 +
STACK CFI 4e144 .cfa: $rsp 8 +
STACK CFI 4e148 .cfa: $rsp 32 +
STACK CFI 4e16b .cfa: $rsp 24 +
STACK CFI 4e16c .cfa: $rsp 16 +
STACK CFI 4e16e .cfa: $rsp 8 +
STACK CFI INIT 4e170 2a .cfa: $rsp 8 + .ra: .cfa -8 + ^
STACK CFI 4e171 $rbx: .cfa -16 + ^ .cfa: $rsp 16 +
STACK CFI 4e199 .cfa: $rsp 8 +
STACK CFI INIT 4e1a0 31 .cfa: $rsp 8 + .ra: .cfa -8 + ^
STACK CFI INIT 4e1e0 af .cfa: $rsp 8 + .ra: .cfa -8 + ^
STACK CFI 4e1e2 $r13: .cfa -16 + ^ .cfa: $rsp 16 +
STACK CFI 4e1ea $r12: .cfa -24 + ^ .cfa: $rsp 24 +
STACK CFI 4e1eb $rbp: .cfa -32 + ^ .cfa: $rsp 32 +
STACK CFI 4e1ef $rbx: .cfa -40 + ^ .cfa: $rsp 40 +
STACK CFI 4e1f3 .cfa: $rsp 80 +
STACK CFI 4e262 .cfa: $rsp 40 +
STACK CFI 4e263 .cfa: $rsp 32 +
STACK CFI 4e264 .cfa: $rsp 24 +
STACK CFI 4e266 .cfa: $rsp 16 +
STACK CFI 4e268 .cfa: $rsp 8 +
STACK CFI 4e269 .cfa: $rsp 80 +
STACK CFI INIT 4e290 d3 .cfa: $rsp 8 + .ra: .cfa -8 + ^
STACK CFI 4e291 $rbp: .cfa -16 + ^ .cfa: $rsp 16 +
STACK CFI 4e292 $rbx: .cfa -24 + ^ .cfa: $rsp 24 +
STACK CFI 4e299 .cfa: $rsp 80 +
STACK CFI 4e2d4 .cfa: $rsp 24 +
STACK CFI 4e2d8 .cfa: $rsp 16 +
STACK CFI 4e2d9 .cfa: $rsp 8 +
STACK CFI 4e2e0 .cfa: $rsp 80 +
STACK CFI INIT 4e370 170 .cfa: $rsp 8 + .ra: .cfa -8 + ^
STACK CFI 4e371 $rbp: .cfa -16 + ^ .cfa: $rsp 16 +
STACK CFI 4e372 $rbx: .cfa -24 + ^ .cfa: $rsp 24 +
STACK CFI 4e379 .cfa: $rsp 80 +
STACK CFI 4e3c6 .cfa: $rsp 24 +
STACK CFI 4e3c7 .cfa: $rsp 16 +
STACK CFI 4e3c8 .cfa: $rsp 8 +
STACK CFI 4e3d0 .cfa: $rsp 80 +
STACK CFI 4e450 .cfa: $rsp 24 +
STACK CFI 4e451 .cfa: $rsp 16 +
STACK CFI 4e452 .cfa: $rsp 8 +
STACK CFI 4e458 .cfa: $rsp 80 +
STACK CFI INIT 4e4e0 170 .cfa: $rsp 8 + .ra: .cfa -8 + ^
STACK CFI 4e4e1 $rbp: .cfa -16 + ^ .cfa: $rsp 16 +
STACK CFI 4e4e2 $rbx: .cfa -24 + ^ .cfa: $rsp 24 +
STACK CFI 4e4e9 .cfa: $rsp 80 +
STACK CFI 4e536 .cfa: $rsp 24 +
STACK CFI 4e537 .cfa: $rsp 16 +
STACK CFI 4e538 .cfa: $rsp 8 +
STACK CFI 4e540 .cfa: $rsp 80 +
STACK CFI 4e5c0 .cfa: $rsp 24 +
STACK CFI 4e5c1 .cfa: $rsp 16 +
STACK CFI 4e5c2 .cfa: $rsp 8 +
STACK CFI 4e5c8 .cfa: $rsp 80 +
STACK CFI INIT 4e650 83 .cfa: $rsp 8 + .ra: .cfa -8 + ^
STACK CFI 4e651 $rbx: .cfa -16 + ^ .cfa: $rsp 16 +
STACK CFI 4e6b8 .cfa: $rsp 8 +
STACK CFI 4e6c0 .cfa: $rsp 16 +
STACK CFI 4e6d2 .cfa: $rsp 8 +
STACK CFI INIT 4e6e0 86 .cfa: $rsp 8 + .ra: .cfa -8 + ^
STACK CFI 4e6e1 $rbx: .cfa -16 + ^ .cfa: $rsp 16 +
STACK CFI 4e6e8 .cfa: $rsp 32 +
STACK CFI 4e71a .cfa: $rsp 16 +
STACK CFI 4e71b .cfa: $rsp 8 +
STACK CFI 4e720 .cfa: $rsp 32 +
STACK CFI INIT 4e770 b1 .cfa: $rsp 8 + .ra: .cfa -8 + ^
STACK CFI 4e771 $rbp: .cfa -16 + ^ .cfa: $rsp 16 +
STACK CFI 4e772 $rbx: .cfa -24 + ^ .cfa: $rsp 24 +
STACK CFI 4e776 .cfa: $rsp 80 +
STACK CFI 4e79e .cfa: $rsp 24 +
STACK CFI 4e79f .cfa: $rsp 16 +
STACK CFI 4e7a0 .cfa: $rsp 8 +
STACK CFI 4e7a8 .cfa: $rsp 80 +
STACK CFI INIT 4e830 7 .cfa: $rsp 8 + .ra: .cfa -8 + ^
STACK CFI INIT 4e840 ec .cfa: $rsp 8 + .ra: .cfa -8 + ^
STACK CFI 4e841 $rbp: .cfa -16 + ^ .cfa: $rsp 16 +
STACK CFI 4e845 $rbx: .cfa -24 + ^ .cfa: $rsp 24 +
STACK CFI 4e849 .cfa: $rsp 80 +
STACK CFI 4e88b .cfa: $rsp 24 +
STACK CFI 4e88c .cfa: $rsp 16 +
STACK CFI 4e88d .cfa: $rsp 8 +
STACK CFI 4e890 .cfa: $rsp 80 +
STACK CFI 4e8ab .cfa: $rsp 24 +
STACK CFI 4e8ac .cfa: $rsp 16 +
STACK CFI 4e8ad .cfa: $rsp 8 +
STACK CFI 4e8b0 .cfa: $rsp 80 +
STACK CFI INIT 4e930 ec .cfa: $rsp 8 + .ra: .cfa -8 + ^
STACK CFI 4e931 $rbp: .cfa -16 + ^ .cfa: $rsp 16 +
STACK CFI 4e935 $rbx: .cfa -24 + ^ .cfa: $rsp 24 +
STACK CFI 4e939 .cfa: $rsp 80 +
STACK CFI 4e97b .cfa: $rsp 24 +
STACK CFI 4e97c .cfa: $rsp 16 +
STACK CFI 4e97d .cfa: $rsp 8 +
STACK CFI 4e980 .cfa: $rsp 80 +
STACK CFI 4e99b .cfa: $rsp 24 +
STACK CFI 4e99c .cfa: $rsp 16 +
STACK CFI 4e99d .cfa: $rsp 8 +
STACK CFI 4e9a0 .cfa: $rsp 80 +
STACK CFI INIT 4ea20 22 .cfa: $rsp 8 + .ra: .cfa -8 + ^
STACK CFI INIT 4ea50 22 .cfa: $rsp 8 + .ra: .cfa -8 + ^
STACK CFI INIT 4ea80 7 .cfa: $rsp 8 + .ra: .cfa -8 + ^
STACK CFI INIT 4ea90 6d .cfa: $rsp 8 + .ra: .cfa -8 + ^
STACK CFI 4ea91 $rbp: .cfa -16 + ^ .cfa: $rsp 16 +
STACK CFI 4ea99 $rbx: .cfa -24 + ^ .cfa: $rsp 24 +
STACK CFI 4eaa7 .cfa: $rsp 32 +
STACK CFI 4eafa .cfa: $rsp 24 +
STACK CFI 4eafb .cfa: $rsp 16 +
STACK CFI 4eafc .cfa: $rsp 8 +
STACK CFI INIT 4eb00 7 .cfa: $rsp 8 + .ra: .cfa -8 + ^
STACK CFI INIT 4eb10 c .cfa: $rsp 8 + .ra: .cfa -8 + ^
STACK CFI INIT 4eb20 9 .cfa: $rsp 8 + .ra: .cfa -8 + ^
STACK CFI INIT 4eb30 8 .cfa: $rsp 8 + .ra: .cfa -8 + ^
STACK CFI INIT 4eb40 375 .cfa: $rsp 8 + .ra: .cfa -8 + ^
STACK CFI 4eb42 $r12: .cfa -16 + ^ .cfa: $rsp 16 +
STACK CFI 4eb43 $rbp: .cfa -24 + ^ .cfa: $rsp 24 +
STACK CFI 4eb47 $rbx: .cfa -32 + ^ .cfa: $rsp 32 +
STACK CFI 4eb4e .cfa: $rsp 112 +
STACK CFI 4ec98 .cfa: $rsp 32 +
STACK CFI 4ec99 .cfa: $rsp 24 +
STACK CFI 4ec9a .cfa: $rsp 16 +
STACK CFI 4ec9c .cfa: $rsp 8 +
STACK CFI 4eca0 .cfa: $rsp 112 +
STACK CFI 4ed66 .cfa: $rsp 32 +
STACK CFI 4ed67 .cfa: $rsp 24 +
STACK CFI 4ed68 .cfa: $rsp 16 +
STACK CFI 4ed6a .cfa: $rsp 8 +
STACK CFI 4ed70 .cfa: $rsp 112 +
STACK CFI INIT 4eec0 8 .cfa: $rsp 8 + .ra: .cfa -8 + ^
STACK CFI INIT 4eed0 148 .cfa: $rsp 8 + .ra: .cfa -8 + ^
STACK CFI 4eee8 $rbp: .cfa -16 + ^ .cfa: $rsp 16 +
STACK CFI 4eee9 $rbx: .cfa -24 + ^ .cfa: $rsp 24 +
STACK CFI 4eeed .cfa: $rsp 80 +
STACK CFI 4ef6c .cfa: $rsp 24 +
STACK CFI 4ef6d $rbx: $rbx .cfa: $rsp 16 +
STACK CFI 4ef6e $rbp: $rbp .cfa: $rsp 8 +
STACK CFI 4ef70 $rbp: .cfa -16 + ^ $rbx: .cfa -24 + ^ .cfa: $rsp 80 +
STACK CFI INIT 4f020 163 .cfa: $rsp 8 + .ra: .cfa -8 + ^
STACK CFI 4f038 $rbp: .cfa -16 + ^ .cfa: $rsp 16 +
STACK CFI 4f039 $rbx: .cfa -24 + ^ .cfa: $rsp 24 +
STACK CFI 4f03d .cfa: $rsp 80 +
STACK CFI 4f0c4 .cfa: $rsp 24 +
STACK CFI 4f0c5 $rbx: $rbx .cfa: $rsp 16 +
STACK CFI 4f0c6 $rbp: $rbp .cfa: $rsp 8 +
STACK CFI 4f0d0 $rbp: .cfa -16 + ^ $rbx: .cfa -24 + ^ .cfa: $rsp 80 +
STACK CFI INIT 4f190 2a .cfa: $rsp 8 + .ra: .cfa -8 + ^
STACK CFI 4f192 $r12: .cfa -16 + ^ .cfa: $rsp 16 +
STACK CFI 4f19a $rbp: .cfa -24 + ^ .cfa: $rsp 24 +
STACK CFI 4f1a1 $rbx: .cfa -32 + ^ .cfa: $rsp 32 +
STACK CFI 4f1b2 .cfa: $rsp 24 +
STACK CFI 4f1b3 .cfa: $rsp 16 +
STACK CFI 4f1b5 .cfa: $rsp 8 +
STACK CFI INIT 4f1c0 b9b .cfa: $rsp 8 + .ra: .cfa -8 + ^
STACK CFI 4f1c2 $r14: .cfa -16 + ^ .cfa: $rsp 16 +
STACK CFI 4f1c4 $r13: .cfa -24 + ^ .cfa: $rsp 24 +
STACK CFI 4f1c9 $r12: .cfa -32 + ^ .cfa: $rsp 32 +
STACK CFI 4f1ca $rbp: .cfa -40 + ^ .cfa: $rsp 40 +
STACK CFI 4f1ce $rbx: .cfa -48 + ^ .cfa: $rsp 48 +
STACK CFI 4f1d8 .cfa: $rsp 192 +
STACK CFI 4f327 .cfa: $rsp 48 +
STACK CFI 4f328 .cfa: $rsp 40 +
STACK CFI 4f329 .cfa: $rsp 32 +
STACK CFI 4f32b .cfa: $rsp 24 +
STACK CFI 4f32d .cfa: $rsp 16 +
STACK CFI 4f32f .cfa: $rsp 8 +
STACK CFI 4f330 .cfa: $rsp 192 +
STACK CFI INIT 4fd60 382 .cfa: $rsp 8 + .ra: .cfa -8 + ^
STACK CFI 4fd62 $r15: .cfa -16 + ^ .cfa: $rsp 16 +
STACK CFI 4fd67 $r14: .cfa -24 + ^ .cfa: $rsp 24 +
STACK CFI 4fd69 $r13: .cfa -32 + ^ .cfa: $rsp 32 +
STACK CFI 4fd6b $r12: .cfa -40 + ^ .cfa: $rsp 40 +
STACK CFI 4fd6f $rbp: .cfa -48 + ^ .cfa: $rsp 48 +
STACK CFI 4fd73 $rbx: .cfa -56 + ^ .cfa: $rsp 56 +
STACK CFI 4fd7a .cfa: $rsp 144 +
STACK CFI 4ff12 .cfa: $rsp 56 +
STACK CFI 4ff13 .cfa: $rsp 48 +
STACK CFI 4ff14 .cfa: $rsp 40 +
STACK CFI 4ff16 .cfa: $rsp 32 +
STACK CFI 4ff18 .cfa: $rsp 24 +
STACK CFI 4ff1a .cfa: $rsp 16 +
STACK CFI 4ff1c .cfa: $rsp 8 +
STACK CFI 4ff20 .cfa: $rsp 144 +
STACK CFI INIT 500f0 71 .cfa: $rsp 8 + .ra: .cfa -8 + ^
STACK CFI 500f2 $r12: .cfa -16 + ^ .cfa: $rsp 16 +
STACK CFI 500f6 $rbp: .cfa -24 + ^ .cfa: $rsp 24 +
STACK CFI 500f9 $rbx: .cfa -32 + ^ .cfa: $rsp 32 +
STACK CFI 50140 .cfa: $rsp 24 +
STACK CFI 50141 .cfa: $rsp 16 +
STACK CFI 50143 .cfa: $rsp 8 +
STACK CFI 50148 .cfa: $rsp 32 +
STACK CFI 5014e .cfa: $rsp 24 +
STACK CFI 5014f .cfa: $rsp 16 +
STACK CFI 50151 .cfa: $rsp 8 +
STACK CFI 50158 .cfa: $rsp 32 +
STACK CFI INIT 50170 363 .cfa: $rsp 8 + .ra: .cfa -8 + ^
STACK CFI 50172 $r12: .cfa -16 + ^ .cfa: $rsp 16 +
STACK CFI 50179 $rbp: .cfa -24 + ^ .cfa: $rsp 24 +
STACK CFI 5017a $rbx: .cfa -32 + ^ .cfa: $rsp 32 +
STACK CFI 5017e .cfa: $rsp 128 +
STACK CFI 501f5 .cfa: $rsp 32 +
STACK CFI 501fa .cfa: $rsp 24 +
STACK CFI 501fb .cfa: $rsp 16 +
STACK CFI 501fd .cfa: $rsp 8 +
STACK CFI 50200 .cfa: $rsp 128 +
STACK CFI 50307 .cfa: $rsp 32 +
STACK CFI 5030c .cfa: $rsp 24 +
STACK CFI 5030d .cfa: $rsp 16 +
STACK CFI 50313 .cfa: $rsp 8 +
STACK CFI 50318 .cfa: $rsp 128 +
STACK CFI INIT 504e0 363 .cfa: $rsp 8 + .ra: .cfa -8 + ^
STACK CFI 504e2 $r12: .cfa -16 + ^ .cfa: $rsp 16 +
STACK CFI 504e9 $rbp: .cfa -24 + ^ .cfa: $rsp 24 +
STACK CFI 504ea $rbx: .cfa -32 + ^ .cfa: $rsp 32 +
STACK CFI 504ee .cfa: $rsp 128 +
STACK CFI 50565 .cfa: $rsp 32 +
STACK CFI 5056a .cfa: $rsp 24 +
STACK CFI 5056b .cfa: $rsp 16 +
STACK CFI 5056d .cfa: $rsp 8 +
STACK CFI 50570 .cfa: $rsp 128 +
STACK CFI 50677 .cfa: $rsp 32 +
STACK CFI 5067c .cfa: $rsp 24 +
STACK CFI 5067d .cfa: $rsp 16 +
STACK CFI 50683 .cfa: $rsp 8 +
STACK CFI 50688 .cfa: $rsp 128 +
STACK CFI INIT 50850 58 .cfa: $rsp 8 + .ra: .cfa -8 + ^
STACK CFI INIT 508b0 60 .cfa: $rsp 8 + .ra: .cfa -8 + ^
STACK CFI INIT 50910 58 .cfa: $rsp 8 + .ra: .cfa -8 + ^
STACK CFI INIT 50970 58 .cfa: $rsp 8 + .ra: .cfa -8 + ^
STACK CFI INIT 509d0 13 .cfa: $rsp 8 + .ra: .cfa -8 + ^
STACK CFI INIT 509f0 f .cfa: $rsp 8 + .ra: .cfa -8 + ^
STACK CFI INIT 50a00 6d .cfa: $rsp 8 + .ra: .cfa -8 + ^
STACK CFI 50a01 $rbp: .cfa -16 + ^ .cfa: $rsp 16 +
STACK CFI 50a09 $rbx: .cfa -24 + ^ .cfa: $rsp 24 +
STACK CFI 50a17 .cfa: $rsp 32 +
STACK CFI 50a6a .cfa: $rsp 24 +
STACK CFI 50a6b .cfa: $rsp 16 +
STACK CFI 50a6c .cfa: $rsp 8 +
STACK CFI INIT 50a70 7 .cfa: $rsp 8 + .ra: .cfa -8 + ^
STACK CFI INIT 50a80 60 .cfa: $rsp 8 + .ra: .cfa -8 + ^
STACK CFI INIT 50ae0 1d9 .cfa: $rsp 8 + .ra: .cfa -8 + ^
STACK CFI 50ae4 .cfa: $rsp 16 +
STACK CFI 50b31 .cfa: $rsp 8 +
STACK CFI 50b38 .cfa: $rsp 16 +
STACK CFI INIT 50cc0 102 .cfa: $rsp 8 + .ra: .cfa -8 + ^
STACK CFI INIT 50dd0 49 .cfa: $rsp 8 + .ra: .cfa -8 + ^
STACK CFI 50dd1 $rbp: .cfa -16 + ^ .cfa: $rsp 16 +
STACK CFI 50dd5 $rbx: .cfa -24 + ^ .cfa: $rsp 24 +
STACK CFI 50ddc .cfa: $rsp 32 +
STACK CFI 50e16 .cfa: $rsp 24 +
STACK CFI 50e17 .cfa: $rsp 16 +
STACK CFI 50e18 .cfa: $rsp 8 +
STACK CFI INIT 50e20 4 .cfa: $rsp 8 + .ra: .cfa -8 + ^
STACK CFI INIT 50e30 6 .cfa: $rsp 8 + .ra: .cfa -8 + ^
STACK CFI INIT 50e40 1cb .cfa: $rsp 8 + .ra: .cfa -8 + ^
STACK CFI 50e42 $r12: .cfa -16 + ^ .cfa: $rsp 16 +
STACK CFI 50e43 $rbp: .cfa -24 + ^ .cfa: $rsp 24 +
STACK CFI 50e44 $rbx: .cfa -32 + ^ .cfa: $rsp 32 +
STACK CFI 50e4b .cfa: $rsp 112 +
STACK CFI 50f75 .cfa: $rsp 32 +
STACK CFI 50f76 .cfa: $rsp 24 +
STACK CFI 50f77 .cfa: $rsp 16 +
STACK CFI 50f79 .cfa: $rsp 8 +
STACK CFI 50f7a .cfa: $rsp 112 +
STACK CFI INIT 51010 12c .cfa: $rsp 8 + .ra: .cfa -8 + ^
STACK CFI 51011 $rbx: .cfa -16 + ^ .cfa: $rsp 16 +
STACK CFI 51018 .cfa: $rsp 48 +
STACK CFI 51035 .cfa: $rsp 16 +
STACK CFI 51036 .cfa: $rsp 8 +
STACK CFI 51040 .cfa: $rsp 48 +
STACK CFI 51049 .cfa: $rsp 16 +
STACK CFI 5104a .cfa: $rsp 8 +
STACK CFI 51050 .cfa: $rsp 48 +
STACK CFI 510c1 .cfa: $rsp 16 +
STACK CFI 510c2 .cfa: $rsp 8 +
STACK CFI 510c8 .cfa: $rsp 48 +
STACK CFI 51101 .cfa: $rsp 16 +
STACK CFI 51102 .cfa: $rsp 8 +
STACK CFI 51108 .cfa: $rsp 48 +
STACK CFI INIT 51140 e .cfa: $rsp 8 + .ra: .cfa -8 + ^
STACK CFI INIT 51150 a .cfa: $rsp 8 + .ra: .cfa -8 + ^
STACK CFI INIT 51160 9 .cfa: $rsp 8 + .ra: .cfa -8 + ^
STACK CFI INIT 51170 7 .cfa: $rsp 8 + .ra: .cfa -8 + ^
STACK CFI INIT 51180 9 .cfa: $rsp 8 + .ra: .cfa -8 + ^
STACK CFI INIT 51190 2d0 .cfa: $rsp 8 + .ra: .cfa -8 + ^
STACK CFI 51192 $r12: .cfa -16 + ^ .cfa: $rsp 16 +
STACK CFI 51196 $rbp: .cfa -24 + ^ .cfa: $rsp 24 +
STACK CFI 5119a $rbx: .cfa -32 + ^ .cfa: $rsp 32 +
STACK CFI 511a1 .cfa: $rsp 96 +
STACK CFI 511bd .cfa: $rsp 32 +
STACK CFI 511be .cfa: $rsp 24 +
STACK CFI 511bf .cfa: $rsp 16 +
STACK CFI 511c1 .cfa: $rsp 8 +
STACK CFI 511c8 .cfa: $rsp 96 +
STACK CFI 512d8 .cfa: $rsp 32 +
STACK CFI 512d9 .cfa: $rsp 24 +
STACK CFI 512da .cfa: $rsp 16 +
STACK CFI 512dc .cfa: $rsp 8 +
STACK CFI 512e0 .cfa: $rsp 96 +
STACK CFI 5136b .cfa: $rsp 32 +
STACK CFI 5136c .cfa: $rsp 24 +
STACK CFI 5136d .cfa: $rsp 16 +
STACK CFI 5136f .cfa: $rsp 8 +
STACK CFI 51370 .cfa: $rsp 96 +
STACK CFI INIT 51460 3e7 .cfa: $rsp 8 + .ra: .cfa -8 + ^
STACK CFI 51462 $r12: .cfa -16 + ^ .cfa: $rsp 16 +
STACK CFI 51463 $rbp: .cfa -24 + ^ .cfa: $rsp 24 +
STACK CFI 51467 $rbx: .cfa -32 + ^ .cfa: $rsp 32 +
STACK CFI 5146e .cfa: $rsp 48 +
STACK CFI 51630 .cfa: $rsp 32 +
STACK CFI 51634 .cfa: $rsp 24 +
STACK CFI 51635 .cfa: $rsp 16 +
STACK CFI 51637 .cfa: $rsp 8 +
STACK CFI 51640 .cfa: $rsp 48 +
STACK CFI 516ec .cfa: $rsp 32 +
STACK CFI 516ed .cfa: $rsp 24 +
STACK CFI 516ee .cfa: $rsp 16 +
STACK CFI 516f0 .cfa: $rsp 8 +
STACK CFI 516f8 .cfa: $rsp 48 +
STACK CFI INIT 51850 2e2 .cfa: $rsp 8 + .ra: .cfa -8 + ^
STACK CFI 51852 $r12: .cfa -16 + ^ .cfa: $rsp 16 +
STACK CFI 51853 $rbp: .cfa -24 + ^ .cfa: $rsp 24 +
STACK CFI 51857 $rbx: .cfa -32 + ^ .cfa: $rsp 32 +
STACK CFI 5185e .cfa: $rsp 112 +
STACK CFI 51996 .cfa: $rsp 32 +
STACK CFI 51997 .cfa: $rsp 24 +
STACK CFI 51998 .cfa: $rsp 16 +
STACK CFI 5199a .cfa: $rsp 8 +
STACK CFI 519a0 .cfa: $rsp 112 +
STACK CFI 51a6e .cfa: $rsp 32 +
STACK CFI 51a6f .cfa: $rsp 24 +
STACK CFI 51a70 .cfa: $rsp 16 +
STACK CFI 51a72 .cfa: $rsp 8 +
STACK CFI 51a78 .cfa: $rsp 112 +
STACK CFI INIT 51b40 2e2 .cfa: $rsp 8 + .ra: .cfa -8 + ^
STACK CFI 51b42 $r12: .cfa -16 + ^ .cfa: $rsp 16 +
STACK CFI 51b43 $rbp: .cfa -24 + ^ .cfa: $rsp 24 +
STACK CFI 51b47 $rbx: .cfa -32 + ^ .cfa: $rsp 32 +
STACK CFI 51b4e .cfa: $rsp 112 +
STACK CFI 51c8a .cfa: $rsp 32 +
STACK CFI 51c8b .cfa: $rsp 24 +
STACK CFI 51c8c .cfa: $rsp 16 +
STACK CFI 51c8e .cfa: $rsp 8 +
STACK CFI 51c90 .cfa: $rsp 112 +
STACK CFI 51d5c .cfa: $rsp 32 +
STACK CFI 51d5d .cfa: $rsp 24 +
STACK CFI 51d5e .cfa: $rsp 16 +
STACK CFI 51d60 .cfa: $rsp 8 +
STACK CFI 51d68 .cfa: $rsp 112 +
STACK CFI INIT 51e30 9 .cfa: $rsp 8 + .ra: .cfa -8 + ^
STACK CFI INIT 51e40 9 .cfa: $rsp 8 + .ra: .cfa -8 + ^
STACK CFI INIT 51e50 9 .cfa: $rsp 8 + .ra: .cfa -8 + ^
STACK CFI INIT 51e60 9 .cfa: $rsp 8 + .ra: .cfa -8 + ^
STACK CFI INIT 51e70 9 .cfa: $rsp 8 + .ra: .cfa -8 + ^
STACK CFI INIT 51e80 9 .cfa: $rsp 8 + .ra: .cfa -8 + ^
STACK CFI INIT 51e90 8a .cfa: $rsp 8 + .ra: .cfa -8 + ^
STACK CFI 51e91 $rbx: .cfa -16 + ^ .cfa: $rsp 16 +
STACK CFI 51e98 .cfa: $rsp 64 +
STACK CFI 51f0d .cfa: $rsp 16 +
STACK CFI 51f11 .cfa: $rsp 8 +
STACK CFI INIT 51f20 9 .cfa: $rsp 8 + .ra: .cfa -8 + ^
STACK CFI INIT 51f30 9 .cfa: $rsp 8 + .ra: .cfa -8 + ^
STACK CFI INIT 51f40 c .cfa: $rsp 8 + .ra: .cfa -8 + ^
STACK CFI INIT 51f50 c .cfa: $rsp 8 + .ra: .cfa -8 + ^
STACK CFI INIT 51f60 c .cfa: $rsp 8 + .ra: .cfa -8 + ^
STACK CFI INIT 51f70 6d .cfa: $rsp 8 + .ra: .cfa -8 + ^
STACK CFI 51f71 $rbp: .cfa -16 + ^ .cfa: $rsp 16 +
STACK CFI 51f79 $rbx: .cfa -24 + ^ .cfa: $rsp 24 +
STACK CFI 51f87 .cfa: $rsp 32 +
STACK CFI 51fda .cfa: $rsp 24 +
STACK CFI 51fdb .cfa: $rsp 16 +
STACK CFI 51fdc .cfa: $rsp 8 +
STACK CFI INIT 51fe0 12 .cfa: $rsp 8 + .ra: .cfa -8 + ^
STACK CFI INIT 52000 85 .cfa: $rsp 8 + .ra: .cfa -8 + ^
STACK CFI INIT 52090 2d .cfa: $rsp 8 + .ra: .cfa -8 + ^
STACK CFI INIT 520c0 10 .cfa: $rsp 8 + .ra: .cfa -8 + ^
STACK CFI INIT 520d0 10 .cfa: $rsp 8 + .ra: .cfa -8 + ^
STACK CFI INIT 520e0 22 .cfa: $rsp 8 + .ra: .cfa -8 + ^
STACK CFI 520e1 $rbp: .cfa -16 + ^ .cfa: $rsp 16 +
STACK CFI 520e5 $rbx: .cfa -24 + ^ .cfa: $rsp 24 +
STACK CFI 520ec .cfa: $rsp 32 +
STACK CFI 520f5 .cfa: $rsp 24 +
STACK CFI 520fc .cfa: $rsp 16 +
STACK CFI 520fd .cfa: $rsp 8 +
STACK CFI INIT 52110 a1 .cfa: $rsp 8 + .ra: .cfa -8 + ^
STACK CFI INIT 521c0 46 .cfa: $rsp 8 + .ra: .cfa -8 + ^
STACK CFI INIT 52210 5f .cfa: $rsp 8 + .ra: .cfa -8 + ^
STACK CFI INIT 52270 54 .cfa: $rsp 8 + .ra: .cfa -8 + ^
STACK CFI 52271 $rbx: .cfa -16 + ^ .cfa: $rsp 16 +
STACK CFI 52278 .cfa: $rsp 32 +
STACK CFI 522c2 .cfa: $rsp 16 +
STACK CFI 522c3 .cfa: $rsp 8 +
STACK CFI INIT 522d0 1ad .cfa: $rsp 8 + .ra: .cfa -8 + ^
STACK CFI 522d2 $r14: .cfa -16 + ^ .cfa: $rsp 16 +
STACK CFI 522d4 $r13: .cfa -24 + ^ .cfa: $rsp 24 +
STACK CFI 522d6 $r12: .cfa -32 + ^ .cfa: $rsp 32 +
STACK CFI 522d7 $rbp: .cfa -40 + ^ .cfa: $rsp 40 +
STACK CFI 522d8 $rbx: .cfa -48 + ^ .cfa: $rsp 48 +
STACK CFI 522df .cfa: $rsp 96 +
STACK CFI 52364 .cfa: $rsp 48 +
STACK CFI 52365 .cfa: $rsp 40 +
STACK CFI 52366 .cfa: $rsp 32 +
STACK CFI 52368 .cfa: $rsp 24 +
STACK CFI 5236a .cfa: $rsp 16 +
STACK CFI 5236c .cfa: $rsp 8 +
STACK CFI 52370 .cfa: $rsp 96 +
STACK CFI INIT 52480 ab .cfa: $rsp 8 + .ra: .cfa -8 + ^
STACK CFI 52482 $r13: .cfa -16 + ^ .cfa: $rsp 16 +
STACK CFI 52484 $r12: .cfa -24 + ^ .cfa: $rsp 24 +
STACK CFI 52485 $rbp: .cfa -32 + ^ .cfa: $rsp 32 +
STACK CFI 52489 $rbx: .cfa -40 + ^ .cfa: $rsp 40 +
STACK CFI 52490 .cfa: $rsp 80 +
STACK CFI 52500 .cfa: $rsp 40 +
STACK CFI 52504 .cfa: $rsp 32 +
STACK CFI 52505 .cfa: $rsp 24 +
STACK CFI 52507 .cfa: $rsp 16 +
STACK CFI 52509 .cfa: $rsp 8 +
STACK CFI 52510 .cfa: $rsp 80 +
STACK CFI INIT 52530 56 .cfa: $rsp 8 + .ra: .cfa -8 + ^
STACK CFI 52531 $rbp: .cfa -16 + ^ .cfa: $rsp 16 +
STACK CFI 52535 $rbx: .cfa -24 + ^ .cfa: $rsp 24 +
STACK CFI 52540 .cfa: $rsp 32 +
STACK CFI 52579 .cfa: $rsp 24 +
STACK CFI 5257d .cfa: $rsp 16 +
STACK CFI 52581 .cfa: $rsp 8 +
STACK CFI INIT 52590 8 .cfa: $rsp 8 + .ra: .cfa -8 + ^
STACK CFI INIT 525a0 9 .cfa: $rsp 8 + .ra: .cfa -8 + ^
STACK CFI INIT 525b0 9 .cfa: $rsp 8 + .ra: .cfa -8 + ^
STACK CFI INIT 525c0 c .cfa: $rsp 8 + .ra: .cfa -8 + ^
STACK CFI INIT 525d0 6e .cfa: $rsp 8 + .ra: .cfa -8 + ^
STACK CFI 525d2 $r12: .cfa -16 + ^ .cfa: $rsp 16 +
STACK CFI 525dd $rbp: .cfa -24 + ^ .cfa: $rsp 24 +
STACK CFI 525e0 $rbx: .cfa -32 + ^ .cfa: $rsp 32 +
STACK CFI 52636 .cfa: $rsp 24 +
STACK CFI 52637 .cfa: $rsp 16 +
STACK CFI 52639 .cfa: $rsp 8 +
STACK CFI INIT 52640 6f .cfa: $rsp 8 + .ra: .cfa -8 + ^
STACK CFI INIT 526b0 64 .cfa: $rsp 8 + .ra: .cfa -8 + ^
STACK CFI INIT 52720 10f .cfa: $rsp 8 + .ra: .cfa -8 + ^
STACK CFI 52722 $r12: .cfa -16 + ^ .cfa: $rsp 16 +
STACK CFI 52723 $rbp: .cfa -24 + ^ .cfa: $rsp 24 +
STACK CFI 52727 $rbx: .cfa -32 + ^ .cfa: $rsp 32 +
STACK CFI 5272b .cfa: $rsp 96 +
STACK CFI 5276c .cfa: $rsp 32 +
STACK CFI 5276d .cfa: $rsp 24 +
STACK CFI 5276e .cfa: $rsp 16 +
STACK CFI 52770 .cfa: $rsp 8 +
STACK CFI 52778 .cfa: $rsp 96 +
STACK CFI INIT 52830 a7 .cfa: $rsp 8 + .ra: .cfa -8 + ^
STACK CFI 52831 $rbp: .cfa -16 + ^ .cfa: $rsp 16 +
STACK CFI 52835 $rbx: .cfa -24 + ^ .cfa: $rsp 24 +
STACK CFI 5283f .cfa: $rsp 32 +
STACK CFI 52896 .cfa: $rsp 24 +
STACK CFI 52897 .cfa: $rsp 16 +
STACK CFI 52898 .cfa: $rsp 8 +
STACK CFI 528a0 .cfa: $rsp 32 +
STACK CFI 528bc .cfa: $rsp 24 +
STACK CFI 528bd .cfa: $rsp 16 +
STACK CFI 528be .cfa: $rsp 8 +
STACK CFI 528c0 .cfa: $rsp 32 +
STACK CFI INIT 528e0 60 .cfa: $rsp 8 + .ra: .cfa -8 + ^
STACK CFI 528e1 $rbx: .cfa -16 + ^ .cfa: $rsp 16 +
STACK CFI 528e8 .cfa: $rsp 32 +
STACK CFI 5290f .cfa: $rsp 16 +
STACK CFI 52910 .cfa: $rsp 8 +
STACK CFI 52918 .cfa: $rsp 32 +
STACK CFI 5293e .cfa: $rsp 16 +
STACK CFI 5293f .cfa: $rsp 8 +
STACK CFI INIT 52940 f .cfa: $rsp 8 + .ra: .cfa -8 + ^
STACK CFI INIT 52950 8 .cfa: $rsp 8 + .ra: .cfa -8 + ^
STACK CFI INIT 52960 46 .cfa: $rsp 8 + .ra: .cfa -8 + ^
STACK CFI 52961 $rbx: .cfa -16 + ^ .cfa: $rsp 16 +
STACK CFI 52968 .cfa: $rsp 32 +
STACK CFI 529a4 .cfa: $rsp 16 +
STACK CFI 529a5 .cfa: $rsp 8 +
STACK CFI INIT 529b0 1d .cfa: $rsp 8 + .ra: .cfa -8 + ^
STACK CFI INIT 529d0 19 .cfa: $rsp 8 + .ra: .cfa -8 + ^
STACK CFI INIT 529f0 7 .cfa: $rsp 8 + .ra: .cfa -8 + ^
STACK CFI INIT 52a00 9 .cfa: $rsp 8 + .ra: .cfa -8 + ^
STACK CFI INIT 52a10 8 .cfa: $rsp 8 + .ra: .cfa -8 + ^
STACK CFI INIT 52a20 c .cfa: $rsp 8 + .ra: .cfa -8 + ^
STACK CFI INIT 52a30 c .cfa: $rsp 8 + .ra: .cfa -8 + ^
STACK CFI INIT 52a40 c .cfa: $rsp 8 + .ra: .cfa -8 + ^
STACK CFI INIT 52a50 c .cfa: $rsp 8 + .ra: .cfa -8 + ^
STACK CFI INIT 52a60 557 .cfa: $rsp 8 + .ra: .cfa -8 + ^
STACK CFI 52a62 $r15: .cfa -16 + ^ .cfa: $rsp 16 +
STACK CFI 52a64 $r14: .cfa -24 + ^ .cfa: $rsp 24 +
STACK CFI 52a69 $r13: .cfa -32 + ^ .cfa: $rsp 32 +
STACK CFI 52a6b $r12: .cfa -40 + ^ .cfa: $rsp 40 +
STACK CFI 52a6f $rbp: .cfa -48 + ^ .cfa: $rsp 48 +
STACK CFI 52a73 $rbx: .cfa -56 + ^ .cfa: $rsp 56 +
STACK CFI 52a7d .cfa: $rsp 336 +
STACK CFI 52d62 .cfa: $rsp 56 +
STACK CFI 52d63 .cfa: $rsp 48 +
STACK CFI 52d64 .cfa: $rsp 40 +
STACK CFI 52d66 .cfa: $rsp 32 +
STACK CFI 52d68 .cfa: $rsp 24 +
STACK CFI 52d6a .cfa: $rsp 16 +
STACK CFI 52d6c .cfa: $rsp 8 +
STACK CFI 52d70 .cfa: $rsp 336 +
STACK CFI INIT 52fc0 6ae .cfa: $rsp 8 + .ra: .cfa -8 + ^
STACK CFI 52fc2 $r15: .cfa -16 + ^ .cfa: $rsp 16 +
STACK CFI 52fc4 $r14: .cfa -24 + ^ .cfa: $rsp 24 +
STACK CFI 52fc9 $r13: .cfa -32 + ^ .cfa: $rsp 32 +
STACK CFI 52fce $r12: .cfa -40 + ^ .cfa: $rsp 40 +
STACK CFI 52fd2 $rbp: .cfa -48 + ^ .cfa: $rsp 48 +
STACK CFI 52fd3 $rbx: .cfa -56 + ^ .cfa: $rsp 56 +
STACK CFI 52fdd .cfa: $rsp 304 +
STACK CFI 5332a .cfa: $rsp 56 +
STACK CFI 5332b .cfa: $rsp 48 +
STACK CFI 5332c .cfa: $rsp 40 +
STACK CFI 5332e .cfa: $rsp 32 +
STACK CFI 53330 .cfa: $rsp 24 +
STACK CFI 53332 .cfa: $rsp 16 +
STACK CFI 53334 .cfa: $rsp 8 +
STACK CFI 53338 .cfa: $rsp 304 +
STACK CFI INIT 53670 2da .cfa: $rsp 8 + .ra: .cfa -8 + ^
STACK CFI 53672 $r15: .cfa -16 + ^ .cfa: $rsp 16 +
STACK CFI 53674 $r14: .cfa -24 + ^ .cfa: $rsp 24 +
STACK CFI 53679 $r13: .cfa -32 + ^ .cfa: $rsp 32 +
STACK CFI 5367b $r12: .cfa -40 + ^ .cfa: $rsp 40 +
STACK CFI 5367f $rbp: .cfa -48 + ^ .cfa: $rsp 48 +
STACK CFI 53683 $rbx: .cfa -56 + ^ .cfa: $rsp 56 +
STACK CFI 53687 .cfa: $rsp 144 +
STACK CFI 537aa .cfa: $rsp 56 +
STACK CFI 537ab .cfa: $rsp 48 +
STACK CFI 537ac .cfa: $rsp 40 +
STACK CFI 537ae .cfa: $rsp 32 +
STACK CFI 537b0 .cfa: $rsp 24 +
STACK CFI 537b2 .cfa: $rsp 16 +
STACK CFI 537b4 .cfa: $rsp 8 +
STACK CFI 537b8 .cfa: $rsp 144 +
STACK CFI 53842 .cfa: $rsp 56 +
STACK CFI 53843 .cfa: $rsp 48 +
STACK CFI 53844 .cfa: $rsp 40 +
STACK CFI 53846 .cfa: $rsp 32 +
STACK CFI 53848 .cfa: $rsp 24 +
STACK CFI 5384a .cfa: $rsp 16 +
STACK CFI 5384c .cfa: $rsp 8 +
STACK CFI 53850 .cfa: $rsp 144 +
STACK CFI INIT 53950 5d1 .cfa: $rsp 8 + .ra: .cfa -8 + ^
STACK CFI 53952 $r15: .cfa -16 + ^ .cfa: $rsp 16 +
STACK CFI 53954 $r14: .cfa -24 + ^ .cfa: $rsp 24 +
STACK CFI 53956 $r13: .cfa -32 + ^ .cfa: $rsp 32 +
STACK CFI 53958 $r12: .cfa -40 + ^ .cfa: $rsp 40 +
STACK CFI 5395c $rbp: .cfa -48 + ^ .cfa: $rsp 48 +
STACK CFI 5395d $rbx: .cfa -56 + ^ .cfa: $rsp 56 +
STACK CFI 53967 .cfa: $rsp 240 +
STACK CFI 53caa .cfa: $rsp 56 +
STACK CFI 53cab .cfa: $rsp 48 +
STACK CFI 53cac .cfa: $rsp 40 +
STACK CFI 53cae .cfa: $rsp 32 +
STACK CFI 53cb0 .cfa: $rsp 24 +
STACK CFI 53cb2 .cfa: $rsp 16 +
STACK CFI 53cb4 .cfa: $rsp 8 +
STACK CFI 53cb5 .cfa: $rsp 240 +
STACK CFI INIT 53f30 9 .cfa: $rsp 8 + .ra: .cfa -8 + ^
STACK CFI INIT 53f40 9 .cfa: $rsp 8 + .ra: .cfa -8 + ^
STACK CFI INIT 53f50 5a .cfa: $rsp 8 + .ra: .cfa -8 + ^
STACK CFI 53f54 .cfa: $rsp 32 +
STACK CFI 53f9f .cfa: $rsp 8 +
STACK CFI INIT 53fb0 ce .cfa: $rsp 8 + .ra: .cfa -8 + ^
STACK CFI 53fb1 $rbx: .cfa -16 + ^ .cfa: $rsp 16 +
STACK CFI 53fb8 .cfa: $rsp 80 +
STACK CFI 5406e .cfa: $rsp 16 +
STACK CFI 5406f .cfa: $rsp 8 +
STACK CFI 54070 .cfa: $rsp 80 +
STACK CFI 5407c .cfa: $rsp 16 +
STACK CFI 5407d .cfa: $rsp 8 +
STACK CFI INIT 54080 24 .cfa: $rsp 8 + .ra: .cfa -8 + ^
STACK CFI 54081 $rbx: .cfa -16 + ^ .cfa: $rsp 16 +
STACK CFI 540a3 .cfa: $rsp 8 +
STACK CFI INIT 540b0 9 .cfa: $rsp 8 + .ra: .cfa -8 + ^
STACK CFI INIT 540c0 9 .cfa: $rsp 8 + .ra: .cfa -8 + ^
STACK CFI INIT 540d0 2b .cfa: $rsp 8 + .ra: .cfa -8 + ^
STACK CFI INIT 54100 2b .cfa: $rsp 8 + .ra: .cfa -8 + ^
STACK CFI INIT 54130 24 .cfa: $rsp 8 + .ra: .cfa -8 + ^
STACK CFI 54131 $rbx: .cfa -16 + ^ .cfa: $rsp 16 +
STACK CFI 54153 .cfa: $rsp 8 +
STACK CFI INIT 54160 c .cfa: $rsp 8 + .ra: .cfa -8 + ^
STACK CFI INIT 54170 c .cfa: $rsp 8 + .ra: .cfa -8 + ^
STACK CFI INIT 54180 2b .cfa: $rsp 8 + .ra: .cfa -8 + ^
STACK CFI INIT 541b0 2b .cfa: $rsp 8 + .ra: .cfa -8 + ^
STACK CFI INIT 541e0 27 .cfa: $rsp 8 + .ra: .cfa -8 + ^
STACK CFI 541e1 $rbx: .cfa -16 + ^ .cfa: $rsp 16 +
STACK CFI 54206 .cfa: $rsp 8 +
STACK CFI INIT 54210 574 .cfa: $rsp 8 + .ra: .cfa -8 + ^
STACK CFI 54212 $r15: .cfa -16 + ^ .cfa: $rsp 16 +
STACK CFI 54214 $r14: .cfa -24 + ^ .cfa: $rsp 24 +
STACK CFI 54216 $r13: .cfa -32 + ^ .cfa: $rsp 32 +
STACK CFI 5421b $r12: .cfa -40 + ^ .cfa: $rsp 40 +
STACK CFI 5421c $rbp: .cfa -48 + ^ .cfa: $rsp 48 +
STACK CFI 5421d $rbx: .cfa -56 + ^ .cfa: $rsp 56 +
STACK CFI 54227 .cfa: $rsp 320 +
STACK CFI 542f2 .cfa: $rsp 56 +
STACK CFI 542f3 .cfa: $rsp 48 +
STACK CFI 542f4 .cfa: $rsp 40 +
STACK CFI 542f6 .cfa: $rsp 32 +
STACK CFI 542f8 .cfa: $rsp 24 +
STACK CFI 542fa .cfa: $rsp 16 +
STACK CFI 542fc .cfa: $rsp 8 +
STACK CFI 54300 .cfa: $rsp 320 +
STACK CFI INIT 54790 c .cfa: $rsp 8 + .ra: .cfa -8 + ^
STACK CFI INIT 547a0 c .cfa: $rsp 8 + .ra: .cfa -8 + ^
STACK CFI INIT 547b0 c .cfa: $rsp 8 + .ra: .cfa -8 + ^
STACK CFI INIT 547c0 c .cfa: $rsp 8 + .ra: .cfa -8 + ^
STACK CFI INIT 547d0 27 .cfa: $rsp 8 + .ra: .cfa -8 + ^
STACK CFI 547d1 $rbx: .cfa -16 + ^ .cfa: $rsp 16 +
STACK CFI 547f6 .cfa: $rsp 8 +
STACK CFI INIT 54800 27 .cfa: $rsp 8 + .ra: .cfa -8 + ^
STACK CFI 54801 $rbx: .cfa -16 + ^ .cfa: $rsp 16 +
STACK CFI 54826 .cfa: $rsp 8 +
STACK CFI INIT 54830 30f .cfa: $rsp 8 + .ra: .cfa -8 + ^
STACK CFI 54832 $r13: .cfa -16 + ^ .cfa: $rsp 16 +
STACK CFI 54834 $r12: .cfa -24 + ^ .cfa: $rsp 24 +
STACK CFI 54838 $rbp: .cfa -32 + ^ .cfa: $rsp 32 +
STACK CFI 5483c $rbx: .cfa -40 + ^ .cfa: $rsp 40 +
STACK CFI 54840 .cfa: $rsp 160 +
STACK CFI 549d8 .cfa: $rsp 40 +
STACK CFI 549d9 .cfa: $rsp 32 +
STACK CFI 549da .cfa: $rsp 24 +
STACK CFI 549dc .cfa: $rsp 16 +
STACK CFI 549de .cfa: $rsp 8 +
STACK CFI 549e0 .cfa: $rsp 160 +
STACK CFI 54b10 .cfa: $rsp 40 +
STACK CFI 54b11 .cfa: $rsp 32 +
STACK CFI 54b12 .cfa: $rsp 24 +
STACK CFI 54b14 .cfa: $rsp 16 +
STACK CFI 54b16 .cfa: $rsp 8 +
STACK CFI 54b17 .cfa: $rsp 160 +
STACK CFI INIT 54b40 c .cfa: $rsp 8 + .ra: .cfa -8 + ^
STACK CFI INIT 54b50 c .cfa: $rsp 8 + .ra: .cfa -8 + ^
STACK CFI INIT 54b60 c .cfa: $rsp 8 + .ra: .cfa -8 + ^
STACK CFI INIT 54b70 c .cfa: $rsp 8 + .ra: .cfa -8 + ^
STACK CFI INIT 54b80 c .cfa: $rsp 8 + .ra: .cfa -8 + ^
STACK CFI INIT 54b90 c .cfa: $rsp 8 + .ra: .cfa -8 + ^
STACK CFI INIT 54ba0 c .cfa: $rsp 8 + .ra: .cfa -8 + ^
STACK CFI INIT 54bb0 c .cfa: $rsp 8 + .ra: .cfa -8 + ^
STACK CFI INIT 54bc0 c .cfa: $rsp 8 + .ra: .cfa -8 + ^
STACK CFI INIT 54bd0 7 .cfa: $rsp 8 + .ra: .cfa -8 + ^
STACK CFI INIT 54be0 7 .cfa: $rsp 8 + .ra: .cfa -8 + ^
STACK CFI INIT 54bf0 9 .cfa: $rsp 8 + .ra: .cfa -8 + ^
STACK CFI INIT 54c00 16 .cfa: $rsp 8 + .ra: .cfa -8 + ^
STACK CFI INIT 54c20 ba .cfa: $rsp 8 + .ra: .cfa -8 + ^
STACK CFI INIT 54ce0 27 .cfa: $rsp 8 + .ra: .cfa -8 + ^
STACK CFI 54ce1 $rbx: .cfa -16 + ^ .cfa: $rsp 16 +
STACK CFI 54d06 .cfa: $rsp 8 +
STACK CFI INIT 54d10 2e .cfa: $rsp 8 + .ra: .cfa -8 + ^
STACK CFI INIT 54d40 27 .cfa: $rsp 8 + .ra: .cfa -8 + ^
STACK CFI 54d41 $rbx: .cfa -16 + ^ .cfa: $rsp 16 +
STACK CFI 54d66 .cfa: $rsp 8 +
STACK CFI INIT 54d70 27 .cfa: $rsp 8 + .ra: .cfa -8 + ^
STACK CFI 54d71 $rbx: .cfa -16 + ^ .cfa: $rsp 16 +
STACK CFI 54d96 .cfa: $rsp 8 +
STACK CFI INIT 54da0 781 .cfa: $rsp 8 + .ra: .cfa -8 + ^
STACK CFI 54da2 $r15: .cfa -16 + ^ .cfa: $rsp 16 +
STACK CFI 54da4 $r14: .cfa -24 + ^ .cfa: $rsp 24 +
STACK CFI 54da6 $r13: .cfa -32 + ^ .cfa: $rsp 32 +
STACK CFI 54dab $r12: .cfa -40 + ^ .cfa: $rsp 40 +
STACK CFI 54dac $rbp: .cfa -48 + ^ .cfa: $rsp 48 +
STACK CFI 54dad $rbx: .cfa -56 + ^ .cfa: $rsp 56 +
STACK CFI 54db7 .cfa: $rsp 336 +
STACK CFI 5517c .cfa: $rsp 56 +
STACK CFI 5517d .cfa: $rsp 48 +
STACK CFI 5517e .cfa: $rsp 40 +
STACK CFI 55180 .cfa: $rsp 32 +
STACK CFI 55182 .cfa: $rsp 24 +
STACK CFI 55184 .cfa: $rsp 16 +
STACK CFI 55186 .cfa: $rsp 8 +
STACK CFI 55190 .cfa: $rsp 336 +
STACK CFI INIT 55530 c .cfa: $rsp 8 + .ra: .cfa -8 + ^
STACK CFI INIT 55540 c .cfa: $rsp 8 + .ra: .cfa -8 + ^
STACK CFI INIT 55550 c .cfa: $rsp 8 + .ra: .cfa -8 + ^
STACK CFI INIT 55560 c .cfa: $rsp 8 + .ra: .cfa -8 + ^
STACK CFI INIT 55570 27 .cfa: $rsp 8 + .ra: .cfa -8 + ^
STACK CFI 55571 $rbx: .cfa -16 + ^ .cfa: $rsp 16 +
STACK CFI 55596 .cfa: $rsp 8 +
STACK CFI INIT 555a0 27 .cfa: $rsp 8 + .ra: .cfa -8 + ^
STACK CFI 555a1 $rbx: .cfa -16 + ^ .cfa: $rsp 16 +
STACK CFI 555c6 .cfa: $rsp 8 +
STACK CFI INIT 555d0 468 .cfa: $rsp 8 + .ra: .cfa -8 + ^
STACK CFI 555d2 $r15: .cfa -16 + ^ .cfa: $rsp 16 +
STACK CFI 555d4 $r14: .cfa -24 + ^ .cfa: $rsp 24 +
STACK CFI 555d9 $r13: .cfa -32 + ^ .cfa: $rsp 32 +
STACK CFI 555db $r12: .cfa -40 + ^ .cfa: $rsp 40 +
STACK CFI 555dc $rbp: .cfa -48 + ^ .cfa: $rsp 48 +
STACK CFI 555dd $rbx: .cfa -56 + ^ .cfa: $rsp 56 +
STACK CFI 555e7 .cfa: $rsp 208 +
STACK CFI 5580e .cfa: $rsp 56 +
STACK CFI 5580f .cfa: $rsp 48 +
STACK CFI 55810 .cfa: $rsp 40 +
STACK CFI 55812 .cfa: $rsp 32 +
STACK CFI 55814 .cfa: $rsp 24 +
STACK CFI 55816 .cfa: $rsp 16 +
STACK CFI 55818 .cfa: $rsp 8 +
STACK CFI 55820 .cfa: $rsp 208 +
STACK CFI INIT 55a40 1a1 .cfa: $rsp 8 + .ra: .cfa -8 + ^
STACK CFI 55a42 $r12: .cfa -16 + ^ .cfa: $rsp 16 +
STACK CFI 55a43 $rbp: .cfa -24 + ^ .cfa: $rsp 24 +
STACK CFI 55a44 $rbx: .cfa -32 + ^ .cfa: $rsp 32 +
STACK CFI 55a4f .cfa: $rsp 112 +
STACK CFI 55a67 .cfa: $rsp 32 +
STACK CFI 55a68 .cfa: $rsp 24 +
STACK CFI 55a69 .cfa: $rsp 16 +
STACK CFI 55a6b .cfa: $rsp 8 +
STACK CFI 55a70 .cfa: $rsp 112 +
STACK CFI 55b55 .cfa: $rsp 32 +
STACK CFI 55b56 .cfa: $rsp 24 +
STACK CFI 55b57 .cfa: $rsp 16 +
STACK CFI 55b59 .cfa: $rsp 8 +
STACK CFI 55b5a .cfa: $rsp 112 +
STACK CFI INIT 55bf0 c .cfa: $rsp 8 + .ra: .cfa -8 + ^
STACK CFI INIT 55c00 c .cfa: $rsp 8 + .ra: .cfa -8 + ^
STACK CFI INIT 55c10 27c .cfa: $rsp 8 + .ra: .cfa -8 + ^
STACK CFI 55c12 $r15: .cfa -16 + ^ .cfa: $rsp 16 +
STACK CFI 55c14 $r14: .cfa -24 + ^ .cfa: $rsp 24 +
STACK CFI 55c19 $r13: .cfa -32 + ^ .cfa: $rsp 32 +
STACK CFI 55c1e $r12: .cfa -40 + ^ .cfa: $rsp 40 +
STACK CFI 55c1f $rbp: .cfa -48 + ^ .cfa: $rsp 48 +
STACK CFI 55c20 $rbx: .cfa -56 + ^ .cfa: $rsp 56 +
STACK CFI 55c27 .cfa: $rsp 112 +
STACK CFI 55d42 .cfa: $rsp 56 +
STACK CFI 55d43 .cfa: $rsp 48 +
STACK CFI 55d44 .cfa: $rsp 40 +
STACK CFI 55d46 .cfa: $rsp 32 +
STACK CFI 55d48 .cfa: $rsp 24 +
STACK CFI 55d4a .cfa: $rsp 16 +
STACK CFI 55d4c .cfa: $rsp 8 +
STACK CFI 55d50 .cfa: $rsp 112 +
STACK CFI INIT 55e90 3a2 .cfa: $rsp 8 + .ra: .cfa -8 + ^
STACK CFI 55e92 $r12: .cfa -16 + ^ .cfa: $rsp 16 +
STACK CFI 55e93 $rbp: .cfa -24 + ^ .cfa: $rsp 24 +
STACK CFI 55e94 $rbx: .cfa -32 + ^ .cfa: $rsp 32 +
STACK CFI 55e9a .cfa: $rsp 128 +
STACK CFI 55f14 .cfa: $rsp 32 +
STACK CFI 55f1a .cfa: $rsp 24 +
STACK CFI 55f1b .cfa: $rsp 16 +
STACK CFI 55f22 .cfa: $rsp 8 +
STACK CFI 55f28 .cfa: $rsp 128 +
STACK CFI 55f73 .cfa: $rsp 32 +
STACK CFI 55f78 .cfa: $rsp 24 +
STACK CFI 55f79 .cfa: $rsp 16 +
STACK CFI 55f7f .cfa: $rsp 8 +
STACK CFI 55f80 .cfa: $rsp 128 +
STACK CFI 55f94 .cfa: $rsp 32 +
STACK CFI 55f9a .cfa: $rsp 24 +
STACK CFI 55f9b .cfa: $rsp 16 +
STACK CFI 55fa1 .cfa: $rsp 8 +
STACK CFI 55fa8 .cfa: $rsp 128 +
STACK CFI 56124 .cfa: $rsp 32 +
STACK CFI 56129 .cfa: $rsp 24 +
STACK CFI 5612a .cfa: $rsp 16 +
STACK CFI 56130 .cfa: $rsp 8 +
STACK CFI 56138 .cfa: $rsp 128 +
STACK CFI INIT 56240 27 .cfa: $rsp 8 + .ra: .cfa -8 + ^
STACK CFI 56241 $rbx: .cfa -16 + ^ .cfa: $rsp 16 +
STACK CFI 56266 .cfa: $rsp 8 +
STACK CFI INIT 56270 9 .cfa: $rsp 8 + .ra: .cfa -8 + ^
STACK CFI INIT 56280 9 .cfa: $rsp 8 + .ra: .cfa -8 + ^
STACK CFI INIT 56290 9 .cfa: $rsp 8 + .ra: .cfa -8 + ^
STACK CFI INIT 562a0 c .cfa: $rsp 8 + .ra: .cfa -8 + ^
STACK CFI INIT 562b0 9 .cfa: $rsp 8 + .ra: .cfa -8 + ^
STACK CFI INIT 562c0 7 .cfa: $rsp 8 + .ra: .cfa -8 + ^
STACK CFI INIT 562d0 9 .cfa: $rsp 8 + .ra: .cfa -8 + ^
STACK CFI INIT 562e0 8 .cfa: $rsp 8 + .ra: .cfa -8 + ^
STACK CFI INIT 562f0 21 .cfa: $rsp 8 + .ra: .cfa -8 + ^
STACK CFI 562f1 $rbx: .cfa -16 + ^ .cfa: $rsp 16 +
STACK CFI 56310 .cfa: $rsp 8 +
STACK CFI INIT 56320 27 .cfa: $rsp 8 + .ra: .cfa -8 + ^
STACK CFI 56321 $rbx: .cfa -16 + ^ .cfa: $rsp 16 +
STACK CFI 56346 .cfa: $rsp 8 +
STACK CFI INIT 56350 9 .cfa: $rsp 8 + .ra: .cfa -8 + ^
STACK CFI INIT 56360 c .cfa: $rsp 8 + .ra: .cfa -8 + ^
STACK CFI INIT 56370 9 .cfa: $rsp 8 + .ra: .cfa -8 + ^
STACK CFI INIT 56380 7 .cfa: $rsp 8 + .ra: .cfa -8 + ^
STACK CFI INIT 56390 27 .cfa: $rsp 8 + .ra: .cfa -8 + ^
STACK CFI 56391 $rbx: .cfa -16 + ^ .cfa: $rsp 16 +
STACK CFI 563b6 .cfa: $rsp 8 +
STACK CFI INIT 91250 37 .cfa: $rsp 8 + .ra: .cfa -8 + ^
STACK CFI INIT 91290 37 .cfa: $rsp 8 + .ra: .cfa -8 + ^
STACK CFI INIT 563c0 57f .cfa: $rsp 8 + .ra: .cfa -8 + ^
STACK CFI 563c2 $r15: .cfa -16 + ^ .cfa: $rsp 16 +
STACK CFI 563c4 $r14: .cfa -24 + ^ .cfa: $rsp 24 +
STACK CFI 563c9 $r13: .cfa -32 + ^ .cfa: $rsp 32 +
STACK CFI 563cb $r12: .cfa -40 + ^ .cfa: $rsp 40 +
STACK CFI 563cc $rbp: .cfa -48 + ^ .cfa: $rsp 48 +
STACK CFI 563cd $rbx: .cfa -56 + ^ .cfa: $rsp 56 +
STACK CFI 563d7 .cfa: $rsp 304 +
STACK CFI 566cf .cfa: $rsp 56 +
STACK CFI 566d0 .cfa: $rsp 48 +
STACK CFI 566d1 .cfa: $rsp 40 +
STACK CFI 566d3 .cfa: $rsp 32 +
STACK CFI 566d5 .cfa: $rsp 24 +
STACK CFI 566d7 .cfa: $rsp 16 +
STACK CFI 566d9 .cfa: $rsp 8 +
STACK CFI 566e0 .cfa: $rsp 304 +
STACK CFI INIT 912d0 105 .cfa: $rsp 8 + .ra: .cfa -8 + ^
STACK CFI 912d1 $rbp: .cfa -16 + ^ .cfa: $rsp 16 +
STACK CFI 912d5 $rbx: .cfa -24 + ^ .cfa: $rsp 24 +
STACK CFI 912dc .cfa: $rsp 32 +
STACK CFI 912fc .cfa: $rsp 24 +
STACK CFI 912fd .cfa: $rsp 16 +
STACK CFI 912fe .cfa: $rsp 8 +
STACK CFI 91300 .cfa: $rsp 32 +
STACK CFI 91389 .cfa: $rsp 24 +
STACK CFI 9138a .cfa: $rsp 16 +
STACK CFI 9138b .cfa: $rsp 8 +
STACK CFI 91390 .cfa: $rsp 32 +
STACK CFI INIT 913e0 77 .cfa: $rsp 8 + .ra: .cfa -8 + ^
STACK CFI 913e1 $rbp: .cfa -16 + ^ .cfa: $rsp 16 +
STACK CFI 913e5 $rbx: .cfa -24 + ^ .cfa: $rsp 24 +
STACK CFI 913ec .cfa: $rsp 32 +
STACK CFI 91408 .cfa: $rsp 24 +
STACK CFI 91409 .cfa: $rsp 16 +
STACK CFI 9140a .cfa: $rsp 8 +
STACK CFI 91410 .cfa: $rsp 32 +
STACK CFI 9144c .cfa: $rsp 24 +
STACK CFI 91451 .cfa: $rsp 16 +
STACK CFI 91452 .cfa: $rsp 8 +
STACK CFI INIT 91460 32 .cfa: $rsp 8 + .ra: .cfa -8 + ^
STACK CFI INIT 56940 250 .cfa: $rsp 8 + .ra: .cfa -8 + ^
STACK CFI 56942 $r15: .cfa -16 + ^ .cfa: $rsp 16 +
STACK CFI 56947 $r14: .cfa -24 + ^ .cfa: $rsp 24 +
STACK CFI 5694d $r13: .cfa -32 + ^ .cfa: $rsp 32 +
STACK CFI 5694f $r12: .cfa -40 + ^ .cfa: $rsp 40 +
STACK CFI 56950 $rbp: .cfa -48 + ^ .cfa: $rsp 48 +
STACK CFI 56951 $rbx: .cfa -56 + ^ .cfa: $rsp 56 +
STACK CFI 56955 .cfa: $rsp 160 +
STACK CFI 56b52 .cfa: $rsp 56 +
STACK CFI 56b53 .cfa: $rsp 48 +
STACK CFI 56b54 .cfa: $rsp 40 +
STACK CFI 56b56 .cfa: $rsp 32 +
STACK CFI 56b58 .cfa: $rsp 24 +
STACK CFI 56b5a .cfa: $rsp 16 +
STACK CFI 56b5c .cfa: $rsp 8 +
STACK CFI 56b5d .cfa: $rsp 160 +
STACK CFI 56b61 .cfa: $rsp 56 +
STACK CFI 56b64 .cfa: $rsp 48 +
STACK CFI 56b65 .cfa: $rsp 40 +
STACK CFI 56b67 .cfa: $rsp 32 +
STACK CFI 56b69 .cfa: $rsp 24 +
STACK CFI 56b6b .cfa: $rsp 16 +
STACK CFI 56b6d .cfa: $rsp 8 +
STACK CFI 56b6e .cfa: $rsp 160 +
STACK CFI INIT 914a0 32 .cfa: $rsp 8 + .ra: .cfa -8 + ^
STACK CFI INIT 914e0 9 .cfa: $rsp 8 + .ra: .cfa -8 + ^
STACK CFI INIT 56b90 3d .cfa: $rsp 8 + .ra: .cfa -8 + ^
STACK CFI 56b92 $r12: .cfa -16 + ^ .cfa: $rsp 16 +
STACK CFI 56b96 $rbp: .cfa -24 + ^ .cfa: $rsp 24 +
STACK CFI 56b97 $rbx: .cfa -32 + ^ .cfa: $rsp 32 +
STACK CFI 56bc2 .cfa: $rsp 24 +
STACK CFI 56bc3 .cfa: $rsp 16 +
STACK CFI 56bc8 .cfa: $rsp 8 +
STACK CFI INIT 914f0 77 .cfa: $rsp 8 + .ra: .cfa -8 + ^
STACK CFI 914f1 $rbp: .cfa -16 + ^ .cfa: $rsp 16 +
STACK CFI 914f5 $rbx: .cfa -24 + ^ .cfa: $rsp 24 +
STACK CFI 914fc .cfa: $rsp 32 +
STACK CFI 91518 .cfa: $rsp 24 +
STACK CFI 91519 .cfa: $rsp 16 +
STACK CFI 9151a .cfa: $rsp 8 +
STACK CFI 91520 .cfa: $rsp 32 +
STACK CFI 9155c .cfa: $rsp 24 +
STACK CFI 91561 .cfa: $rsp 16 +
STACK CFI 91562 .cfa: $rsp 8 +
STACK CFI INIT 91570 32 .cfa: $rsp 8 + .ra: .cfa -8 + ^
STACK CFI INIT 56bd0 ea .cfa: $rsp 8 + .ra: .cfa -8 + ^
STACK CFI 56bd2 $r12: .cfa -16 + ^ .cfa: $rsp 16 +
STACK CFI 56bd5 $rbp: .cfa -24 + ^ .cfa: $rsp 24 +
STACK CFI 56bd6 $rbx: .cfa -32 + ^ .cfa: $rsp 32 +
STACK CFI 56be0 .cfa: $rsp 80 +
STACK CFI 56c50 .cfa: $rsp 32 +
STACK CFI 56c51 .cfa: $rsp 24 +
STACK CFI 56c52 .cfa: $rsp 16 +
STACK CFI 56c54 .cfa: $rsp 8 +
STACK CFI 56c55 .cfa: $rsp 80 +
STACK CFI INIT 56cc0 18e .cfa: $rsp 8 + .ra: .cfa -8 + ^
STACK CFI 56cc2 $r15: .cfa -16 + ^ .cfa: $rsp 16 +
STACK CFI 56cc4 $r14: .cfa -24 + ^ .cfa: $rsp 24 +
STACK CFI 56cc6 $r13: .cfa -32 + ^ .cfa: $rsp 32 +
STACK CFI 56cc8 $r12: .cfa -40 + ^ .cfa: $rsp 40 +
STACK CFI 56cc9 $rbp: .cfa -48 + ^ .cfa: $rsp 48 +
STACK CFI 56cca $rbx: .cfa -56 + ^ .cfa: $rsp 56 +
STACK CFI 56cce .cfa: $rsp 112 +
STACK CFI 56e0c .cfa: $rsp 56 +
STACK CFI 56e10 .cfa: $rsp 48 +
STACK CFI 56e11 .cfa: $rsp 40 +
STACK CFI 56e13 .cfa: $rsp 32 +
STACK CFI 56e15 .cfa: $rsp 24 +
STACK CFI 56e17 .cfa: $rsp 16 +
STACK CFI 56e19 .cfa: $rsp 8 +
STACK CFI 56e1a .cfa: $rsp 112 +
STACK CFI INIT 56e50 449 .cfa: $rsp 8 + .ra: .cfa -8 + ^
STACK CFI 56e52 $r15: .cfa -16 + ^ .cfa: $rsp 16 +
STACK CFI 56e54 $r14: .cfa -24 + ^ .cfa: $rsp 24 +
STACK CFI 56e56 $r13: .cfa -32 + ^ .cfa: $rsp 32 +
STACK CFI 56e58 $r12: .cfa -40 + ^ .cfa: $rsp 40 +
STACK CFI 56e59 $rbp: .cfa -48 + ^ .cfa: $rsp 48 +
STACK CFI 56e5d $rbx: .cfa -56 + ^ .cfa: $rsp 56 +
STACK CFI 56e64 .cfa: $rsp 128 +
STACK CFI 57003 .cfa: $rsp 56 +
STACK CFI 57004 .cfa: $rsp 48 +
STACK CFI 57005 .cfa: $rsp 40 +
STACK CFI 57007 .cfa: $rsp 32 +
STACK CFI 57009 .cfa: $rsp 24 +
STACK CFI 5700b .cfa: $rsp 16 +
STACK CFI 5700d .cfa: $rsp 8 +
STACK CFI 57010 .cfa: $rsp 128 +
STACK CFI INIT 915b0 32 .cfa: $rsp 8 + .ra: .cfa -8 + ^
STACK CFI INIT 915f0 77 .cfa: $rsp 8 + .ra: .cfa -8 + ^
STACK CFI 915f1 $rbp: .cfa -16 + ^ .cfa: $rsp 16 +
STACK CFI 915f5 $rbx: .cfa -24 + ^ .cfa: $rsp 24 +
STACK CFI 915fc .cfa: $rsp 32 +
STACK CFI 91618 .cfa: $rsp 24 +
STACK CFI 91619 .cfa: $rsp 16 +
STACK CFI 9161a .cfa: $rsp 8 +
STACK CFI 91620 .cfa: $rsp 32 +
STACK CFI 9165c .cfa: $rsp 24 +
STACK CFI 91661 .cfa: $rsp 16 +
STACK CFI 91662 .cfa: $rsp 8 +
STACK CFI INIT 91670 32 .cfa: $rsp 8 + .ra: .cfa -8 + ^
STACK CFI INIT 916b0 32 .cfa: $rsp 8 + .ra: .cfa -8 + ^
STACK CFI INIT 916f0 64 .cfa: $rsp 8 + .ra: .cfa -8 + ^
STACK CFI 916f1 $rbp: .cfa -16 + ^ .cfa: $rsp 16 +
STACK CFI 916f2 $rbx: .cfa -24 + ^ .cfa: $rsp 24 +
STACK CFI 916f6 .cfa: $rsp 32 +
STACK CFI 91729 .cfa: $rsp 24 +
STACK CFI 9172d .cfa: $rsp 16 +
STACK CFI 9172e .cfa: $rsp 8 +
STACK CFI 91738 .cfa: $rsp 32 +
STACK CFI 9174c .cfa: $rsp 24 +
STACK CFI 9174d .cfa: $rsp 16 +
STACK CFI 9174e .cfa: $rsp 8 +
STACK CFI 9174f .cfa: $rsp 32 +
STACK CFI INIT 91760 37 .cfa: $rsp 8 + .ra: .cfa -8 + ^
STACK CFI INIT 917a0 77 .cfa: $rsp 8 + .ra: .cfa -8 + ^
STACK CFI 917a1 $rbp: .cfa -16 + ^ .cfa: $rsp 16 +
STACK CFI 917a5 $rbx: .cfa -24 + ^ .cfa: $rsp 24 +
STACK CFI 917ac .cfa: $rsp 32 +
STACK CFI 917c8 .cfa: $rsp 24 +
STACK CFI 917c9 .cfa: $rsp 16 +
STACK CFI 917ca .cfa: $rsp 8 +
STACK CFI 917d0 .cfa: $rsp 32 +
STACK CFI 9180c .cfa: $rsp 24 +
STACK CFI 91811 .cfa: $rsp 16 +
STACK CFI 91812 .cfa: $rsp 8 +
STACK CFI INIT 91820 32 .cfa: $rsp 8 + .ra: .cfa -8 + ^
STACK CFI INIT 91860 38 .cfa: $rsp 8 + .ra: .cfa -8 + ^
STACK CFI INIT 918a0 37 .cfa: $rsp 8 + .ra: .cfa -8 + ^
STACK CFI INIT 918e0 32 .cfa: $rsp 8 + .ra: .cfa -8 + ^
STACK CFI INIT 91920 e3 .cfa: $rsp 8 + .ra: .cfa -8 + ^
STACK CFI 91922 $r14: .cfa -16 + ^ .cfa: $rsp 16 +
STACK CFI 91924 $r13: .cfa -24 + ^ .cfa: $rsp 24 +
STACK CFI 91929 $r12: .cfa -32 + ^ .cfa: $rsp 32 +
STACK CFI 9192a $rbp: .cfa -40 + ^ .cfa: $rsp 40 +
STACK CFI 9192b $rbx: .cfa -48 + ^ .cfa: $rsp 48 +
STACK CFI 91947 .cfa: $rsp 40 +
STACK CFI 91948 .cfa: $rsp 32 +
STACK CFI 9194a .cfa: $rsp 24 +
STACK CFI 9194c .cfa: $rsp 16 +
STACK CFI 9194e .cfa: $rsp 8 +
STACK CFI 91950 .cfa: $rsp 48 +
STACK CFI 919ac .cfa: $rsp 40 +
STACK CFI 919ad .cfa: $rsp 32 +
STACK CFI 919af .cfa: $rsp 24 +
STACK CFI 919b1 .cfa: $rsp 16 +
STACK CFI 919b3 .cfa: $rsp 8 +
STACK CFI 919b4 .cfa: $rsp 48 +
STACK CFI INIT 91a10 6a .cfa: $rsp 8 + .ra: .cfa -8 + ^
STACK CFI 91a12 $r12: .cfa -16 + ^ .cfa: $rsp 16 +
STACK CFI 91a18 $rbp: .cfa -24 + ^ .cfa: $rsp 24 +
STACK CFI 91a19 $rbx: .cfa -32 + ^ .cfa: $rsp 32 +
STACK CFI 91a4c .cfa: $rsp 24 +
STACK CFI 91a4d .cfa: $rsp 16 +
STACK CFI 91a55 .cfa: $rsp 8 +
STACK CFI 91a60 .cfa: $rsp 32 +
STACK CFI 91a76 .cfa: $rsp 24 +
STACK CFI 91a77 .cfa: $rsp 16 +
STACK CFI 91a79 .cfa: $rsp 8 +
STACK CFI INIT 91a80 6a .cfa: $rsp 8 + .ra: .cfa -8 + ^
STACK CFI 91a82 $r12: .cfa -16 + ^ .cfa: $rsp 16 +
STACK CFI 91a88 $rbp: .cfa -24 + ^ .cfa: $rsp 24 +
STACK CFI 91a89 $rbx: .cfa -32 + ^ .cfa: $rsp 32 +
STACK CFI 91abc .cfa: $rsp 24 +
STACK CFI 91abd .cfa: $rsp 16 +
STACK CFI 91ac5 .cfa: $rsp 8 +
STACK CFI 91ad0 .cfa: $rsp 32 +
STACK CFI 91ae6 .cfa: $rsp 24 +
STACK CFI 91ae7 .cfa: $rsp 16 +
STACK CFI 91ae9 .cfa: $rsp 8 +
STACK CFI INIT 91af0 db .cfa: $rsp 8 + .ra: .cfa -8 + ^
STACK CFI 91af1 $rbp: .cfa -16 + ^ .cfa: $rsp 16 +
STACK CFI 91af5 $rbx: .cfa -24 + ^ .cfa: $rsp 24 +
STACK CFI 91afc .cfa: $rsp 32 +
STACK CFI 91b1c .cfa: $rsp 24 +
STACK CFI 91b1d .cfa: $rsp 16 +
STACK CFI 91b1e .cfa: $rsp 8 +
STACK CFI 91b20 .cfa: $rsp 32 +
STACK CFI 91b7c .cfa: $rsp 24 +
STACK CFI 91b7d .cfa: $rsp 16 +
STACK CFI 91b7e .cfa: $rsp 8 +
STACK CFI 91b80 .cfa: $rsp 32 +
STACK CFI INIT 91bd0 90 .cfa: $rsp 8 + .ra: .cfa -8 + ^
STACK CFI 91bd2 $r13: .cfa -16 + ^ .cfa: $rsp 16 +
STACK CFI 91bd4 $r12: .cfa -24 + ^ .cfa: $rsp 24 +
STACK CFI 91bd8 $rbp: .cfa -32 + ^ .cfa: $rsp 32 +
STACK CFI 91bdb $rbx: .cfa -40 + ^ .cfa: $rsp 40 +
STACK CFI 91bdf .cfa: $rsp 48 +
STACK CFI 91c33 .cfa: $rsp 40 +
STACK CFI 91c34 .cfa: $rsp 32 +
STACK CFI 91c35 .cfa: $rsp 24 +
STACK CFI 91c37 .cfa: $rsp 16 +
STACK CFI 91c39 .cfa: $rsp 8 +
STACK CFI 91c40 .cfa: $rsp 48 +
STACK CFI 91c4e .cfa: $rsp 40 +
STACK CFI 91c4f .cfa: $rsp 32 +
STACK CFI 91c50 .cfa: $rsp 24 +
STACK CFI 91c52 .cfa: $rsp 16 +
STACK CFI 91c54 .cfa: $rsp 8 +
STACK CFI 91c55 .cfa: $rsp 48 +
STACK CFI INIT 91c60 127 .cfa: $rsp 8 + .ra: .cfa -8 + ^
STACK CFI 91c62 $r12: .cfa -16 + ^ .cfa: $rsp 16 +
STACK CFI 91c66 $rbp: .cfa -24 + ^ .cfa: $rsp 24 +
STACK CFI 91c67 $rbx: .cfa -32 + ^ .cfa: $rsp 32 +
STACK CFI 91cb0 .cfa: $rsp 24 +
STACK CFI 91cb1 .cfa: $rsp 16 +
STACK CFI 91cb3 .cfa: $rsp 8 +
STACK CFI 91cb8 .cfa: $rsp 32 +
STACK CFI 91d3d .cfa: $rsp 24 +
STACK CFI 91d3e .cfa: $rsp 16 +
STACK CFI 91d40 .cfa: $rsp 8 +
STACK CFI 91d48 .cfa: $rsp 32 +
STACK CFI INIT 572a0 19 .cfa: $rsp 8 + .ra: .cfa -8 + ^
STACK CFI 572a1 $rbx: .cfa -16 + ^ .cfa: $rsp 16 +
STACK CFI 572b8 .cfa: $rsp 8 +
STACK CFI INIT 572c0 c .cfa: $rsp 8 + .ra: .cfa -8 + ^
STACK CFI INIT 572d0 b9 .cfa: $rsp 8 + .ra: .cfa -8 + ^
STACK CFI 572d1 $rbp: .cfa -16 + ^ .cfa: $rsp 16 +
STACK CFI 572d2 $rbx: .cfa -24 + ^ .cfa: $rsp 24 +
STACK CFI 572d9 .cfa: $rsp 48 +
STACK CFI 57354 .cfa: $rsp 24 +
STACK CFI 57355 .cfa: $rsp 16 +
STACK CFI 57356 .cfa: $rsp 8 +
STACK CFI 57360 .cfa: $rsp 48 +
STACK CFI INIT 91d90 164 .cfa: $rsp 8 + .ra: .cfa -8 + ^
STACK CFI 91d91 $rbp: .cfa -16 + ^ .cfa: $rsp 16 +
STACK CFI 91d95 $rbx: .cfa -24 + ^ .cfa: $rsp 24 +
STACK CFI 91d9c .cfa: $rsp 48 +
STACK CFI 91dd1 .cfa: $rsp 24 +
STACK CFI 91dd5 .cfa: $rsp 16 +
STACK CFI 91dd6 .cfa: $rsp 8 +
STACK CFI 91de0 .cfa: $rsp 48 +
STACK CFI 91e2d .cfa: $rsp 24 +
STACK CFI 91e31 .cfa: $rsp 16 +
STACK CFI 91e32 .cfa: $rsp 8 +
STACK CFI 91e38 .cfa: $rsp 48 +
STACK CFI INIT 57390 19 .cfa: $rsp 8 + .ra: .cfa -8 + ^
STACK CFI 57391 $rbx: .cfa -16 + ^ .cfa: $rsp 16 +
STACK CFI 573a8 .cfa: $rsp 8 +
STACK CFI INIT 91f00 32 .cfa: $rsp 8 + .ra: .cfa -8 + ^
STACK CFI INIT 91f40 15b .cfa: $rsp 8 + .ra: .cfa -8 + ^
STACK CFI 91f42 $r13: .cfa -16 + ^ .cfa: $rsp 16 +
STACK CFI 91f47 $r12: .cfa -24 + ^ .cfa: $rsp 24 +
STACK CFI 91f48 $rbp: .cfa -32 + ^ .cfa: $rsp 32 +
STACK CFI 91f49 $rbx: .cfa -40 + ^ .cfa: $rsp 40 +
STACK CFI 91f50 .cfa: $rsp 64 +
STACK CFI 91ff7 .cfa: $rsp 40 +
STACK CFI 91ff8 .cfa: $rsp 32 +
STACK CFI 91ff9 .cfa: $rsp 24 +
STACK CFI 91ffb .cfa: $rsp 16 +
STACK CFI 91ffd .cfa: $rsp 8 +
STACK CFI 92000 .cfa: $rsp 64 +
STACK CFI 92077 .cfa: $rsp 40 +
STACK CFI 92078 .cfa: $rsp 32 +
STACK CFI 92079 .cfa: $rsp 24 +
STACK CFI 9207b .cfa: $rsp 16 +
STACK CFI 9207d .cfa: $rsp 8 +
STACK CFI 9207e .cfa: $rsp 64 +
STACK CFI INIT 573b0 cb .cfa: $rsp 8 + .ra: .cfa -8 + ^
STACK CFI 573b2 $r12: .cfa -16 + ^ .cfa: $rsp 16 +
STACK CFI 573bd $rbp: .cfa -24 + ^ .cfa: $rsp 24 +
STACK CFI 573c1 $rbx: .cfa -32 + ^ .cfa: $rsp 32 +
STACK CFI 57461 .cfa: $rsp 24 +
STACK CFI 57462 .cfa: $rsp 16 +
STACK CFI 57467 .cfa: $rsp 8 +
STACK CFI 57468 .cfa: $rsp 32 +
STACK CFI INIT 57480 2cd .cfa: $rsp 8 + .ra: .cfa -8 + ^
STACK CFI 57482 $r15: .cfa -16 + ^ .cfa: $rsp 16 +
STACK CFI 57484 $r14: .cfa -24 + ^ .cfa: $rsp 24 +
STACK CFI 57486 $r13: .cfa -32 + ^ .cfa: $rsp 32 +
STACK CFI 5748e $r12: .cfa -40 + ^ .cfa: $rsp 40 +
STACK CFI 57492 $rbp: .cfa -48 + ^ .cfa: $rsp 48 +
STACK CFI 57493 $rbx: .cfa -56 + ^ .cfa: $rsp 56 +
STACK CFI 57497 .cfa: $rsp 160 +
STACK CFI 576a1 .cfa: $rsp 56 +
STACK CFI 576a2 .cfa: $rsp 48 +
STACK CFI 576a3 .cfa: $rsp 40 +
STACK CFI 576a5 .cfa: $rsp 32 +
STACK CFI 576a7 .cfa: $rsp 24 +
STACK CFI 576a9 .cfa: $rsp 16 +
STACK CFI 576ab .cfa: $rsp 8 +
STACK CFI 576ac .cfa: $rsp 160 +
STACK CFI INIT 57750 c3 .cfa: $rsp 8 + .ra: .cfa -8 + ^
STACK CFI 57752 $r12: .cfa -16 + ^ .cfa: $rsp 16 +
STACK CFI 5775d $rbp: .cfa -24 + ^ .cfa: $rsp 24 +
STACK CFI 57761 $rbx: .cfa -32 + ^ .cfa: $rsp 32 +
STACK CFI 577f9 .cfa: $rsp 24 +
STACK CFI 577fa .cfa: $rsp 16 +
STACK CFI 577ff .cfa: $rsp 8 +
STACK CFI 57800 .cfa: $rsp 32 +
STACK CFI INIT 920a0 32 .cfa: $rsp 8 + .ra: .cfa -8 + ^
STACK CFI INIT 920e0 15b .cfa: $rsp 8 + .ra: .cfa -8 + ^
STACK CFI 920e2 $r13: .cfa -16 + ^ .cfa: $rsp 16 +
STACK CFI 920e7 $r12: .cfa -24 + ^ .cfa: $rsp 24 +
STACK CFI 920e8 $rbp: .cfa -32 + ^ .cfa: $rsp 32 +
STACK CFI 920e9 $rbx: .cfa -40 + ^ .cfa: $rsp 40 +
STACK CFI 920f0 .cfa: $rsp 64 +
STACK CFI 92197 .cfa: $rsp 40 +
STACK CFI 92198 .cfa: $rsp 32 +
STACK CFI 92199 .cfa: $rsp 24 +
STACK CFI 9219b .cfa: $rsp 16 +
STACK CFI 9219d .cfa: $rsp 8 +
STACK CFI 921a0 .cfa: $rsp 64 +
STACK CFI 92217 .cfa: $rsp 40 +
STACK CFI 92218 .cfa: $rsp 32 +
STACK CFI 92219 .cfa: $rsp 24 +
STACK CFI 9221b .cfa: $rsp 16 +
STACK CFI 9221d .cfa: $rsp 8 +
STACK CFI 9221e .cfa: $rsp 64 +
STACK CFI INIT 57820 cb .cfa: $rsp 8 + .ra: .cfa -8 + ^
STACK CFI 57822 $r12: .cfa -16 + ^ .cfa: $rsp 16 +
STACK CFI 5782d $rbp: .cfa -24 + ^ .cfa: $rsp 24 +
STACK CFI 57831 $rbx: .cfa -32 + ^ .cfa: $rsp 32 +
STACK CFI 578d1 .cfa: $rsp 24 +
STACK CFI 578d2 .cfa: $rsp 16 +
STACK CFI 578d7 .cfa: $rsp 8 +
STACK CFI 578d8 .cfa: $rsp 32 +
STACK CFI INIT 578f0 c3 .cfa: $rsp 8 + .ra: .cfa -8 + ^
STACK CFI 578f2 $r12: .cfa -16 + ^ .cfa: $rsp 16 +
STACK CFI 578fd $rbp: .cfa -24 + ^ .cfa: $rsp 24 +
STACK CFI 57901 $rbx: .cfa -32 + ^ .cfa: $rsp 32 +
STACK CFI 57999 .cfa: $rsp 24 +
STACK CFI 5799a .cfa: $rsp 16 +
STACK CFI 5799f .cfa: $rsp 8 +
STACK CFI 579a0 .cfa: $rsp 32 +
STACK CFI INIT 579c0 18e .cfa: $rsp 8 + .ra: .cfa -8 + ^
STACK CFI 579c2 $r12: .cfa -16 + ^ .cfa: $rsp 16 +
STACK CFI 579c3 $rbp: .cfa -24 + ^ .cfa: $rsp 24 +
STACK CFI 579c7 $rbx: .cfa -32 + ^ .cfa: $rsp 32 +
STACK CFI 579ce .cfa: $rsp 80 +
STACK CFI 57a93 .cfa: $rsp 32 +
STACK CFI 57a97 .cfa: $rsp 24 +
STACK CFI 57a98 .cfa: $rsp 16 +
STACK CFI 57a9a .cfa: $rsp 8 +
STACK CFI 57a9b .cfa: $rsp 80 +
STACK CFI INIT 92240 32 .cfa: $rsp 8 + .ra: .cfa -8 + ^
STACK CFI INIT 92280 15b .cfa: $rsp 8 + .ra: .cfa -8 + ^
STACK CFI 92282 $r13: .cfa -16 + ^ .cfa: $rsp 16 +
STACK CFI 92287 $r12: .cfa -24 + ^ .cfa: $rsp 24 +
STACK CFI 92288 $rbp: .cfa -32 + ^ .cfa: $rsp 32 +
STACK CFI 92289 $rbx: .cfa -40 + ^ .cfa: $rsp 40 +
STACK CFI 92290 .cfa: $rsp 64 +
STACK CFI 92337 .cfa: $rsp 40 +
STACK CFI 92338 .cfa: $rsp 32 +
STACK CFI 92339 .cfa: $rsp 24 +
STACK CFI 9233b .cfa: $rsp 16 +
STACK CFI 9233d .cfa: $rsp 8 +
STACK CFI 92340 .cfa: $rsp 64 +
STACK CFI 923b7 .cfa: $rsp 40 +
STACK CFI 923b8 .cfa: $rsp 32 +
STACK CFI 923b9 .cfa: $rsp 24 +
STACK CFI 923bb .cfa: $rsp 16 +
STACK CFI 923bd .cfa: $rsp 8 +
STACK CFI 923be .cfa: $rsp 64 +
STACK CFI INIT 57b50 13a .cfa: $rsp 8 + .ra: .cfa -8 + ^
STACK CFI 57b52 $r13: .cfa -16 + ^ .cfa: $rsp 16 +
STACK CFI 57b57 $r12: .cfa -24 + ^ .cfa: $rsp 24 +
STACK CFI 57b58 $rbp: .cfa -32 + ^ .cfa: $rsp 32 +
STACK CFI 57b59 $rbx: .cfa -40 + ^ .cfa: $rsp 40 +
STACK CFI 57b60 .cfa: $rsp 64 +
STACK CFI 57c37 .cfa: $rsp 40 +
STACK CFI 57c3b .cfa: $rsp 32 +
STACK CFI 57c3c .cfa: $rsp 24 +
STACK CFI 57c3e .cfa: $rsp 16 +
STACK CFI 57c40 .cfa: $rsp 8 +
STACK CFI 57c48 .cfa: $rsp 64 +
STACK CFI INIT 57c90 1a6 .cfa: $rsp 8 + .ra: .cfa -8 + ^
STACK CFI 57c92 $r14: .cfa -16 + ^ .cfa: $rsp 16 +
STACK CFI 57c97 $r13: .cfa -24 + ^ .cfa: $rsp 24 +
STACK CFI 57c99 $r12: .cfa -32 + ^ .cfa: $rsp 32 +
STACK CFI 57c9a $rbp: .cfa -40 + ^ .cfa: $rsp 40 +
STACK CFI 57c9e $rbx: .cfa -48 + ^ .cfa: $rsp 48 +
STACK CFI 57ca2 .cfa: $rsp 64 +
STACK CFI 57dd1 .cfa: $rsp 48 +
STACK CFI 57dd5 .cfa: $rsp 40 +
STACK CFI 57dd6 .cfa: $rsp 32 +
STACK CFI 57dd8 .cfa: $rsp 24 +
STACK CFI 57dda .cfa: $rsp 16 +
STACK CFI 57ddc .cfa: $rsp 8 +
STACK CFI 57de0 .cfa: $rsp 64 +
STACK CFI INIT 923e0 17d .cfa: $rsp 8 + .ra: .cfa -8 + ^
STACK CFI 923e1 $rbp: .cfa -16 + ^ .cfa: $rsp 16 +
STACK CFI 923e5 $rbx: .cfa -24 + ^ .cfa: $rsp 24 +
STACK CFI 923e9 .cfa: $rsp 48 +
STACK CFI 92447 .cfa: $rsp 24 +
STACK CFI 92448 .cfa: $rsp 16 +
STACK CFI 92449 .cfa: $rsp 8 +
STACK CFI 92450 .cfa: $rsp 48 +
STACK CFI INIT 92560 32 .cfa: $rsp 8 + .ra: .cfa -8 + ^
STACK CFI INIT 925a0 32 .cfa: $rsp 8 + .ra: .cfa -8 + ^
STACK CFI INIT 925e0 15b .cfa: $rsp 8 + .ra: .cfa -8 + ^
STACK CFI 925e2 $r13: .cfa -16 + ^ .cfa: $rsp 16 +
STACK CFI 925e7 $r12: .cfa -24 + ^ .cfa: $rsp 24 +
STACK CFI 925e8 $rbp: .cfa -32 + ^ .cfa: $rsp 32 +
STACK CFI 925e9 $rbx: .cfa -40 + ^ .cfa: $rsp 40 +
STACK CFI 925f0 .cfa: $rsp 64 +
STACK CFI 92697 .cfa: $rsp 40 +
STACK CFI 92698 .cfa: $rsp 32 +
STACK CFI 92699 .cfa: $rsp 24 +
STACK CFI 9269b .cfa: $rsp 16 +
STACK CFI 9269d .cfa: $rsp 8 +
STACK CFI 926a0 .cfa: $rsp 64 +
STACK CFI 92717 .cfa: $rsp 40 +
STACK CFI 92718 .cfa: $rsp 32 +
STACK CFI 92719 .cfa: $rsp 24 +
STACK CFI 9271b .cfa: $rsp 16 +
STACK CFI 9271d .cfa: $rsp 8 +
STACK CFI 9271e .cfa: $rsp 64 +
STACK CFI INIT 92740 32 .cfa: $rsp 8 + .ra: .cfa -8 + ^
STACK CFI INIT 92780 f5 .cfa: $rsp 8 + .ra: .cfa -8 + ^
STACK CFI 92782 $r13: .cfa -16 + ^ .cfa: $rsp 16 +
STACK CFI 92784 $r12: .cfa -24 + ^ .cfa: $rsp 24 +
STACK CFI 92785 $rbp: .cfa -32 + ^ .cfa: $rsp 32 +
STACK CFI 92789 $rbx: .cfa -40 + ^ .cfa: $rsp 40 +
STACK CFI 9278d .cfa: $rsp 48 +
STACK CFI 927c7 .cfa: $rsp 40 +
STACK CFI 927c8 .cfa: $rsp 32 +
STACK CFI 927c9 .cfa: $rsp 24 +
STACK CFI 927cb .cfa: $rsp 16 +
STACK CFI 927cd .cfa: $rsp 8 +
STACK CFI 927d0 .cfa: $rsp 48 +
STACK CFI 92855 .cfa: $rsp 40 +
STACK CFI 9285b .cfa: $rsp 32 +
STACK CFI 9285c .cfa: $rsp 24 +
STACK CFI 9285e .cfa: $rsp 16 +
STACK CFI 92860 .cfa: $rsp 8 +
STACK CFI 92861 .cfa: $rsp 48 +
STACK CFI INIT 92880 f5 .cfa: $rsp 8 + .ra: .cfa -8 + ^
STACK CFI 92882 $r13: .cfa -16 + ^ .cfa: $rsp 16 +
STACK CFI 92884 $r12: .cfa -24 + ^ .cfa: $rsp 24 +
STACK CFI 92885 $rbp: .cfa -32 + ^ .cfa: $rsp 32 +
STACK CFI 92889 $rbx: .cfa -40 + ^ .cfa: $rsp 40 +
STACK CFI 9288d .cfa: $rsp 48 +
STACK CFI 928c7 .cfa: $rsp 40 +
STACK CFI 928c8 .cfa: $rsp 32 +
STACK CFI 928c9 .cfa: $rsp 24 +
STACK CFI 928cb .cfa: $rsp 16 +
STACK CFI 928cd .cfa: $rsp 8 +
STACK CFI 928d0 .cfa: $rsp 48 +
STACK CFI 92955 .cfa: $rsp 40 +
STACK CFI 9295b .cfa: $rsp 32 +
STACK CFI 9295c .cfa: $rsp 24 +
STACK CFI 9295e .cfa: $rsp 16 +
STACK CFI 92960 .cfa: $rsp 8 +
STACK CFI 92961 .cfa: $rsp 48 +
STACK CFI INIT 92980 15b .cfa: $rsp 8 + .ra: .cfa -8 + ^
STACK CFI 92982 $r13: .cfa -16 + ^ .cfa: $rsp 16 +
STACK CFI 92987 $r12: .cfa -24 + ^ .cfa: $rsp 24 +
STACK CFI 92988 $rbp: .cfa -32 + ^ .cfa: $rsp 32 +
STACK CFI 92989 $rbx: .cfa -40 + ^ .cfa: $rsp 40 +
STACK CFI 92990 .cfa: $rsp 64 +
STACK CFI 92a37 .cfa: $rsp 40 +
STACK CFI 92a38 .cfa: $rsp 32 +
STACK CFI 92a39 .cfa: $rsp 24 +
STACK CFI 92a3b .cfa: $rsp 16 +
STACK CFI 92a3d .cfa: $rsp 8 +
STACK CFI 92a40 .cfa: $rsp 64 +
STACK CFI 92ab7 .cfa: $rsp 40 +
STACK CFI 92ab8 .cfa: $rsp 32 +
STACK CFI 92ab9 .cfa: $rsp 24 +
STACK CFI 92abb .cfa: $rsp 16 +
STACK CFI 92abd .cfa: $rsp 8 +
STACK CFI 92abe .cfa: $rsp 64 +
STACK CFI INIT 92ae0 32 .cfa: $rsp 8 + .ra: .cfa -8 + ^
STACK CFI INIT 92b20 9 .cfa: $rsp 8 + .ra: .cfa -8 + ^
STACK CFI INIT 92b30 38 .cfa: $rsp 8 + .ra: .cfa -8 + ^
STACK CFI INIT 92b70 77 .cfa: $rsp 8 + .ra: .cfa -8 + ^
STACK CFI 92b71 $rbp: .cfa -16 + ^ .cfa: $rsp 16 +
STACK CFI 92b75 $rbx: .cfa -24 + ^ .cfa: $rsp 24 +
STACK CFI 92b7c .cfa: $rsp 32 +
STACK CFI 92b98 .cfa: $rsp 24 +
STACK CFI 92b99 .cfa: $rsp 16 +
STACK CFI 92b9a .cfa: $rsp 8 +
STACK CFI 92ba0 .cfa: $rsp 32 +
STACK CFI 92bdc .cfa: $rsp 24 +
STACK CFI 92be1 .cfa: $rsp 16 +
STACK CFI 92be2 .cfa: $rsp 8 +
STACK CFI INIT 92bf0 32 .cfa: $rsp 8 + .ra: .cfa -8 + ^
STACK CFI INIT 92c30 f5 .cfa: $rsp 8 + .ra: .cfa -8 + ^
STACK CFI 92c32 $r13: .cfa -16 + ^ .cfa: $rsp 16 +
STACK CFI 92c34 $r12: .cfa -24 + ^ .cfa: $rsp 24 +
STACK CFI 92c35 $rbp: .cfa -32 + ^ .cfa: $rsp 32 +
STACK CFI 92c39 $rbx: .cfa -40 + ^ .cfa: $rsp 40 +
STACK CFI 92c3d .cfa: $rsp 48 +
STACK CFI 92c77 .cfa: $rsp 40 +
STACK CFI 92c78 .cfa: $rsp 32 +
STACK CFI 92c79 .cfa: $rsp 24 +
STACK CFI 92c7b .cfa: $rsp 16 +
STACK CFI 92c7d .cfa: $rsp 8 +
STACK CFI 92c80 .cfa: $rsp 48 +
STACK CFI 92d05 .cfa: $rsp 40 +
STACK CFI 92d0b .cfa: $rsp 32 +
STACK CFI 92d0c .cfa: $rsp 24 +
STACK CFI 92d0e .cfa: $rsp 16 +
STACK CFI 92d10 .cfa: $rsp 8 +
STACK CFI 92d11 .cfa: $rsp 48 +
STACK CFI INIT 92d30 32 .cfa: $rsp 8 + .ra: .cfa -8 + ^
STACK CFI INIT 92d70 32 .cfa: $rsp 8 + .ra: .cfa -8 + ^
STACK CFI INIT 92db0 e3 .cfa: $rsp 8 + .ra: .cfa -8 + ^
STACK CFI 92db2 $r14: .cfa -16 + ^ .cfa: $rsp 16 +
STACK CFI 92db4 $r13: .cfa -24 + ^ .cfa: $rsp 24 +
STACK CFI 92db9 $r12: .cfa -32 + ^ .cfa: $rsp 32 +
STACK CFI 92dba $rbp: .cfa -40 + ^ .cfa: $rsp 40 +
STACK CFI 92dbb $rbx: .cfa -48 + ^ .cfa: $rsp 48 +
STACK CFI 92dd7 .cfa: $rsp 40 +
STACK CFI 92dd8 .cfa: $rsp 32 +
STACK CFI 92dda .cfa: $rsp 24 +
STACK CFI 92ddc .cfa: $rsp 16 +
STACK CFI 92dde .cfa: $rsp 8 +
STACK CFI 92de0 .cfa: $rsp 48 +
STACK CFI 92e3c .cfa: $rsp 40 +
STACK CFI 92e3d .cfa: $rsp 32 +
STACK CFI 92e3f .cfa: $rsp 24 +
STACK CFI 92e41 .cfa: $rsp 16 +
STACK CFI 92e43 .cfa: $rsp 8 +
STACK CFI 92e44 .cfa: $rsp 48 +
STACK CFI INIT 92ea0 127 .cfa: $rsp 8 + .ra: .cfa -8 + ^
STACK CFI 92ea2 $r12: .cfa -16 + ^ .cfa: $rsp 16 +
STACK CFI 92ea6 $rbp: .cfa -24 + ^ .cfa: $rsp 24 +
STACK CFI 92ea7 $rbx: .cfa -32 + ^ .cfa: $rsp 32 +
STACK CFI 92ef0 .cfa: $rsp 24 +
STACK CFI 92ef1 .cfa: $rsp 16 +
STACK CFI 92ef3 .cfa: $rsp 8 +
STACK CFI 92ef8 .cfa: $rsp 32 +
STACK CFI 92f7d .cfa: $rsp 24 +
STACK CFI 92f7e .cfa: $rsp 16 +
STACK CFI 92f80 .cfa: $rsp 8 +
STACK CFI 92f88 .cfa: $rsp 32 +
STACK CFI INIT 92fd0 32 .cfa: $rsp 8 + .ra: .cfa -8 + ^
STACK CFI INIT 93010 37 .cfa: $rsp 8 + .ra: .cfa -8 + ^
STACK CFI INIT 93050 37 .cfa: $rsp 8 + .ra: .cfa -8 + ^
STACK CFI INIT 93090 182 .cfa: $rsp 8 + .ra: .cfa -8 + ^
STACK CFI 93091 $rbp: .cfa -16 + ^ .cfa: $rsp 16 +
STACK CFI 93095 $rbx: .cfa -24 + ^ .cfa: $rsp 24 +
STACK CFI 9309c .cfa: $rsp 48 +
STACK CFI 930db .cfa: $rsp 24 +
STACK CFI 930df .cfa: $rsp 16 +
STACK CFI 930e0 .cfa: $rsp 8 +
STACK CFI 930e8 .cfa: $rsp 48 +
STACK CFI 93135 .cfa: $rsp 24 +
STACK CFI 93139 .cfa: $rsp 16 +
STACK CFI 9313a .cfa: $rsp 8 +
STACK CFI 93140 .cfa: $rsp 48 +
STACK CFI INIT 93220 64 .cfa: $rsp 8 + .ra: .cfa -8 + ^
STACK CFI 93221 $rbp: .cfa -16 + ^ .cfa: $rsp 16 +
STACK CFI 93222 $rbx: .cfa -24 + ^ .cfa: $rsp 24 +
STACK CFI 93226 .cfa: $rsp 32 +
STACK CFI 93259 .cfa: $rsp 24 +
STACK CFI 9325d .cfa: $rsp 16 +
STACK CFI 9325e .cfa: $rsp 8 +
STACK CFI 93268 .cfa: $rsp 32 +
STACK CFI 9327c .cfa: $rsp 24 +
STACK CFI 9327d .cfa: $rsp 16 +
STACK CFI 9327e .cfa: $rsp 8 +
STACK CFI 9327f .cfa: $rsp 32 +
STACK CFI INIT 93290 32 .cfa: $rsp 8 + .ra: .cfa -8 + ^
STACK CFI INIT 932d0 15b .cfa: $rsp 8 + .ra: .cfa -8 + ^
STACK CFI 932d2 $r13: .cfa -16 + ^ .cfa: $rsp 16 +
STACK CFI 932d7 $r12: .cfa -24 + ^ .cfa: $rsp 24 +
STACK CFI 932d8 $rbp: .cfa -32 + ^ .cfa: $rsp 32 +
STACK CFI 932d9 $rbx: .cfa -40 + ^ .cfa: $rsp 40 +
STACK CFI 932e0 .cfa: $rsp 64 +
STACK CFI 93387 .cfa: $rsp 40 +
STACK CFI 93388 .cfa: $rsp 32 +
STACK CFI 93389 .cfa: $rsp 24 +
STACK CFI 9338b .cfa: $rsp 16 +
STACK CFI 9338d .cfa: $rsp 8 +
STACK CFI 93390 .cfa: $rsp 64 +
STACK CFI 93407 .cfa: $rsp 40 +
STACK CFI 93408 .cfa: $rsp 32 +
STACK CFI 93409 .cfa: $rsp 24 +
STACK CFI 9340b .cfa: $rsp 16 +
STACK CFI 9340d .cfa: $rsp 8 +
STACK CFI 9340e .cfa: $rsp 64 +
STACK CFI INIT 93430 f5 .cfa: $rsp 8 + .ra: .cfa -8 + ^
STACK CFI 93432 $r13: .cfa -16 + ^ .cfa: $rsp 16 +
STACK CFI 93434 $r12: .cfa -24 + ^ .cfa: $rsp 24 +
STACK CFI 93435 $rbp: .cfa -32 + ^ .cfa: $rsp 32 +
STACK CFI 93439 $rbx: .cfa -40 + ^ .cfa: $rsp 40 +
STACK CFI 9343d .cfa: $rsp 48 +
STACK CFI 93477 .cfa: $rsp 40 +
STACK CFI 93478 .cfa: $rsp 32 +
STACK CFI 93479 .cfa: $rsp 24 +
STACK CFI 9347b .cfa: $rsp 16 +
STACK CFI 9347d .cfa: $rsp 8 +
STACK CFI 93480 .cfa: $rsp 48 +
STACK CFI 93505 .cfa: $rsp 40 +
STACK CFI 9350b .cfa: $rsp 32 +
STACK CFI 9350c .cfa: $rsp 24 +
STACK CFI 9350e .cfa: $rsp 16 +
STACK CFI 93510 .cfa: $rsp 8 +
STACK CFI 93511 .cfa: $rsp 48 +
STACK CFI INIT 57e40 1c .cfa: $rsp 8 + .ra: .cfa -8 + ^
STACK CFI 57e44 .cfa: $rsp 32 +
STACK CFI 57e5b .cfa: $rsp 8 +
STACK CFI INIT 93530 32 .cfa: $rsp 8 + .ra: .cfa -8 + ^
STACK CFI INIT 93570 64 .cfa: $rsp 8 + .ra: .cfa -8 + ^
STACK CFI 93571 $rbp: .cfa -16 + ^ .cfa: $rsp 16 +
STACK CFI 93572 $rbx: .cfa -24 + ^ .cfa: $rsp 24 +
STACK CFI 93576 .cfa: $rsp 32 +
STACK CFI 935a9 .cfa: $rsp 24 +
STACK CFI 935ad .cfa: $rsp 16 +
STACK CFI 935ae .cfa: $rsp 8 +
STACK CFI 935b8 .cfa: $rsp 32 +
STACK CFI 935cc .cfa: $rsp 24 +
STACK CFI 935cd .cfa: $rsp 16 +
STACK CFI 935ce .cfa: $rsp 8 +
STACK CFI 935cf .cfa: $rsp 32 +
STACK CFI INIT 935e0 64 .cfa: $rsp 8 + .ra: .cfa -8 + ^
STACK CFI 935e1 $rbp: .cfa -16 + ^ .cfa: $rsp 16 +
STACK CFI 935e2 $rbx: .cfa -24 + ^ .cfa: $rsp 24 +
STACK CFI 935e6 .cfa: $rsp 32 +
STACK CFI 93619 .cfa: $rsp 24 +
STACK CFI 9361d .cfa: $rsp 16 +
STACK CFI 9361e .cfa: $rsp 8 +
STACK CFI 93628 .cfa: $rsp 32 +
STACK CFI 9363c .cfa: $rsp 24 +
STACK CFI 9363d .cfa: $rsp 16 +
STACK CFI 9363e .cfa: $rsp 8 +
STACK CFI 9363f .cfa: $rsp 32 +
STACK CFI INIT 93650 32 .cfa: $rsp 8 + .ra: .cfa -8 + ^
STACK CFI INIT 93690 32 .cfa: $rsp 8 + .ra: .cfa -8 + ^
STACK CFI INIT 936d0 2a .cfa: $rsp 8 + .ra: .cfa -8 + ^
STACK CFI INIT 93700 82 .cfa: $rsp 8 + .ra: .cfa -8 + ^
STACK CFI INIT 57e60 163 .cfa: $rsp 8 + .ra: .cfa -8 + ^
STACK CFI 57e62 $r13: .cfa -16 + ^ .cfa: $rsp 16 +
STACK CFI 57e64 $r12: .cfa -24 + ^ .cfa: $rsp 24 +
STACK CFI 57e65 $rbp: .cfa -32 + ^ .cfa: $rsp 32 +
STACK CFI 57e66 $rbx: .cfa -40 + ^ .cfa: $rsp 40 +
STACK CFI 57e6d .cfa: $rsp 80 +
STACK CFI 57f6c .cfa: $rsp 40 +
STACK CFI 57f6f .cfa: $rsp 32 +
STACK CFI 57f70 .cfa: $rsp 24 +
STACK CFI 57f72 .cfa: $rsp 16 +
STACK CFI 57f74 .cfa: $rsp 8 +
STACK CFI 57f78 .cfa: $rsp 80 +
STACK CFI INIT 93790 82 .cfa: $rsp 8 + .ra: .cfa -8 + ^
STACK CFI INIT 93820 d6 .cfa: $rsp 8 + .ra: .cfa -8 + ^
STACK CFI 93822 $r12: .cfa -16 + ^ .cfa: $rsp 16 +
STACK CFI 93835 $rbp: .cfa -24 + ^ .cfa: $rsp 24 +
STACK CFI 9383c $rbx: .cfa -32 + ^ .cfa: $rsp 32 +
STACK CFI 938c0 .cfa: $rsp 24 +
STACK CFI 938c1 .cfa: $rsp 16 +
STACK CFI 938c3 .cfa: $rsp 8 +
STACK CFI 938c8 .cfa: $rsp 32 +
STACK CFI 938d4 .cfa: $rsp 24 +
STACK CFI 938d5 .cfa: $rsp 16 +
STACK CFI 938d7 .cfa: $rsp 8 +
STACK CFI 938e0 .cfa: $rsp 32 +
STACK CFI INIT 57fd0 f9 .cfa: $rsp 8 + .ra: .cfa -8 + ^
STACK CFI 57fd2 $r13: .cfa -16 + ^ .cfa: $rsp 16 +
STACK CFI 57fd4 $r12: .cfa -24 + ^ .cfa: $rsp 24 +
STACK CFI 57fd8 $rbp: .cfa -32 + ^ .cfa: $rsp 32 +
STACK CFI 57fd9 $rbx: .cfa -40 + ^ .cfa: $rsp 40 +
STACK CFI 57fe0 .cfa: $rsp 48 +
STACK CFI 5807a .cfa: $rsp 40 +
STACK CFI 5807b .cfa: $rsp 32 +
STACK CFI 5807c .cfa: $rsp 24 +
STACK CFI 5807e .cfa: $rsp 16 +
STACK CFI 58080 .cfa: $rsp 8 +
STACK CFI 58088 .cfa: $rsp 48 +
STACK CFI 580c2 .cfa: $rsp 40 +
STACK CFI 580c3 .cfa: $rsp 32 +
STACK CFI 580c4 .cfa: $rsp 24 +
STACK CFI 580c6 .cfa: $rsp 16 +
STACK CFI 580c8 .cfa: $rsp 8 +
STACK CFI INIT 580d0 3eb .cfa: $rsp 8 + .ra: .cfa -8 + ^
STACK CFI 580d2 $r13: .cfa -16 + ^ .cfa: $rsp 16 +
STACK CFI 580d4 $r12: .cfa -24 + ^ .cfa: $rsp 24 +
STACK CFI 580d5 $rbp: .cfa -32 + ^ .cfa: $rsp 32 +
STACK CFI 580d9 $rbx: .cfa -40 + ^ .cfa: $rsp 40 +
STACK CFI 580e7 .cfa: $rsp 96 +
STACK CFI 580f4 .cfa: $rsp 40 +
STACK CFI 580f5 .cfa: $rsp 32 +
STACK CFI 580f6 .cfa: $rsp 24 +
STACK CFI 580f8 .cfa: $rsp 16 +
STACK CFI 580fa .cfa: $rsp 8 +
STACK CFI 58100 .cfa: $rsp 96 +
STACK CFI 5829b .cfa: $rsp 40 +
STACK CFI 5829c .cfa: $rsp 32 +
STACK CFI 5829d .cfa: $rsp 24 +
STACK CFI 5829f .cfa: $rsp 16 +
STACK CFI 582a1 .cfa: $rsp 8 +
STACK CFI 582a8 .cfa: $rsp 96 +
STACK CFI INIT 584c0 3fc .cfa: $rsp 8 + .ra: .cfa -8 + ^
STACK CFI 584c2 $r13: .cfa -16 + ^ .cfa: $rsp 16 +
STACK CFI 584c4 $r12: .cfa -24 + ^ .cfa: $rsp 24 +
STACK CFI 584c5 $rbp: .cfa -32 + ^ .cfa: $rsp 32 +
STACK CFI 584c9 $rbx: .cfa -40 + ^ .cfa: $rsp 40 +
STACK CFI 584d7 .cfa: $rsp 96 +
STACK CFI 584e4 .cfa: $rsp 40 +
STACK CFI 584e5 .cfa: $rsp 32 +
STACK CFI 584e6 .cfa: $rsp 24 +
STACK CFI 584e8 .cfa: $rsp 16 +
STACK CFI 584ea .cfa: $rsp 8 +
STACK CFI 584f0 .cfa: $rsp 96 +
STACK CFI 586ac .cfa: $rsp 40 +
STACK CFI 586ad .cfa: $rsp 32 +
STACK CFI 586ae .cfa: $rsp 24 +
STACK CFI 586b0 .cfa: $rsp 16 +
STACK CFI 586b2 .cfa: $rsp 8 +
STACK CFI 586b8 .cfa: $rsp 96 +
STACK CFI INIT 588c0 6d8 .cfa: $rsp 8 + .ra: .cfa -8 + ^
STACK CFI 588c2 $r13: .cfa -16 + ^ .cfa: $rsp 16 +
STACK CFI 588c4 $r12: .cfa -24 + ^ .cfa: $rsp 24 +
STACK CFI 588c8 $rbp: .cfa -32 + ^ .cfa: $rsp 32 +
STACK CFI 588c9 $rbx: .cfa -40 + ^ .cfa: $rsp 40 +
STACK CFI 588d0 .cfa: $rsp 96 +
STACK CFI 58d86 .cfa: $rsp 40 +
STACK CFI 58d87 .cfa: $rsp 32 +
STACK CFI 58d88 .cfa: $rsp 24 +
STACK CFI 58d8a .cfa: $rsp 16 +
STACK CFI 58d8c .cfa: $rsp 8 +
STACK CFI 58d90 .cfa: $rsp 96 +
STACK CFI INIT 93900 f4 .cfa: $rsp 8 + .ra: .cfa -8 + ^
STACK CFI 93902 $r13: .cfa -16 + ^ .cfa: $rsp 16 +
STACK CFI 93904 $r12: .cfa -24 + ^ .cfa: $rsp 24 +
STACK CFI 93905 $rbp: .cfa -32 + ^ .cfa: $rsp 32 +
STACK CFI 93909 $rbx: .cfa -40 + ^ .cfa: $rsp 40 +
STACK CFI 93910 .cfa: $rsp 64 +
STACK CFI 939ce .cfa: $rsp 40 +
STACK CFI 939cf .cfa: $rsp 32 +
STACK CFI 939d0 .cfa: $rsp 24 +
STACK CFI 939d2 .cfa: $rsp 16 +
STACK CFI 939d8 .cfa: $rsp 8 +
STACK CFI 939e0 .cfa: $rsp 64 +
STACK CFI INIT 93a00 66 .cfa: $rsp 8 + .ra: .cfa -8 + ^
STACK CFI 93a01 $rbx: .cfa -16 + ^ .cfa: $rsp 16 +
STACK CFI 93a08 .cfa: $rsp 32 +
STACK CFI 93a29 .cfa: $rsp 16 +
STACK CFI 93a2a .cfa: $rsp 8 +
STACK CFI 93a30 .cfa: $rsp 32 +
STACK CFI 93a47 .cfa: $rsp 16 +
STACK CFI 93a48 .cfa: $rsp 8 +
STACK CFI 93a49 .cfa: $rsp 32 +
STACK CFI INIT 58fa0 28a .cfa: $rsp 8 + .ra: .cfa -8 + ^
STACK CFI 58fa2 $r12: .cfa -16 + ^ .cfa: $rsp 16 +
STACK CFI 58fa3 $rbp: .cfa -24 + ^ .cfa: $rsp 24 +
STACK CFI 58fa4 $rbx: .cfa -32 + ^ .cfa: $rsp 32 +
STACK CFI 58fab .cfa: $rsp 96 +
STACK CFI 590a7 .cfa: $rsp 32 +
STACK CFI 590a8 .cfa: $rsp 24 +
STACK CFI 590a9 .cfa: $rsp 16 +
STACK CFI 590ab .cfa: $rsp 8 +
STACK CFI 590b0 .cfa: $rsp 96 +
STACK CFI 590be .cfa: $rsp 32 +
STACK CFI 590bf .cfa: $rsp 24 +
STACK CFI 590c0 .cfa: $rsp 16 +
STACK CFI 590c2 .cfa: $rsp 8 +
STACK CFI 590c8 .cfa: $rsp 96 +
STACK CFI 5914a .cfa: $rsp 32 +
STACK CFI 5914b .cfa: $rsp 24 +
STACK CFI 5914c .cfa: $rsp 16 +
STACK CFI 5914e .cfa: $rsp 8 +
STACK CFI 59150 .cfa: $rsp 96 +
STACK CFI 591b1 .cfa: $rsp 32 +
STACK CFI 591b2 .cfa: $rsp 24 +
STACK CFI 591b3 .cfa: $rsp 16 +
STACK CFI 591b5 .cfa: $rsp 8 +
STACK CFI 591b6 .cfa: $rsp 96 +
STACK CFI INIT 93a70 99 .cfa: $rsp 8 + .ra: .cfa -8 + ^
STACK CFI 93a72 $r12: .cfa -16 + ^ .cfa: $rsp 16 +
STACK CFI 93a79 $rbp: .cfa -24 + ^ .cfa: $rsp 24 +
STACK CFI 93a7a $rbx: .cfa -32 + ^ .cfa: $rsp 32 +
STACK CFI 93ad5 .cfa: $rsp 24 +
STACK CFI 93ad6 .cfa: $rsp 16 +
STACK CFI 93ad8 .cfa: $rsp 8 +
STACK CFI 93ae0 .cfa: $rsp 32 +
STACK CFI INIT 93b10 f4 .cfa: $rsp 8 + .ra: .cfa -8 + ^
STACK CFI 93b12 $r13: .cfa -16 + ^ .cfa: $rsp 16 +
STACK CFI 93b14 $r12: .cfa -24 + ^ .cfa: $rsp 24 +
STACK CFI 93b15 $rbp: .cfa -32 + ^ .cfa: $rsp 32 +
STACK CFI 93b19 $rbx: .cfa -40 + ^ .cfa: $rsp 40 +
STACK CFI 93b20 .cfa: $rsp 64 +
STACK CFI 93bde .cfa: $rsp 40 +
STACK CFI 93bdf .cfa: $rsp 32 +
STACK CFI 93be0 .cfa: $rsp 24 +
STACK CFI 93be2 .cfa: $rsp 16 +
STACK CFI 93be8 .cfa: $rsp 8 +
STACK CFI 93bf0 .cfa: $rsp 64 +
STACK CFI INIT 93c10 66 .cfa: $rsp 8 + .ra: .cfa -8 + ^
STACK CFI 93c11 $rbx: .cfa -16 + ^ .cfa: $rsp 16 +
STACK CFI 93c18 .cfa: $rsp 32 +
STACK CFI 93c39 .cfa: $rsp 16 +
STACK CFI 93c3a .cfa: $rsp 8 +
STACK CFI 93c40 .cfa: $rsp 32 +
STACK CFI 93c57 .cfa: $rsp 16 +
STACK CFI 93c58 .cfa: $rsp 8 +
STACK CFI 93c59 .cfa: $rsp 32 +
STACK CFI INIT 93c80 1d4 .cfa: $rsp 8 + .ra: .cfa -8 + ^
STACK CFI 93c82 $r12: .cfa -16 + ^ .cfa: $rsp 16 +
STACK CFI 93c88 $rbp: .cfa -24 + ^ .cfa: $rsp 24 +
STACK CFI 93c8c $rbx: .cfa -32 + ^ .cfa: $rsp 32 +
STACK CFI 93d97 .cfa: $rsp 24 +
STACK CFI 93d98 .cfa: $rsp 16 +
STACK CFI 93d9a .cfa: $rsp 8 +
STACK CFI 93d9b .cfa: $rsp 32 +
STACK CFI INIT 93e60 9f .cfa: $rsp 8 + .ra: .cfa -8 + ^
STACK CFI 93e61 $rbp: .cfa -16 + ^ .cfa: $rsp 16 +
STACK CFI 93e62 $rbx: .cfa -24 + ^ .cfa: $rsp 24 +
STACK CFI 93e69 .cfa: $rsp 32 +
STACK CFI 93ec2 .cfa: $rsp 24 +
STACK CFI 93ec3 .cfa: $rsp 16 +
STACK CFI 93ec4 .cfa: $rsp 8 +
STACK CFI 93ec8 .cfa: $rsp 32 +
STACK CFI 93efc .cfa: $rsp 24 +
STACK CFI 93efd .cfa: $rsp 16 +
STACK CFI 93efe .cfa: $rsp 8 +
STACK CFI INIT 93f00 76 .cfa: $rsp 8 + .ra: .cfa -8 + ^
STACK CFI 93f02 $r12: .cfa -16 + ^ .cfa: $rsp 16 +
STACK CFI 93f03 $rbp: .cfa -24 + ^ .cfa: $rsp 24 +
STACK CFI 93f04 $rbx: .cfa -32 + ^ .cfa: $rsp 32 +
STACK CFI 93f52 .cfa: $rsp 24 +
STACK CFI 93f56 .cfa: $rsp 16 +
STACK CFI 93f58 .cfa: $rsp 8 +
STACK CFI 93f60 .cfa: $rsp 32 +
STACK CFI 93f72 .cfa: $rsp 24 +
STACK CFI 93f73 .cfa: $rsp 16 +
STACK CFI 93f75 .cfa: $rsp 8 +
STACK CFI INIT 93f80 22 .cfa: $rsp 8 + .ra: .cfa -8 + ^
STACK CFI INIT 93fb0 c8 .cfa: $rsp 8 + .ra: .cfa -8 + ^
STACK CFI 93fb2 $r12: .cfa -16 + ^ .cfa: $rsp 16 +
STACK CFI 93fb3 $rbp: .cfa -24 + ^ .cfa: $rsp 24 +
STACK CFI 93fb7 $rbx: .cfa -32 + ^ .cfa: $rsp 32 +
STACK CFI 93fbe .cfa: $rsp 48 +
STACK CFI 94015 .cfa: $rsp 32 +
STACK CFI 94019 .cfa: $rsp 24 +
STACK CFI 9401a .cfa: $rsp 16 +
STACK CFI 9401c .cfa: $rsp 8 +
STACK CFI 94020 .cfa: $rsp 48 +
STACK CFI 94030 .cfa: $rsp 32 +
STACK CFI 94034 .cfa: $rsp 24 +
STACK CFI 94035 .cfa: $rsp 16 +
STACK CFI 94037 .cfa: $rsp 8 +
STACK CFI 94040 .cfa: $rsp 48 +
STACK CFI INIT 59230 f5 .cfa: $rsp 8 + .ra: .cfa -8 + ^
STACK CFI 59232 $r15: .cfa -16 + ^ .cfa: $rsp 16 +
STACK CFI 59237 $r14: .cfa -24 + ^ .cfa: $rsp 24 +
STACK CFI 5923c $r13: .cfa -32 + ^ .cfa: $rsp 32 +
STACK CFI 5923e $r12: .cfa -40 + ^ .cfa: $rsp 40 +
STACK CFI 59245 $rbp: .cfa -48 + ^ .cfa: $rsp 48 +
STACK CFI 59246 $rbx: .cfa -56 + ^ .cfa: $rsp 56 +
STACK CFI 5924a .cfa: $rsp 80 +
STACK CFI 592f7 .cfa: $rsp 56 +
STACK CFI 592fb .cfa: $rsp 48 +
STACK CFI 592fc .cfa: $rsp 40 +
STACK CFI 592fe .cfa: $rsp 32 +
STACK CFI 59300 .cfa: $rsp 24 +
STACK CFI 59302 .cfa: $rsp 16 +
STACK CFI 59304 .cfa: $rsp 8 +
STACK CFI 59305 .cfa: $rsp 80 +
STACK CFI INIT 59330 135 .cfa: $rsp 8 + .ra: .cfa -8 + ^
STACK CFI 59332 $r15: .cfa -16 + ^ .cfa: $rsp 16 +
STACK CFI 59334 $r14: .cfa -24 + ^ .cfa: $rsp 24 +
STACK CFI 59339 $r13: .cfa -32 + ^ .cfa: $rsp 32 +
STACK CFI 5933b $r12: .cfa -40 + ^ .cfa: $rsp 40 +
STACK CFI 5933f $rbp: .cfa -48 + ^ .cfa: $rsp 48 +
STACK CFI 59340 $rbx: .cfa -56 + ^ .cfa: $rsp 56 +
STACK CFI 59344 .cfa: $rsp 96 +
STACK CFI 59437 .cfa: $rsp 56 +
STACK CFI 5943b .cfa: $rsp 48 +
STACK CFI 5943c .cfa: $rsp 40 +
STACK CFI 5943e .cfa: $rsp 32 +
STACK CFI 59440 .cfa: $rsp 24 +
STACK CFI 59442 .cfa: $rsp 16 +
STACK CFI 59444 .cfa: $rsp 8 +
STACK CFI 59445 .cfa: $rsp 96 +
STACK CFI INIT 59470 ad .cfa: $rsp 8 + .ra: .cfa -8 + ^
STACK CFI 59472 $r13: .cfa -16 + ^ .cfa: $rsp 16 +
STACK CFI 59474 $r12: .cfa -24 + ^ .cfa: $rsp 24 +
STACK CFI 59478 $rbp: .cfa -32 + ^ .cfa: $rsp 32 +
STACK CFI 59479 $rbx: .cfa -40 + ^ .cfa: $rsp 40 +
STACK CFI 59480 .cfa: $rsp 64 +
STACK CFI 594b1 .cfa: $rsp 40 +
STACK CFI 594b5 .cfa: $rsp 32 +
STACK CFI 594b6 .cfa: $rsp 24 +
STACK CFI 594b8 .cfa: $rsp 16 +
STACK CFI 594ba .cfa: $rsp 8 +
STACK CFI 594c0 .cfa: $rsp 64 +
STACK CFI 594f0 .cfa: $rsp 40 +
STACK CFI 594f4 .cfa: $rsp 32 +
STACK CFI 594f5 .cfa: $rsp 24 +
STACK CFI 594f7 .cfa: $rsp 16 +
STACK CFI 594f9 .cfa: $rsp 8 +
STACK CFI 594fa .cfa: $rsp 64 +
STACK CFI INIT 94080 222 .cfa: $rsp 8 + .ra: .cfa -8 + ^
STACK CFI 94082 $r15: .cfa -16 + ^ .cfa: $rsp 16 +
STACK CFI 94086 $r14: .cfa -24 + ^ .cfa: $rsp 24 +
STACK CFI 94088 $r13: .cfa -32 + ^ .cfa: $rsp 32 +
STACK CFI 9408d $r12: .cfa -40 + ^ .cfa: $rsp 40 +
STACK CFI 9408e $rbp: .cfa -48 + ^ .cfa: $rsp 48 +
STACK CFI 9408f $rbx: .cfa -56 + ^ .cfa: $rsp 56 +
STACK CFI 94093 .cfa: $rsp 80 +
STACK CFI 94192 .cfa: $rsp 56 +
STACK CFI 94193 .cfa: $rsp 48 +
STACK CFI 94194 .cfa: $rsp 40 +
STACK CFI 94196 .cfa: $rsp 32 +
STACK CFI 94198 .cfa: $rsp 24 +
STACK CFI 9419a .cfa: $rsp 16 +
STACK CFI 941a0 .cfa: $rsp 8 +
STACK CFI 941a8 .cfa: $rsp 80 +
STACK CFI INIT 942b0 ac .cfa: $rsp 8 + .ra: .cfa -8 + ^
STACK CFI 942b2 $r12: .cfa -16 + ^ .cfa: $rsp 16 +
STACK CFI 942b3 $rbp: .cfa -24 + ^ .cfa: $rsp 24 +
STACK CFI 942b7 $rbx: .cfa -32 + ^ .cfa: $rsp 32 +
STACK CFI 942be .cfa: $rsp 48 +
STACK CFI 942e9 .cfa: $rsp 32 +
STACK CFI 942ea .cfa: $rsp 24 +
STACK CFI 942eb .cfa: $rsp 16 +
STACK CFI 942ed .cfa: $rsp 8 +
STACK CFI 942f0 .cfa: $rsp 48 +
STACK CFI 9430e .cfa: $rsp 32 +
STACK CFI 9430f .cfa: $rsp 24 +
STACK CFI 94310 .cfa: $rsp 16 +
STACK CFI 94312 .cfa: $rsp 8 +
STACK CFI 94313 .cfa: $rsp 48 +
STACK CFI INIT 94360 f4 .cfa: $rsp 8 + .ra: .cfa -8 + ^
STACK CFI 94362 $r13: .cfa -16 + ^ .cfa: $rsp 16 +
STACK CFI 94364 $r12: .cfa -24 + ^ .cfa: $rsp 24 +
STACK CFI 94365 $rbp: .cfa -32 + ^ .cfa: $rsp 32 +
STACK CFI 94369 $rbx: .cfa -40 + ^ .cfa: $rsp 40 +
STACK CFI 94370 .cfa: $rsp 64 +
STACK CFI 9442e .cfa: $rsp 40 +
STACK CFI 9442f .cfa: $rsp 32 +
STACK CFI 94430 .cfa: $rsp 24 +
STACK CFI 94432 .cfa: $rsp 16 +
STACK CFI 94438 .cfa: $rsp 8 +
STACK CFI 94440 .cfa: $rsp 64 +
STACK CFI INIT 94460 66 .cfa: $rsp 8 + .ra: .cfa -8 + ^
STACK CFI 94461 $rbx: .cfa -16 + ^ .cfa: $rsp 16 +
STACK CFI 94468 .cfa: $rsp 32 +
STACK CFI 94489 .cfa: $rsp 16 +
STACK CFI 9448a .cfa: $rsp 8 +
STACK CFI 94490 .cfa: $rsp 32 +
STACK CFI 944a7 .cfa: $rsp 16 +
STACK CFI 944a8 .cfa: $rsp 8 +
STACK CFI 944a9 .cfa: $rsp 32 +
STACK CFI INIT 944d0 234 .cfa: $rsp 8 + .ra: .cfa -8 + ^
STACK CFI 944d2 $r15: .cfa -16 + ^ .cfa: $rsp 16 +
STACK CFI 944d6 $r14: .cfa -24 + ^ .cfa: $rsp 24 +
STACK CFI 944d8 $r13: .cfa -32 + ^ .cfa: $rsp 32 +
STACK CFI 944dd $r12: .cfa -40 + ^ .cfa: $rsp 40 +
STACK CFI 944de $rbp: .cfa -48 + ^ .cfa: $rsp 48 +
STACK CFI 944df $rbx: .cfa -56 + ^ .cfa: $rsp 56 +
STACK CFI 944e3 .cfa: $rsp 80 +
STACK CFI 945e8 .cfa: $rsp 56 +
STACK CFI 945e9 .cfa: $rsp 48 +
STACK CFI 945ea .cfa: $rsp 40 +
STACK CFI 945ec .cfa: $rsp 32 +
STACK CFI 945ee .cfa: $rsp 24 +
STACK CFI 945f0 .cfa: $rsp 16 +
STACK CFI 945f6 .cfa: $rsp 8 +
STACK CFI 94600 .cfa: $rsp 80 +
STACK CFI INIT 94710 a8 .cfa: $rsp 8 + .ra: .cfa -8 + ^
STACK CFI 94712 $r12: .cfa -16 + ^ .cfa: $rsp 16 +
STACK CFI 94713 $rbp: .cfa -24 + ^ .cfa: $rsp 24 +
STACK CFI 94717 $rbx: .cfa -32 + ^ .cfa: $rsp 32 +
STACK CFI 94748 .cfa: $rsp 24 +
STACK CFI 94749 .cfa: $rsp 16 +
STACK CFI 9474b .cfa: $rsp 8 +
STACK CFI 94750 .cfa: $rsp 32 +
STACK CFI 9476c .cfa: $rsp 24 +
STACK CFI 9476d .cfa: $rsp 16 +
STACK CFI 9476f .cfa: $rsp 8 +
STACK CFI 94770 .cfa: $rsp 32 +
STACK CFI INIT 947c0 f4 .cfa: $rsp 8 + .ra: .cfa -8 + ^
STACK CFI 947c2 $r13: .cfa -16 + ^ .cfa: $rsp 16 +
STACK CFI 947c4 $r12: .cfa -24 + ^ .cfa: $rsp 24 +
STACK CFI 947c5 $rbp: .cfa -32 + ^ .cfa: $rsp 32 +
STACK CFI 947c9 $rbx: .cfa -40 + ^ .cfa: $rsp 40 +
STACK CFI 947d0 .cfa: $rsp 64 +
STACK CFI 9488e .cfa: $rsp 40 +
STACK CFI 9488f .cfa: $rsp 32 +
STACK CFI 94890 .cfa: $rsp 24 +
STACK CFI 94892 .cfa: $rsp 16 +
STACK CFI 94898 .cfa: $rsp 8 +
STACK CFI 948a0 .cfa: $rsp 64 +
STACK CFI INIT 948c0 64 .cfa: $rsp 8 + .ra: .cfa -8 + ^
STACK CFI 948c1 $rbx: .cfa -16 + ^ .cfa: $rsp 16 +
STACK CFI 948c8 .cfa: $rsp 32 +
STACK CFI 948e7 .cfa: $rsp 16 +
STACK CFI 948e8 .cfa: $rsp 8 +
STACK CFI 948f0 .cfa: $rsp 32 +
STACK CFI 94905 .cfa: $rsp 16 +
STACK CFI 94906 .cfa: $rsp 8 +
STACK CFI 94907 .cfa: $rsp 32 +
STACK CFI INIT 94930 26c .cfa: $rsp 8 + .ra: .cfa -8 + ^
STACK CFI 94932 $r15: .cfa -16 + ^ .cfa: $rsp 16 +
STACK CFI 94934 $r14: .cfa -24 + ^ .cfa: $rsp 24 +
STACK CFI 94936 $r13: .cfa -32 + ^ .cfa: $rsp 32 +
STACK CFI 9493d $r12: .cfa -40 + ^ .cfa: $rsp 40 +
STACK CFI 9493e $rbp: .cfa -48 + ^ .cfa: $rsp 48 +
STACK CFI 9493f $rbx: .cfa -56 + ^ .cfa: $rsp 56 +
STACK CFI 94943 .cfa: $rsp 80 +
STACK CFI 94a82 .cfa: $rsp 56 +
STACK CFI 94a83 .cfa: $rsp 48 +
STACK CFI 94a84 .cfa: $rsp 40 +
STACK CFI 94a86 .cfa: $rsp 32 +
STACK CFI 94a88 .cfa: $rsp 24 +
STACK CFI 94a8a .cfa: $rsp 16 +
STACK CFI 94a90 .cfa: $rsp 8 +
STACK CFI 94a98 .cfa: $rsp 80 +
STACK CFI INIT 94ba0 b6 .cfa: $rsp 8 + .ra: .cfa -8 + ^
STACK CFI 94ba2 $r12: .cfa -16 + ^ .cfa: $rsp 16 +
STACK CFI 94ba3 $rbp: .cfa -24 + ^ .cfa: $rsp 24 +
STACK CFI 94ba7 $rbx: .cfa -32 + ^ .cfa: $rsp 32 +
STACK CFI 94bf1 .cfa: $rsp 24 +
STACK CFI 94bf2 .cfa: $rsp 16 +
STACK CFI 94bf4 .cfa: $rsp 8 +
STACK CFI 94bf8 .cfa: $rsp 32 +
STACK CFI INIT 59520 133 .cfa: $rsp 8 + .ra: .cfa -8 + ^
STACK CFI 59521 $rbp: .cfa -16 + ^ .cfa: $rsp 16 +
STACK CFI 59522 $rbx: .cfa -24 + ^ .cfa: $rsp 24 +
STACK CFI 59526 .cfa: $rsp 96 +
STACK CFI 595d0 .cfa: $rsp 24 +
STACK CFI 595d1 .cfa: $rsp 16 +
STACK CFI 595d2 .cfa: $rsp 8 +
STACK CFI 595d8 .cfa: $rsp 96 +
STACK CFI INIT 59660 11b .cfa: $rsp 8 + .ra: .cfa -8 + ^
STACK CFI 59662 $r12: .cfa -16 + ^ .cfa: $rsp 16 +
STACK CFI 59663 $rbp: .cfa -24 + ^ .cfa: $rsp 24 +
STACK CFI 59664 $rbx: .cfa -32 + ^ .cfa: $rsp 32 +
STACK CFI 59668 .cfa: $rsp 96 +
STACK CFI 596f2 .cfa: $rsp 32 +
STACK CFI 596f3 .cfa: $rsp 24 +
STACK CFI 596f4 .cfa: $rsp 16 +
STACK CFI 596f6 .cfa: $rsp 8 +
STACK CFI 59700 .cfa: $rsp 96 +
STACK CFI INIT 94c60 3a .cfa: $rsp 8 + .ra: .cfa -8 + ^
STACK CFI 94c64 .cfa: $rsp 16 +
STACK CFI 94c99 .cfa: $rsp 8 +
STACK CFI INIT 94ca0 43 .cfa: $rsp 8 + .ra: .cfa -8 + ^
STACK CFI 94ca4 $rbx: .cfa -16 + ^ .cfa: $rsp 16 +
STACK CFI 94cb9 .cfa: $rsp 8 +
STACK CFI 94cc0 .cfa: $rsp 16 +
STACK CFI 94cc5 .cfa: $rsp 8 +
STACK CFI 94cd0 .cfa: $rsp 16 +
STACK CFI INIT 94cf0 cb .cfa: $rsp 8 + .ra: .cfa -8 + ^
STACK CFI 94cf2 $r12: .cfa -16 + ^ .cfa: $rsp 16 +
STACK CFI 94cf6 $rbp: .cfa -24 + ^ .cfa: $rsp 24 +
STACK CFI 94cfa $rbx: .cfa -32 + ^ .cfa: $rsp 32 +
STACK CFI 94da1 .cfa: $rsp 24 +
STACK CFI 94da5 .cfa: $rsp 16 +
STACK CFI 94da7 .cfa: $rsp 8 +
STACK CFI 94da8 .cfa: $rsp 32 +
STACK CFI INIT 59780 7e7 .cfa: $rsp 8 + .ra: .cfa -8 + ^
STACK CFI 59782 $r14: .cfa -16 + ^ .cfa: $rsp 16 +
STACK CFI 59784 $r13: .cfa -24 + ^ .cfa: $rsp 24 +
STACK CFI 59786 $r12: .cfa -32 + ^ .cfa: $rsp 32 +
STACK CFI 59787 $rbp: .cfa -40 + ^ .cfa: $rsp 40 +
STACK CFI 59788 $rbx: .cfa -48 + ^ .cfa: $rsp 48 +
STACK CFI 5978f .cfa: $rsp 128 +
STACK CFI 599e4 .cfa: $rsp 48 +
STACK CFI 599e5 .cfa: $rsp 40 +
STACK CFI 599e6 .cfa: $rsp 32 +
STACK CFI 599e8 .cfa: $rsp 24 +
STACK CFI 599ea .cfa: $rsp 16 +
STACK CFI 599ec .cfa: $rsp 8 +
STACK CFI 599f0 .cfa: $rsp 128 +
STACK CFI 59b9a .cfa: $rsp 48 +
STACK CFI 59b9b .cfa: $rsp 40 +
STACK CFI 59b9c .cfa: $rsp 32 +
STACK CFI 59b9e .cfa: $rsp 24 +
STACK CFI 59ba0 .cfa: $rsp 16 +
STACK CFI 59ba2 .cfa: $rsp 8 +
STACK CFI 59ba8 .cfa: $rsp 128 +
STACK CFI INIT 94dc0 43 .cfa: $rsp 8 + .ra: .cfa -8 + ^
STACK CFI 94dc4 $rbx: .cfa -16 + ^ .cfa: $rsp 16 +
STACK CFI 94dd9 .cfa: $rsp 8 +
STACK CFI 94de0 .cfa: $rsp 16 +
STACK CFI 94de5 .cfa: $rsp 8 +
STACK CFI 94df0 .cfa: $rsp 16 +
STACK CFI INIT 59f70 531 .cfa: $rsp 8 + .ra: .cfa -8 + ^
STACK CFI 59f72 $r15: .cfa -16 + ^ .cfa: $rsp 16 +
STACK CFI 59f74 $r14: .cfa -24 + ^ .cfa: $rsp 24 +
STACK CFI 59f76 $r13: .cfa -32 + ^ .cfa: $rsp 32 +
STACK CFI 59f78 $r12: .cfa -40 + ^ .cfa: $rsp 40 +
STACK CFI 59f79 $rbp: .cfa -48 + ^ .cfa: $rsp 48 +
STACK CFI 59f7a $rbx: .cfa -56 + ^ .cfa: $rsp 56 +
STACK CFI 59f84 .cfa: $rsp 224 +
STACK CFI 5a3f3 .cfa: $rsp 56 +
STACK CFI 5a3f4 .cfa: $rsp 48 +
STACK CFI 5a3f5 .cfa: $rsp 40 +
STACK CFI 5a3f7 .cfa: $rsp 32 +
STACK CFI 5a3f9 .cfa: $rsp 24 +
STACK CFI 5a3fb .cfa: $rsp 16 +
STACK CFI 5a3fd .cfa: $rsp 8 +
STACK CFI 5a400 .cfa: $rsp 224 +
STACK CFI INIT 5a4b0 301 .cfa: $rsp 8 + .ra: .cfa -8 + ^
STACK CFI 5a4b2 $r15: .cfa -16 + ^ .cfa: $rsp 16 +
STACK CFI 5a4b4 $r14: .cfa -24 + ^ .cfa: $rsp 24 +
STACK CFI 5a4b6 $r13: .cfa -32 + ^ .cfa: $rsp 32 +
STACK CFI 5a4b8 $r12: .cfa -40 + ^ .cfa: $rsp 40 +
STACK CFI 5a4b9 $rbp: .cfa -48 + ^ .cfa: $rsp 48 +
STACK CFI 5a4ba $rbx: .cfa -56 + ^ .cfa: $rsp 56 +
STACK CFI 5a4c1 .cfa: $rsp 144 +
STACK CFI 5a4de .cfa: $rsp 56 +
STACK CFI 5a4df .cfa: $rsp 48 +
STACK CFI 5a4e0 .cfa: $rsp 40 +
STACK CFI 5a4e2 .cfa: $rsp 32 +
STACK CFI 5a4e4 .cfa: $rsp 24 +
STACK CFI 5a4e6 .cfa: $rsp 16 +
STACK CFI 5a4e8 .cfa: $rsp 8 +
STACK CFI 5a4f0 .cfa: $rsp 144 +
STACK CFI 5a5e4 .cfa: $rsp 56 +
STACK CFI 5a5e7 .cfa: $rsp 48 +
STACK CFI 5a5e8 .cfa: $rsp 40 +
STACK CFI 5a5ea .cfa: $rsp 32 +
STACK CFI 5a5ec .cfa: $rsp 24 +
STACK CFI 5a5ee .cfa: $rsp 16 +
STACK CFI 5a5f0 .cfa: $rsp 8 +
STACK CFI 5a5f1 .cfa: $rsp 144 +
STACK CFI INIT 5a7c0 7b4 .cfa: $rsp 8 + .ra: .cfa -8 + ^
STACK CFI 5a7c2 $r15: .cfa -16 + ^ .cfa: $rsp 16 +
STACK CFI 5a7c4 $r14: .cfa -24 + ^ .cfa: $rsp 24 +
STACK CFI 5a7c6 $r13: .cfa -32 + ^ .cfa: $rsp 32 +
STACK CFI 5a7c8 $r12: .cfa -40 + ^ .cfa: $rsp 40 +
STACK CFI 5a7c9 $rbp: .cfa -48 + ^ .cfa: $rsp 48 +
STACK CFI 5a7ca $rbx: .cfa -56 + ^ .cfa: $rsp 56 +
STACK CFI 5a7d1 .cfa: $rsp 160 +
STACK CFI 5aa4c .cfa: $rsp 56 +
STACK CFI 5aa4d .cfa: $rsp 48 +
STACK CFI 5aa4e .cfa: $rsp 40 +
STACK CFI 5aa50 .cfa: $rsp 32 +
STACK CFI 5aa52 .cfa: $rsp 24 +
STACK CFI 5aa54 .cfa: $rsp 16 +
STACK CFI 5aa56 .cfa: $rsp 8 +
STACK CFI 5aa57 .cfa: $rsp 160 +
STACK CFI 5aa6c .cfa: $rsp 56 +
STACK CFI 5aa6d .cfa: $rsp 48 +
STACK CFI 5aa6e .cfa: $rsp 40 +
STACK CFI 5aa70 .cfa: $rsp 32 +
STACK CFI 5aa72 .cfa: $rsp 24 +
STACK CFI 5aa74 .cfa: $rsp 16 +
STACK CFI 5aa76 .cfa: $rsp 8 +
STACK CFI 5aa77 .cfa: $rsp 160 +
STACK CFI INIT 94e10 94 .cfa: $rsp 8 + .ra: .cfa -8 + ^
STACK CFI 94e12 $r12: .cfa -16 + ^ .cfa: $rsp 16 +
STACK CFI 94e13 $rbp: .cfa -24 + ^ .cfa: $rsp 24 +
STACK CFI 94e14 $rbx: .cfa -32 + ^ .cfa: $rsp 32 +
STACK CFI 94e81 .cfa: $rsp 24 +
STACK CFI 94e82 .cfa: $rsp 16 +
STACK CFI 94e84 .cfa: $rsp 8 +
STACK CFI 94e88 .cfa: $rsp 32 +
STACK CFI 94e89 .cfa: $rsp 24 +
STACK CFI 94e8a .cfa: $rsp 16 +
STACK CFI 94e8c .cfa: $rsp 8 +
STACK CFI 94e98 .cfa: $rsp 32 +
STACK CFI 94e99 .cfa: $rsp 24 +
STACK CFI 94e9d .cfa: $rsp 16 +
STACK CFI 94e9f .cfa: $rsp 8 +
STACK CFI INIT 94eb0 9b .cfa: $rsp 8 + .ra: .cfa -8 + ^
STACK CFI 94eb2 $r12: .cfa -16 + ^ .cfa: $rsp 16 +
STACK CFI 94ebd $rbp: .cfa -24 + ^ .cfa: $rsp 24 +
STACK CFI 94ec1 $rbx: .cfa -32 + ^ .cfa: $rsp 32 +
STACK CFI 94f31 .cfa: $rsp 24 +
STACK CFI 94f35 .cfa: $rsp 16 +
STACK CFI 94f37 .cfa: $rsp 8 +
STACK CFI 94f38 .cfa: $rsp 32 +
STACK CFI INIT 94f50 f4 .cfa: $rsp 8 + .ra: .cfa -8 + ^
STACK CFI 94f52 $r13: .cfa -16 + ^ .cfa: $rsp 16 +
STACK CFI 94f54 $r12: .cfa -24 + ^ .cfa: $rsp 24 +
STACK CFI 94f55 $rbp: .cfa -32 + ^ .cfa: $rsp 32 +
STACK CFI 94f59 $rbx: .cfa -40 + ^ .cfa: $rsp 40 +
STACK CFI 94f60 .cfa: $rsp 64 +
STACK CFI 9501e .cfa: $rsp 40 +
STACK CFI 9501f .cfa: $rsp 32 +
STACK CFI 95020 .cfa: $rsp 24 +
STACK CFI 95022 .cfa: $rsp 16 +
STACK CFI 95028 .cfa: $rsp 8 +
STACK CFI 95030 .cfa: $rsp 64 +
STACK CFI INIT 95050 66 .cfa: $rsp 8 + .ra: .cfa -8 + ^
STACK CFI 95051 $rbx: .cfa -16 + ^ .cfa: $rsp 16 +
STACK CFI 95058 .cfa: $rsp 32 +
STACK CFI 95079 .cfa: $rsp 16 +
STACK CFI 9507a .cfa: $rsp 8 +
STACK CFI 95080 .cfa: $rsp 32 +
STACK CFI 95097 .cfa: $rsp 16 +
STACK CFI 95098 .cfa: $rsp 8 +
STACK CFI 95099 .cfa: $rsp 32 +
STACK CFI INIT 5af80 282 .cfa: $rsp 8 + .ra: .cfa -8 + ^
STACK CFI 5af82 $r14: .cfa -16 + ^ .cfa: $rsp 16 +
STACK CFI 5af84 $r13: .cfa -24 + ^ .cfa: $rsp 24 +
STACK CFI 5af89 $r12: .cfa -32 + ^ .cfa: $rsp 32 +
STACK CFI 5af8a $rbp: .cfa -40 + ^ .cfa: $rsp 40 +
STACK CFI 5af8e $rbx: .cfa -48 + ^ .cfa: $rsp 48 +
STACK CFI 5af95 .cfa: $rsp 128 +
STACK CFI 5b019 .cfa: $rsp 48 +
STACK CFI 5b01a .cfa: $rsp 40 +
STACK CFI 5b01b .cfa: $rsp 32 +
STACK CFI 5b01d .cfa: $rsp 24 +
STACK CFI 5b01f .cfa: $rsp 16 +
STACK CFI 5b021 .cfa: $rsp 8 +
STACK CFI 5b028 .cfa: $rsp 128 +
STACK CFI INIT 950c0 f4 .cfa: $rsp 8 + .ra: .cfa -8 + ^
STACK CFI 950c2 $r13: .cfa -16 + ^ .cfa: $rsp 16 +
STACK CFI 950c4 $r12: .cfa -24 + ^ .cfa: $rsp 24 +
STACK CFI 950c5 $rbp: .cfa -32 + ^ .cfa: $rsp 32 +
STACK CFI 950c9 $rbx: .cfa -40 + ^ .cfa: $rsp 40 +
STACK CFI 950d0 .cfa: $rsp 64 +
STACK CFI 9518e .cfa: $rsp 40 +
STACK CFI 9518f .cfa: $rsp 32 +
STACK CFI 95190 .cfa: $rsp 24 +
STACK CFI 95192 .cfa: $rsp 16 +
STACK CFI 95198 .cfa: $rsp 8 +
STACK CFI 951a0 .cfa: $rsp 64 +
STACK CFI INIT 951c0 66 .cfa: $rsp 8 + .ra: .cfa -8 + ^
STACK CFI 951c1 $rbx: .cfa -16 + ^ .cfa: $rsp 16 +
STACK CFI 951c8 .cfa: $rsp 32 +
STACK CFI 951e9 .cfa: $rsp 16 +
STACK CFI 951ea .cfa: $rsp 8 +
STACK CFI 951f0 .cfa: $rsp 32 +
STACK CFI 95207 .cfa: $rsp 16 +
STACK CFI 95208 .cfa: $rsp 8 +
STACK CFI 95209 .cfa: $rsp 32 +
STACK CFI INIT 95230 77 .cfa: $rsp 8 + .ra: .cfa -8 + ^
STACK CFI 95231 $rbp: .cfa -16 + ^ .cfa: $rsp 16 +
STACK CFI 95235 $rbx: .cfa -24 + ^ .cfa: $rsp 24 +
STACK CFI 9523c .cfa: $rsp 32 +
STACK CFI 95258 .cfa: $rsp 24 +
STACK CFI 95259 .cfa: $rsp 16 +
STACK CFI 9525a .cfa: $rsp 8 +
STACK CFI 95260 .cfa: $rsp 32 +
STACK CFI 9529c .cfa: $rsp 24 +
STACK CFI 952a1 .cfa: $rsp 16 +
STACK CFI 952a2 .cfa: $rsp 8 +
STACK CFI INIT 5b210 ef .cfa: $rsp 8 + .ra: .cfa -8 + ^
STACK CFI 5b212 $r12: .cfa -16 + ^ .cfa: $rsp 16 +
STACK CFI 5b217 $rbp: .cfa -24 + ^ .cfa: $rsp 24 +
STACK CFI 5b218 $rbx: .cfa -32 + ^ .cfa: $rsp 32 +
STACK CFI 5b21f .cfa: $rsp 80 +
STACK CFI 5b2bf .cfa: $rsp 32 +
STACK CFI 5b2c3 .cfa: $rsp 24 +
STACK CFI 5b2c4 .cfa: $rsp 16 +
STACK CFI 5b2c6 .cfa: $rsp 8 +
STACK CFI 5b2c7 .cfa: $rsp 80 +
STACK CFI INIT 5b300 273 .cfa: $rsp 8 + .ra: .cfa -8 + ^
STACK CFI 5b302 $r14: .cfa -16 + ^ .cfa: $rsp 16 +
STACK CFI 5b304 $r13: .cfa -24 + ^ .cfa: $rsp 24 +
STACK CFI 5b309 $r12: .cfa -32 + ^ .cfa: $rsp 32 +
STACK CFI 5b30d $rbp: .cfa -40 + ^ .cfa: $rsp 40 +
STACK CFI 5b315 $rbx: .cfa -48 + ^ .cfa: $rsp 48 +
STACK CFI 5b319 .cfa: $rsp 160 +
STACK CFI 5b554 .cfa: $rsp 48 +
STACK CFI 5b558 .cfa: $rsp 40 +
STACK CFI 5b559 .cfa: $rsp 32 +
STACK CFI 5b55b .cfa: $rsp 24 +
STACK CFI 5b55d .cfa: $rsp 16 +
STACK CFI 5b55f .cfa: $rsp 8 +
STACK CFI 5b560 .cfa: $rsp 160 +
STACK CFI INIT 952b0 77 .cfa: $rsp 8 + .ra: .cfa -8 + ^
STACK CFI 952b1 $rbp: .cfa -16 + ^ .cfa: $rsp 16 +
STACK CFI 952b5 $rbx: .cfa -24 + ^ .cfa: $rsp 24 +
STACK CFI 952bc .cfa: $rsp 32 +
STACK CFI 952d8 .cfa: $rsp 24 +
STACK CFI 952d9 .cfa: $rsp 16 +
STACK CFI 952da .cfa: $rsp 8 +
STACK CFI 952e0 .cfa: $rsp 32 +
STACK CFI 9531c .cfa: $rsp 24 +
STACK CFI 95321 .cfa: $rsp 16 +
STACK CFI 95322 .cfa: $rsp 8 +
STACK CFI INIT 5b580 f4 .cfa: $rsp 8 + .ra: .cfa -8 + ^
STACK CFI 5b582 $r12: .cfa -16 + ^ .cfa: $rsp 16 +
STACK CFI 5b58a $rbp: .cfa -24 + ^ .cfa: $rsp 24 +
STACK CFI 5b58b $rbx: .cfa -32 + ^ .cfa: $rsp 32 +
STACK CFI 5b592 .cfa: $rsp 80 +
STACK CFI 5b634 .cfa: $rsp 32 +
STACK CFI 5b638 .cfa: $rsp 24 +
STACK CFI 5b639 .cfa: $rsp 16 +
STACK CFI 5b63b .cfa: $rsp 8 +
STACK CFI 5b63c .cfa: $rsp 80 +
STACK CFI INIT 5b680 1eb .cfa: $rsp 8 + .ra: .cfa -8 + ^
STACK CFI 5b682 $r14: .cfa -16 + ^ .cfa: $rsp 16 +
STACK CFI 5b684 $r13: .cfa -24 + ^ .cfa: $rsp 24 +
STACK CFI 5b689 $r12: .cfa -32 + ^ .cfa: $rsp 32 +
STACK CFI 5b694 $rbp: .cfa -40 + ^ .cfa: $rsp 40 +
STACK CFI 5b697 $rbx: .cfa -48 + ^ .cfa: $rsp 48 +
STACK CFI 5b69b .cfa: $rsp 128 +
STACK CFI 5b84c .cfa: $rsp 48 +
STACK CFI 5b850 .cfa: $rsp 40 +
STACK CFI 5b851 .cfa: $rsp 32 +
STACK CFI 5b853 .cfa: $rsp 24 +
STACK CFI 5b855 .cfa: $rsp 16 +
STACK CFI 5b857 .cfa: $rsp 8 +
STACK CFI 5b858 .cfa: $rsp 128 +
STACK CFI INIT 95330 77 .cfa: $rsp 8 + .ra: .cfa -8 + ^
STACK CFI 95331 $rbp: .cfa -16 + ^ .cfa: $rsp 16 +
STACK CFI 95335 $rbx: .cfa -24 + ^ .cfa: $rsp 24 +
STACK CFI 9533c .cfa: $rsp 32 +
STACK CFI 95358 .cfa: $rsp 24 +
STACK CFI 95359 .cfa: $rsp 16 +
STACK CFI 9535a .cfa: $rsp 8 +
STACK CFI 95360 .cfa: $rsp 32 +
STACK CFI 9539c .cfa: $rsp 24 +
STACK CFI 953a1 .cfa: $rsp 16 +
STACK CFI 953a2 .cfa: $rsp 8 +
STACK CFI INIT 5b870 142 .cfa: $rsp 8 + .ra: .cfa -8 + ^
STACK CFI 5b872 $r14: .cfa -16 + ^ .cfa: $rsp 16 +
STACK CFI 5b874 $r13: .cfa -24 + ^ .cfa: $rsp 24 +
STACK CFI 5b876 $r12: .cfa -32 + ^ .cfa: $rsp 32 +
STACK CFI 5b877 $rbp: .cfa -40 + ^ .cfa: $rsp 40 +
STACK CFI 5b882 $rbx: .cfa -48 + ^ .cfa: $rsp 48 +
STACK CFI 5b886 .cfa: $rsp 96 +
STACK CFI 5b96c .cfa: $rsp 48 +
STACK CFI 5b970 .cfa: $rsp 40 +
STACK CFI 5b971 .cfa: $rsp 32 +
STACK CFI 5b973 .cfa: $rsp 24 +
STACK CFI 5b975 .cfa: $rsp 16 +
STACK CFI 5b977 .cfa: $rsp 8 +
STACK CFI 5b980 .cfa: $rsp 96 +
STACK CFI 5b98c .cfa: $rsp 48 +
STACK CFI 5b98f .cfa: $rsp 40 +
STACK CFI 5b990 .cfa: $rsp 32 +
STACK CFI 5b992 .cfa: $rsp 24 +
STACK CFI 5b994 .cfa: $rsp 16 +
STACK CFI 5b996 .cfa: $rsp 8 +
STACK CFI 5b997 .cfa: $rsp 96 +
STACK CFI INIT 5b9c0 16a .cfa: $rsp 8 + .ra: .cfa -8 + ^
STACK CFI 5b9c2 $r12: .cfa -16 + ^ .cfa: $rsp 16 +
STACK CFI 5b9ca $rbp: .cfa -24 + ^ .cfa: $rsp 24 +
STACK CFI 5b9cb $rbx: .cfa -32 + ^ .cfa: $rsp 32 +
STACK CFI 5b9cf .cfa: $rsp 112 +
STACK CFI 5bb15 .cfa: $rsp 32 +
STACK CFI 5bb16 .cfa: $rsp 24 +
STACK CFI 5bb17 .cfa: $rsp 16 +
STACK CFI 5bb19 .cfa: $rsp 8 +
STACK CFI 5bb1a .cfa: $rsp 112 +
STACK CFI INIT 953b0 77 .cfa: $rsp 8 + .ra: .cfa -8 + ^
STACK CFI 953b1 $rbp: .cfa -16 + ^ .cfa: $rsp 16 +
STACK CFI 953b5 $rbx: .cfa -24 + ^ .cfa: $rsp 24 +
STACK CFI 953bc .cfa: $rsp 32 +
STACK CFI 953d8 .cfa: $rsp 24 +
STACK CFI 953d9 .cfa: $rsp 16 +
STACK CFI 953da .cfa: $rsp 8 +
STACK CFI 953e0 .cfa: $rsp 32 +
STACK CFI 9541c .cfa: $rsp 24 +
STACK CFI 95421 .cfa: $rsp 16 +
STACK CFI 95422 .cfa: $rsp 8 +
STACK CFI INIT 95430 f4 .cfa: $rsp 8 + .ra: .cfa -8 + ^
STACK CFI 95432 $r13: .cfa -16 + ^ .cfa: $rsp 16 +
STACK CFI 95434 $r12: .cfa -24 + ^ .cfa: $rsp 24 +
STACK CFI 95435 $rbp: .cfa -32 + ^ .cfa: $rsp 32 +
STACK CFI 95439 $rbx: .cfa -40 + ^ .cfa: $rsp 40 +
STACK CFI 95440 .cfa: $rsp 64 +
STACK CFI 954fe .cfa: $rsp 40 +
STACK CFI 954ff .cfa: $rsp 32 +
STACK CFI 95500 .cfa: $rsp 24 +
STACK CFI 95502 .cfa: $rsp 16 +
STACK CFI 95508 .cfa: $rsp 8 +
STACK CFI 95510 .cfa: $rsp 64 +
STACK CFI INIT 95530 66 .cfa: $rsp 8 + .ra: .cfa -8 + ^
STACK CFI 95531 $rbx: .cfa -16 + ^ .cfa: $rsp 16 +
STACK CFI 95538 .cfa: $rsp 32 +
STACK CFI 95559 .cfa: $rsp 16 +
STACK CFI 9555a .cfa: $rsp 8 +
STACK CFI 95560 .cfa: $rsp 32 +
STACK CFI 95577 .cfa: $rsp 16 +
STACK CFI 95578 .cfa: $rsp 8 +
STACK CFI 95579 .cfa: $rsp 32 +
STACK CFI INIT 955a0 c8 .cfa: $rsp 8 + .ra: .cfa -8 + ^
STACK CFI 955a2 $r12: .cfa -16 + ^ .cfa: $rsp 16 +
STACK CFI 955a3 $rbp: .cfa -24 + ^ .cfa: $rsp 24 +
STACK CFI 955a7 $rbx: .cfa -32 + ^ .cfa: $rsp 32 +
STACK CFI 955ae .cfa: $rsp 48 +
STACK CFI 95605 .cfa: $rsp 32 +
STACK CFI 95609 .cfa: $rsp 24 +
STACK CFI 9560a .cfa: $rsp 16 +
STACK CFI 9560c .cfa: $rsp 8 +
STACK CFI 95610 .cfa: $rsp 48 +
STACK CFI 95620 .cfa: $rsp 32 +
STACK CFI 95624 .cfa: $rsp 24 +
STACK CFI 95625 .cfa: $rsp 16 +
STACK CFI 95627 .cfa: $rsp 8 +
STACK CFI 95630 .cfa: $rsp 48 +
STACK CFI INIT 95670 f4 .cfa: $rsp 8 + .ra: .cfa -8 + ^
STACK CFI 95672 $r13: .cfa -16 + ^ .cfa: $rsp 16 +
STACK CFI 95674 $r12: .cfa -24 + ^ .cfa: $rsp 24 +
STACK CFI 95675 $rbp: .cfa -32 + ^ .cfa: $rsp 32 +
STACK CFI 95679 $rbx: .cfa -40 + ^ .cfa: $rsp 40 +
STACK CFI 95680 .cfa: $rsp 64 +
STACK CFI 9573e .cfa: $rsp 40 +
STACK CFI 9573f .cfa: $rsp 32 +
STACK CFI 95740 .cfa: $rsp 24 +
STACK CFI 95742 .cfa: $rsp 16 +
STACK CFI 95748 .cfa: $rsp 8 +
STACK CFI 95750 .cfa: $rsp 64 +
STACK CFI INIT 95770 66 .cfa: $rsp 8 + .ra: .cfa -8 + ^
STACK CFI 95771 $rbx: .cfa -16 + ^ .cfa: $rsp 16 +
STACK CFI 95778 .cfa: $rsp 32 +
STACK CFI 95799 .cfa: $rsp 16 +
STACK CFI 9579a .cfa: $rsp 8 +
STACK CFI 957a0 .cfa: $rsp 32 +
STACK CFI 957b7 .cfa: $rsp 16 +
STACK CFI 957b8 .cfa: $rsp 8 +
STACK CFI 957b9 .cfa: $rsp 32 +
STACK CFI INIT 957e0 1bb .cfa: $rsp 8 + .ra: .cfa -8 + ^
STACK CFI 957e2 $r13: .cfa -16 + ^ .cfa: $rsp 16 +
STACK CFI 957e4 $r12: .cfa -24 + ^ .cfa: $rsp 24 +
STACK CFI 957e8 $rbp: .cfa -32 + ^ .cfa: $rsp 32 +
STACK CFI 957ec $rbx: .cfa -40 + ^ .cfa: $rsp 40 +
STACK CFI 957f0 .cfa: $rsp 48 +
STACK CFI 9588d .cfa: $rsp 40 +
STACK CFI 9588e .cfa: $rsp 32 +
STACK CFI 9588f .cfa: $rsp 24 +
STACK CFI 95891 .cfa: $rsp 16 +
STACK CFI 95893 .cfa: $rsp 8 +
STACK CFI 95898 .cfa: $rsp 48 +
STACK CFI 958c5 .cfa: $rsp 40 +
STACK CFI 958c6 .cfa: $rsp 32 +
STACK CFI 958c7 .cfa: $rsp 24 +
STACK CFI 958c9 .cfa: $rsp 16 +
STACK CFI 958cb .cfa: $rsp 8 +
STACK CFI 958cc .cfa: $rsp 48 +
STACK CFI INIT 959a0 3a .cfa: $rsp 8 + .ra: .cfa -8 + ^
STACK CFI 959a4 .cfa: $rsp 16 +
STACK CFI 959d9 .cfa: $rsp 8 +
STACK CFI INIT 5bb30 58 .cfa: $rsp 8 + .ra: .cfa -8 + ^
STACK CFI 5bb31 $rbp: .cfa -16 + ^ .cfa: $rsp 16 +
STACK CFI 5bb35 $rbx: .cfa -24 + ^ .cfa: $rsp 24 +
STACK CFI 5bb3b .cfa: $rsp 32 +
STACK CFI 5bb77 .cfa: $rsp 24 +
STACK CFI 5bb7b .cfa: $rsp 16 +
STACK CFI 5bb7c .cfa: $rsp 8 +
STACK CFI 5bb80 .cfa: $rsp 32 +
STACK CFI INIT 959e0 82 .cfa: $rsp 8 + .ra: .cfa -8 + ^
STACK CFI INIT 5bb90 166 .cfa: $rsp 8 + .ra: .cfa -8 + ^
STACK CFI 5bb92 $r14: .cfa -16 + ^ .cfa: $rsp 16 +
STACK CFI 5bb94 $r13: .cfa -24 + ^ .cfa: $rsp 24 +
STACK CFI 5bb96 $r12: .cfa -32 + ^ .cfa: $rsp 32 +
STACK CFI 5bb97 $rbp: .cfa -40 + ^ .cfa: $rsp 40 +
STACK CFI 5bb98 $rbx: .cfa -48 + ^ .cfa: $rsp 48 +
STACK CFI 5bb9f .cfa: $rsp 80 +
STACK CFI 5bc9c .cfa: $rsp 48 +
STACK CFI 5bc9d .cfa: $rsp 40 +
STACK CFI 5bc9e .cfa: $rsp 32 +
STACK CFI 5bca0 .cfa: $rsp 24 +
STACK CFI 5bca2 .cfa: $rsp 16 +
STACK CFI 5bca4 .cfa: $rsp 8 +
STACK CFI 5bca5 .cfa: $rsp 80 +
STACK CFI INIT 5bd00 7f .cfa: $rsp 8 + .ra: .cfa -8 + ^
STACK CFI 5bd01 $rbp: .cfa -16 + ^ .cfa: $rsp 16 +
STACK CFI 5bd02 $rbx: .cfa -24 + ^ .cfa: $rsp 24 +
STACK CFI 5bd09 .cfa: $rsp 64 +
STACK CFI 5bd3e .cfa: $rsp 24 +
STACK CFI 5bd41 .cfa: $rsp 16 +
STACK CFI 5bd42 .cfa: $rsp 8 +
STACK CFI 5bd48 .cfa: $rsp 64 +
STACK CFI INIT 5bd80 16f .cfa: $rsp 8 + .ra: .cfa -8 + ^
STACK CFI 5bd82 $r13: .cfa -16 + ^ .cfa: $rsp 16 +
STACK CFI 5bd84 $r12: .cfa -24 + ^ .cfa: $rsp 24 +
STACK CFI 5bd85 $rbp: .cfa -32 + ^ .cfa: $rsp 32 +
STACK CFI 5bd89 $rbx: .cfa -40 + ^ .cfa: $rsp 40 +
STACK CFI 5bd90 .cfa: $rsp 128 +
STACK CFI 5be6d .cfa: $rsp 40 +
STACK CFI 5be71 .cfa: $rsp 32 +
STACK CFI 5be72 .cfa: $rsp 24 +
STACK CFI 5be74 .cfa: $rsp 16 +
STACK CFI 5be76 .cfa: $rsp 8 +
STACK CFI 5be80 .cfa: $rsp 128 +
STACK CFI INIT 5bef0 2d4 .cfa: $rsp 8 + .ra: .cfa -8 + ^
STACK CFI 5bef2 $r14: .cfa -16 + ^ .cfa: $rsp 16 +
STACK CFI 5bef6 $r13: .cfa -24 + ^ .cfa: $rsp 24 +
STACK CFI 5bef8 $r12: .cfa -32 + ^ .cfa: $rsp 32 +
STACK CFI 5bef9 $rbp: .cfa -40 + ^ .cfa: $rsp 40 +
STACK CFI 5befd $rbx: .cfa -48 + ^ .cfa: $rsp 48 +
STACK CFI 5bf03 .cfa: $rsp 128 +
STACK CFI 5c091 .cfa: $rsp 48 +
STACK CFI 5c094 .cfa: $rsp 40 +
STACK CFI 5c095 .cfa: $rsp 32 +
STACK CFI 5c097 .cfa: $rsp 24 +
STACK CFI 5c099 .cfa: $rsp 16 +
STACK CFI 5c09b .cfa: $rsp 8 +
STACK CFI 5c0a0 .cfa: $rsp 128 +
STACK CFI INIT 5c1d0 276 .cfa: $rsp 8 + .ra: .cfa -8 + ^
STACK CFI 5c1d2 $r14: .cfa -16 + ^ .cfa: $rsp 16 +
STACK CFI 5c1d4 $r13: .cfa -24 + ^ .cfa: $rsp 24 +
STACK CFI 5c1d6 $r12: .cfa -32 + ^ .cfa: $rsp 32 +
STACK CFI 5c1da $rbp: .cfa -40 + ^ .cfa: $rsp 40 +
STACK CFI 5c1dd $rbx: .cfa -48 + ^ .cfa: $rsp 48 +
STACK CFI 5c1e4 .cfa: $rsp 112 +
STACK CFI 5c210 .cfa: $rsp 48 +
STACK CFI 5c214 .cfa: $rsp 40 +
STACK CFI 5c215 .cfa: $rsp 32 +
STACK CFI 5c217 .cfa: $rsp 24 +
STACK CFI 5c219 .cfa: $rsp 16 +
STACK CFI 5c21b .cfa: $rsp 8 +
STACK CFI 5c220 .cfa: $rsp 112 +
STACK CFI 5c315 .cfa: $rsp 48 +
STACK CFI 5c319 .cfa: $rsp 40 +
STACK CFI 5c31a .cfa: $rsp 32 +
STACK CFI 5c31c .cfa: $rsp 24 +
STACK CFI 5c31e .cfa: $rsp 16 +
STACK CFI 5c320 .cfa: $rsp 8 +
STACK CFI 5c328 .cfa: $rsp 112 +
STACK CFI INIT 95a70 f4 .cfa: $rsp 8 + .ra: .cfa -8 + ^
STACK CFI 95a72 $r13: .cfa -16 + ^ .cfa: $rsp 16 +
STACK CFI 95a74 $r12: .cfa -24 + ^ .cfa: $rsp 24 +
STACK CFI 95a75 $rbp: .cfa -32 + ^ .cfa: $rsp 32 +
STACK CFI 95a79 $rbx: .cfa -40 + ^ .cfa: $rsp 40 +
STACK CFI 95a80 .cfa: $rsp 64 +
STACK CFI 95b3e .cfa: $rsp 40 +
STACK CFI 95b3f .cfa: $rsp 32 +
STACK CFI 95b40 .cfa: $rsp 24 +
STACK CFI 95b42 .cfa: $rsp 16 +
STACK CFI 95b48 .cfa: $rsp 8 +
STACK CFI 95b50 .cfa: $rsp 64 +
STACK CFI INIT 95b70 66 .cfa: $rsp 8 + .ra: .cfa -8 + ^
STACK CFI 95b71 $rbx: .cfa -16 + ^ .cfa: $rsp 16 +
STACK CFI 95b78 .cfa: $rsp 32 +
STACK CFI 95b99 .cfa: $rsp 16 +
STACK CFI 95b9a .cfa: $rsp 8 +
STACK CFI 95ba0 .cfa: $rsp 32 +
STACK CFI 95bb7 .cfa: $rsp 16 +
STACK CFI 95bb8 .cfa: $rsp 8 +
STACK CFI 95bb9 .cfa: $rsp 32 +
STACK CFI INIT 5c450 89 .cfa: $rsp 8 + .ra: .cfa -8 + ^
STACK CFI 5c452 $r13: .cfa -16 + ^ .cfa: $rsp 16 +
STACK CFI 5c454 $r12: .cfa -24 + ^ .cfa: $rsp 24 +
STACK CFI 5c458 $rbp: .cfa -32 + ^ .cfa: $rsp 32 +
STACK CFI 5c45c $rbx: .cfa -40 + ^ .cfa: $rsp 40 +
STACK CFI 5c462 .cfa: $rsp 64 +
STACK CFI 5c4bc .cfa: $rsp 40 +
STACK CFI 5c4c0 .cfa: $rsp 32 +
STACK CFI 5c4c1 .cfa: $rsp 24 +
STACK CFI 5c4c3 .cfa: $rsp 16 +
STACK CFI 5c4c5 .cfa: $rsp 8 +
STACK CFI 5c4c6 .cfa: $rsp 64 +
STACK CFI INIT 95be0 f4 .cfa: $rsp 8 + .ra: .cfa -8 + ^
STACK CFI 95be2 $r13: .cfa -16 + ^ .cfa: $rsp 16 +
STACK CFI 95be4 $r12: .cfa -24 + ^ .cfa: $rsp 24 +
STACK CFI 95be5 $rbp: .cfa -32 + ^ .cfa: $rsp 32 +
STACK CFI 95be9 $rbx: .cfa -40 + ^ .cfa: $rsp 40 +
STACK CFI 95bf0 .cfa: $rsp 64 +
STACK CFI 95cae .cfa: $rsp 40 +
STACK CFI 95caf .cfa: $rsp 32 +
STACK CFI 95cb0 .cfa: $rsp 24 +
STACK CFI 95cb2 .cfa: $rsp 16 +
STACK CFI 95cb8 .cfa: $rsp 8 +
STACK CFI 95cc0 .cfa: $rsp 64 +
STACK CFI INIT 95ce0 66 .cfa: $rsp 8 + .ra: .cfa -8 + ^
STACK CFI 95ce1 $rbx: .cfa -16 + ^ .cfa: $rsp 16 +
STACK CFI 95ce8 .cfa: $rsp 32 +
STACK CFI 95d09 .cfa: $rsp 16 +
STACK CFI 95d0a .cfa: $rsp 8 +
STACK CFI 95d10 .cfa: $rsp 32 +
STACK CFI 95d27 .cfa: $rsp 16 +
STACK CFI 95d28 .cfa: $rsp 8 +
STACK CFI 95d29 .cfa: $rsp 32 +
STACK CFI INIT 5c4e0 b1 .cfa: $rsp 8 + .ra: .cfa -8 + ^
STACK CFI 5c4e2 $r13: .cfa -16 + ^ .cfa: $rsp 16 +
STACK CFI 5c4e4 $r12: .cfa -24 + ^ .cfa: $rsp 24 +
STACK CFI 5c4e8 $rbp: .cfa -32 + ^ .cfa: $rsp 32 +
STACK CFI 5c4ec $rbx: .cfa -40 + ^ .cfa: $rsp 40 +
STACK CFI 5c4f2 .cfa: $rsp 64 +
STACK CFI 5c574 .cfa: $rsp 40 +
STACK CFI 5c578 .cfa: $rsp 32 +
STACK CFI 5c579 .cfa: $rsp 24 +
STACK CFI 5c57b .cfa: $rsp 16 +
STACK CFI 5c57d .cfa: $rsp 8 +
STACK CFI 5c57e .cfa: $rsp 64 +
STACK CFI INIT 5c5a0 378 .cfa: $rsp 8 + .ra: .cfa -8 + ^
STACK CFI 5c5a2 $r15: .cfa -16 + ^ .cfa: $rsp 16 +
STACK CFI 5c5a4 $r14: .cfa -24 + ^ .cfa: $rsp 24 +
STACK CFI 5c5a6 $r13: .cfa -32 + ^ .cfa: $rsp 32 +
STACK CFI 5c5ab $r12: .cfa -40 + ^ .cfa: $rsp 40 +
STACK CFI 5c5b2 $rbp: .cfa -48 + ^ .cfa: $rsp 48 +
STACK CFI 5c5b3 $rbx: .cfa -56 + ^ .cfa: $rsp 56 +
STACK CFI 5c5b7 .cfa: $rsp 144 +
STACK CFI 5c793 .cfa: $rsp 56 +
STACK CFI 5c794 .cfa: $rsp 48 +
STACK CFI 5c795 .cfa: $rsp 40 +
STACK CFI 5c797 .cfa: $rsp 32 +
STACK CFI 5c799 .cfa: $rsp 24 +
STACK CFI 5c79b .cfa: $rsp 16 +
STACK CFI 5c79d .cfa: $rsp 8 +
STACK CFI 5c7a0 .cfa: $rsp 144 +
STACK CFI INIT 95d50 1bb .cfa: $rsp 8 + .ra: .cfa -8 + ^
STACK CFI 95d52 $r13: .cfa -16 + ^ .cfa: $rsp 16 +
STACK CFI 95d54 $r12: .cfa -24 + ^ .cfa: $rsp 24 +
STACK CFI 95d58 $rbp: .cfa -32 + ^ .cfa: $rsp 32 +
STACK CFI 95d5c $rbx: .cfa -40 + ^ .cfa: $rsp 40 +
STACK CFI 95d60 .cfa: $rsp 48 +
STACK CFI 95dfd .cfa: $rsp 40 +
STACK CFI 95dfe .cfa: $rsp 32 +
STACK CFI 95dff .cfa: $rsp 24 +
STACK CFI 95e01 .cfa: $rsp 16 +
STACK CFI 95e03 .cfa: $rsp 8 +
STACK CFI 95e08 .cfa: $rsp 48 +
STACK CFI 95e35 .cfa: $rsp 40 +
STACK CFI 95e36 .cfa: $rsp 32 +
STACK CFI 95e37 .cfa: $rsp 24 +
STACK CFI 95e39 .cfa: $rsp 16 +
STACK CFI 95e3b .cfa: $rsp 8 +
STACK CFI 95e3c .cfa: $rsp 48 +
STACK CFI INIT 95f10 94 .cfa: $rsp 8 + .ra: .cfa -8 + ^
STACK CFI 95f11 $rbp: .cfa -16 + ^ .cfa: $rsp 16 +
STACK CFI 95f12 $rbx: .cfa -24 + ^ .cfa: $rsp 24 +
STACK CFI 95f19 .cfa: $rsp 32 +
STACK CFI 95f68 .cfa: $rsp 24 +
STACK CFI 95f69 .cfa: $rsp 16 +
STACK CFI 95f6a .cfa: $rsp 8 +
STACK CFI 95f70 .cfa: $rsp 32 +
STACK CFI 95fa1 .cfa: $rsp 24 +
STACK CFI 95fa2 .cfa: $rsp 16 +
STACK CFI 95fa3 .cfa: $rsp 8 +
STACK CFI INIT 95fb0 53 .cfa: $rsp 8 + .ra: .cfa -8 + ^
STACK CFI INIT 96010 24b .cfa: $rsp 8 + .ra: .cfa -8 + ^
STACK CFI 96012 $r13: .cfa -16 + ^ .cfa: $rsp 16 +
STACK CFI 96014 $r12: .cfa -24 + ^ .cfa: $rsp 24 +
STACK CFI 96015 $rbp: .cfa -32 + ^ .cfa: $rsp 32 +
STACK CFI 96019 $rbx: .cfa -40 + ^ .cfa: $rsp 40 +
STACK CFI 9601d .cfa: $rsp 48 +
STACK CFI 96152 .cfa: $rsp 40 +
STACK CFI 96153 .cfa: $rsp 32 +
STACK CFI 96154 .cfa: $rsp 24 +
STACK CFI 96156 .cfa: $rsp 16 +
STACK CFI 96158 .cfa: $rsp 8 +
STACK CFI 96159 .cfa: $rsp 48 +
STACK CFI 961d5 .cfa: $rsp 40 +
STACK CFI 961d6 .cfa: $rsp 32 +
STACK CFI 961d7 .cfa: $rsp 24 +
STACK CFI 961d9 .cfa: $rsp 16 +
STACK CFI 961db .cfa: $rsp 8 +
STACK CFI 961e0 .cfa: $rsp 48 +
STACK CFI INIT 96260 43 .cfa: $rsp 8 + .ra: .cfa -8 + ^
STACK CFI 96264 $rbx: .cfa -16 + ^ .cfa: $rsp 16 +
STACK CFI 96279 .cfa: $rsp 8 +
STACK CFI 96280 .cfa: $rsp 16 +
STACK CFI 96285 .cfa: $rsp 8 +
STACK CFI 96290 .cfa: $rsp 16 +
STACK CFI INIT 962b0 3a .cfa: $rsp 8 + .ra: .cfa -8 + ^
STACK CFI 962b4 .cfa: $rsp 16 +
STACK CFI 962e9 .cfa: $rsp 8 +
STACK CFI INIT 962f0 d8 .cfa: $rsp 8 + .ra: .cfa -8 + ^
STACK CFI 962f1 $rbx: .cfa -16 + ^ .cfa: $rsp 16 +
STACK CFI 962f8 .cfa: $rsp 32 +
STACK CFI 96376 .cfa: $rsp 16 +
STACK CFI 96377 .cfa: $rsp 8 +
STACK CFI 96380 .cfa: $rsp 32 +
STACK CFI 963c6 .cfa: $rsp 16 +
STACK CFI 963c7 .cfa: $rsp 8 +
STACK CFI INIT 5c920 356 .cfa: $rsp 8 + .ra: .cfa -8 + ^
STACK CFI 5c926 $rbp: .cfa -16 + ^ .cfa: $rsp 16 +
STACK CFI 5c934 $rbx: .cfa -24 + ^ .cfa: $rsp 24 +
STACK CFI 5c93f .cfa: $rsp 80 +
STACK CFI 5c993 .cfa: $rsp 24 +
STACK CFI 5c994 $rbx: $rbx .cfa: $rsp 16 +
STACK CFI 5c995 $rbp: $rbp .cfa: $rsp 8 +
STACK CFI 5c9a0 $rbp: .cfa -16 + ^ $rbx: .cfa -24 + ^ .cfa: $rsp 80 +
STACK CFI 5ca08 .cfa: $rsp 24 +
STACK CFI 5ca09 $rbx: $rbx .cfa: $rsp 16 +
STACK CFI 5ca0a $rbp: $rbp .cfa: $rsp 8 +
STACK CFI 5ca10 $rbp: .cfa -16 + ^ $rbx: .cfa -24 + ^ .cfa: $rsp 80 +
STACK CFI 5cb11 .cfa: $rsp 24 +
STACK CFI 5cb12 $rbx: $rbx .cfa: $rsp 16 +
STACK CFI 5cb13 $rbp: $rbp .cfa: $rsp 8 +
STACK CFI 5cb20 $rbp: .cfa -16 + ^ $rbx: .cfa -24 + ^ .cfa: $rsp 80 +
STACK CFI INIT 963d0 43 .cfa: $rsp 8 + .ra: .cfa -8 + ^
STACK CFI 963d1 $rbx: .cfa -16 + ^ .cfa: $rsp 16 +
STACK CFI 963f2 .cfa: $rsp 8 +
STACK CFI 963f8 .cfa: $rsp 16 +
STACK CFI 96412 .cfa: $rsp 8 +
STACK CFI INIT 96420 5b .cfa: $rsp 8 + .ra: .cfa -8 + ^
STACK CFI 96421 $rbx: .cfa -16 + ^ .cfa: $rsp 16 +
STACK CFI 96450 .cfa: $rsp 8 +
STACK CFI 96460 .cfa: $rsp 16 +
STACK CFI INIT 5cc80 ee5 .cfa: $rsp 8 + .ra: .cfa -8 + ^
STACK CFI 5cc82 $r12: .cfa -16 + ^ .cfa: $rsp 16 +
STACK CFI 5cc83 $rbp: .cfa -24 + ^ .cfa: $rsp 24 +
STACK CFI 5cc84 $rbx: .cfa -32 + ^ .cfa: $rsp 32 +
STACK CFI 5cc8b .cfa: $rsp 96 +
STACK CFI 5cd3b .cfa: $rsp 32 +
STACK CFI 5cd3f .cfa: $rsp 24 +
STACK CFI 5cd40 .cfa: $rsp 16 +
STACK CFI 5cd42 .cfa: $rsp 8 +
STACK CFI 5cd48 .cfa: $rsp 96 +
STACK CFI 5ceb0 .cfa: $rsp 32 +
STACK CFI 5ceb4 .cfa: $rsp 24 +
STACK CFI 5ceb5 .cfa: $rsp 16 +
STACK CFI 5ceb7 .cfa: $rsp 8 +
STACK CFI 5cec0 .cfa: $rsp 96 +
STACK CFI 5cf43 .cfa: $rsp 32 +
STACK CFI 5cf47 .cfa: $rsp 24 +
STACK CFI 5cf48 .cfa: $rsp 16 +
STACK CFI 5cf4a .cfa: $rsp 8 +
STACK CFI 5cf50 .cfa: $rsp 96 +
STACK CFI INIT 96480 b5 .cfa: $rsp 8 + .ra: .cfa -8 + ^
STACK CFI 96482 $r13: .cfa -16 + ^ .cfa: $rsp 16 +
STACK CFI 9648a $r12: .cfa -24 + ^ .cfa: $rsp 24 +
STACK CFI 9648f $rbp: .cfa -32 + ^ .cfa: $rsp 32 +
STACK CFI 96493 $rbx: .cfa -40 + ^ .cfa: $rsp 40 +
STACK CFI 9649d .cfa: $rsp 48 +
STACK CFI 964c9 .cfa: $rsp 40 +
STACK CFI 964ca .cfa: $rsp 32 +
STACK CFI 964cb .cfa: $rsp 24 +
STACK CFI 964cd .cfa: $rsp 16 +
STACK CFI 964cf .cfa: $rsp 8 +
STACK CFI 964d0 .cfa: $rsp 48 +
STACK CFI 96524 .cfa: $rsp 40 +
STACK CFI 96525 .cfa: $rsp 32 +
STACK CFI 96526 .cfa: $rsp 24 +
STACK CFI 96528 .cfa: $rsp 16 +
STACK CFI 9652a .cfa: $rsp 8 +
STACK CFI 96530 .cfa: $rsp 48 +
STACK CFI INIT 5db70 ad .cfa: $rsp 8 + .ra: .cfa -8 + ^
STACK CFI 5db72 $r13: .cfa -16 + ^ .cfa: $rsp 16 +
STACK CFI 5db74 $r12: .cfa -24 + ^ .cfa: $rsp 24 +
STACK CFI 5db7b $rbp: .cfa -32 + ^ .cfa: $rsp 32 +
STACK CFI 5db7c $rbx: .cfa -40 + ^ .cfa: $rsp 40 +
STACK CFI 5db83 .cfa: $rsp 48 +
STACK CFI 5dbad .cfa: $rsp 40 +
STACK CFI 5dbae .cfa: $rsp 32 +
STACK CFI 5dbaf .cfa: $rsp 24 +
STACK CFI 5dbb1 .cfa: $rsp 16 +
STACK CFI 5dbb3 .cfa: $rsp 8 +
STACK CFI 5dbb8 .cfa: $rsp 48 +
STACK CFI 5dc0c .cfa: $rsp 40 +
STACK CFI 5dc0d .cfa: $rsp 32 +
STACK CFI 5dc0e .cfa: $rsp 24 +
STACK CFI 5dc10 .cfa: $rsp 16 +
STACK CFI 5dc12 .cfa: $rsp 8 +
STACK CFI 5dc18 .cfa: $rsp 48 +
STACK CFI INIT 5dc20 28e .cfa: $rsp 8 + .ra: .cfa -8 + ^
STACK CFI 5dc22 $r12: .cfa -16 + ^ .cfa: $rsp 16 +
STACK CFI 5dc23 $rbp: .cfa -24 + ^ .cfa: $rsp 24 +
STACK CFI 5dc27 $rbx: .cfa -32 + ^ .cfa: $rsp 32 +
STACK CFI 5dc2b .cfa: $rsp 80 +
STACK CFI 5dd0d .cfa: $rsp 32 +
STACK CFI 5dd0e .cfa: $rsp 24 +
STACK CFI 5dd0f .cfa: $rsp 16 +
STACK CFI 5dd11 .cfa: $rsp 8 +
STACK CFI 5dd18 .cfa: $rsp 80 +
STACK CFI INIT 96540 2cb .cfa: $rsp 8 + .ra: .cfa -8 + ^
STACK CFI 96542 $r14: .cfa -16 + ^ .cfa: $rsp 16 +
STACK CFI 96544 $r13: .cfa -24 + ^ .cfa: $rsp 24 +
STACK CFI 96546 $r12: .cfa -32 + ^ .cfa: $rsp 32 +
STACK CFI 9654a $rbp: .cfa -40 + ^ .cfa: $rsp 40 +
STACK CFI 9654b $rbx: .cfa -48 + ^ .cfa: $rsp 48 +
STACK CFI 966a3 .cfa: $rsp 40 +
STACK CFI 966a4 .cfa: $rsp 32 +
STACK CFI 966a6 .cfa: $rsp 24 +
STACK CFI 966a8 .cfa: $rsp 16 +
STACK CFI 966aa .cfa: $rsp 8 +
STACK CFI 966b0 .cfa: $rsp 48 +
STACK CFI 966d6 .cfa: $rsp 40 +
STACK CFI 966db .cfa: $rsp 32 +
STACK CFI 966dd .cfa: $rsp 24 +
STACK CFI 966df .cfa: $rsp 16 +
STACK CFI 966e1 .cfa: $rsp 8 +
STACK CFI 966e2 .cfa: $rsp 48 +
STACK CFI INIT 96810 16c .cfa: $rsp 8 + .ra: .cfa -8 + ^
STACK CFI 96811 $rbx: .cfa -16 + ^ .cfa: $rsp 16 +
STACK CFI 96818 .cfa: $rsp 64 +
STACK CFI 968f9 .cfa: $rsp 16 +
STACK CFI 968fa .cfa: $rsp 8 +
STACK CFI 96900 .cfa: $rsp 64 +
STACK CFI 9697a .cfa: $rsp 16 +
STACK CFI 9697b .cfa: $rsp 8 +
STACK CFI INIT 96980 53 .cfa: $rsp 8 + .ra: .cfa -8 + ^
STACK CFI INIT 969e0 c0 .cfa: $rsp 8 + .ra: .cfa -8 + ^
STACK CFI 969e1 $rbp: .cfa -16 + ^ .cfa: $rsp 16 +
STACK CFI 969e8 $rbx: .cfa -24 + ^ .cfa: $rsp 24 +
STACK CFI 969ec .cfa: $rsp 48 +
STACK CFI 96a8d .cfa: $rsp 24 +
STACK CFI 96a8e .cfa: $rsp 16 +
STACK CFI 96a8f .cfa: $rsp 8 +
STACK CFI 96a90 .cfa: $rsp 48 +
STACK CFI INIT 96aa0 23c .cfa: $rsp 8 + .ra: .cfa -8 + ^
STACK CFI 96aa2 $r15: .cfa -16 + ^ .cfa: $rsp 16 +
STACK CFI 96aa6 $r14: .cfa -24 + ^ .cfa: $rsp 24 +
STACK CFI 96aa8 $r13: .cfa -32 + ^ .cfa: $rsp 32 +
STACK CFI 96aad $r12: .cfa -40 + ^ .cfa: $rsp 40 +
STACK CFI 96aae $rbp: .cfa -48 + ^ .cfa: $rsp 48 +
STACK CFI 96aaf $rbx: .cfa -56 + ^ .cfa: $rsp 56 +
STACK CFI 96ab3 .cfa: $rsp 80 +
STACK CFI 96bc2 .cfa: $rsp 56 +
STACK CFI 96bc3 .cfa: $rsp 48 +
STACK CFI 96bc4 .cfa: $rsp 40 +
STACK CFI 96bc6 .cfa: $rsp 32 +
STACK CFI 96bc8 .cfa: $rsp 24 +
STACK CFI 96bca .cfa: $rsp 16 +
STACK CFI 96bd0 .cfa: $rsp 8 +
STACK CFI 96bd8 .cfa: $rsp 80 +
STACK CFI INIT 96ce0 ac .cfa: $rsp 8 + .ra: .cfa -8 + ^
STACK CFI 96ce2 $r12: .cfa -16 + ^ .cfa: $rsp 16 +
STACK CFI 96ce3 $rbp: .cfa -24 + ^ .cfa: $rsp 24 +
STACK CFI 96ce7 $rbx: .cfa -32 + ^ .cfa: $rsp 32 +
STACK CFI 96d22 .cfa: $rsp 24 +
STACK CFI 96d23 .cfa: $rsp 16 +
STACK CFI 96d25 .cfa: $rsp 8 +
STACK CFI 96d30 .cfa: $rsp 32 +
STACK CFI INIT 96d90 ed .cfa: $rsp 8 + .ra: .cfa -8 + ^
STACK CFI 96d92 $r14: .cfa -16 + ^ .cfa: $rsp 16 +
STACK CFI 96d94 $r13: .cfa -24 + ^ .cfa: $rsp 24 +
STACK CFI 96d99 $r12: .cfa -32 + ^ .cfa: $rsp 32 +
STACK CFI 96d9a $rbp: .cfa -40 + ^ .cfa: $rsp 40 +
STACK CFI 96d9b $rbx: .cfa -48 + ^ .cfa: $rsp 48 +
STACK CFI 96db7 .cfa: $rsp 40 +
STACK CFI 96db8 .cfa: $rsp 32 +
STACK CFI 96dba .cfa: $rsp 24 +
STACK CFI 96dbc .cfa: $rsp 16 +
STACK CFI 96dbe .cfa: $rsp 8 +
STACK CFI 96dc0 .cfa: $rsp 48 +
STACK CFI 96e26 .cfa: $rsp 40 +
STACK CFI 96e27 .cfa: $rsp 32 +
STACK CFI 96e29 .cfa: $rsp 24 +
STACK CFI 96e2b .cfa: $rsp 16 +
STACK CFI 96e2d .cfa: $rsp 8 +
STACK CFI 96e2e .cfa: $rsp 48 +
STACK CFI INIT 96e80 f4 .cfa: $rsp 8 + .ra: .cfa -8 + ^
STACK CFI 96e82 $r13: .cfa -16 + ^ .cfa: $rsp 16 +
STACK CFI 96e84 $r12: .cfa -24 + ^ .cfa: $rsp 24 +
STACK CFI 96e85 $rbp: .cfa -32 + ^ .cfa: $rsp 32 +
STACK CFI 96e89 $rbx: .cfa -40 + ^ .cfa: $rsp 40 +
STACK CFI 96e90 .cfa: $rsp 64 +
STACK CFI 96f4e .cfa: $rsp 40 +
STACK CFI 96f4f .cfa: $rsp 32 +
STACK CFI 96f50 .cfa: $rsp 24 +
STACK CFI 96f52 .cfa: $rsp 16 +
STACK CFI 96f58 .cfa: $rsp 8 +
STACK CFI 96f60 .cfa: $rsp 64 +
STACK CFI INIT 96f80 66 .cfa: $rsp 8 + .ra: .cfa -8 + ^
STACK CFI 96f81 $rbx: .cfa -16 + ^ .cfa: $rsp 16 +
STACK CFI 96f88 .cfa: $rsp 32 +
STACK CFI 96fa9 .cfa: $rsp 16 +
STACK CFI 96faa .cfa: $rsp 8 +
STACK CFI 96fb0 .cfa: $rsp 32 +
STACK CFI 96fc7 .cfa: $rsp 16 +
STACK CFI 96fc8 .cfa: $rsp 8 +
STACK CFI 96fc9 .cfa: $rsp 32 +
STACK CFI INIT 5deb0 7e5 .cfa: $rsp 8 + .ra: .cfa -8 + ^
STACK CFI 5deb2 $r15: .cfa -16 + ^ .cfa: $rsp 16 +
STACK CFI 5deb4 $r14: .cfa -24 + ^ .cfa: $rsp 24 +
STACK CFI 5deb9 $r13: .cfa -32 + ^ .cfa: $rsp 32 +
STACK CFI 5dec2 $r12: .cfa -40 + ^ .cfa: $rsp 40 +
STACK CFI 5dec3 $rbp: .cfa -48 + ^ .cfa: $rsp 48 +
STACK CFI 5dec4 $rbx: .cfa -56 + ^ .cfa: $rsp 56 +
STACK CFI 5dec8 .cfa: $rsp 144 +
STACK CFI 5e145 .cfa: $rsp 56 +
STACK CFI 5e146 .cfa: $rsp 48 +
STACK CFI 5e147 .cfa: $rsp 40 +
STACK CFI 5e149 .cfa: $rsp 32 +
STACK CFI 5e14b .cfa: $rsp 24 +
STACK CFI 5e14d .cfa: $rsp 16 +
STACK CFI 5e14f .cfa: $rsp 8 +
STACK CFI 5e150 .cfa: $rsp 144 +
STACK CFI INIT 5e6a0 2a4 .cfa: $rsp 8 + .ra: .cfa -8 + ^
STACK CFI 5e6a2 $r14: .cfa -16 + ^ .cfa: $rsp 16 +
STACK CFI 5e6a7 $r13: .cfa -24 + ^ .cfa: $rsp 24 +
STACK CFI 5e6ac $r12: .cfa -32 + ^ .cfa: $rsp 32 +
STACK CFI 5e6ad $rbp: .cfa -40 + ^ .cfa: $rsp 40 +
STACK CFI 5e6ae $rbx: .cfa -48 + ^ .cfa: $rsp 48 +
STACK CFI 5e6b4 .cfa: $rsp 96 +
STACK CFI 5e910 .cfa: $rsp 48 +
STACK CFI 5e911 .cfa: $rsp 40 +
STACK CFI 5e912 .cfa: $rsp 32 +
STACK CFI 5e914 .cfa: $rsp 24 +
STACK CFI 5e916 .cfa: $rsp 16 +
STACK CFI 5e918 .cfa: $rsp 8 +
STACK CFI 5e920 .cfa: $rsp 96 +
STACK CFI INIT 96ff0 53 .cfa: $rsp 8 + .ra: .cfa -8 + ^
STACK CFI INIT 97050 ad .cfa: $rsp 8 + .ra: .cfa -8 + ^
STACK CFI 97051 $rbp: .cfa -16 + ^ .cfa: $rsp 16 +
STACK CFI 97058 $rbx: .cfa -24 + ^ .cfa: $rsp 24 +
STACK CFI 9705c .cfa: $rsp 48 +
STACK CFI 970ed .cfa: $rsp 24 +
STACK CFI 970ee .cfa: $rsp 16 +
STACK CFI 970ef .cfa: $rsp 8 +
STACK CFI 970f0 .cfa: $rsp 48 +
STACK CFI INIT 5e950 229 .cfa: $rsp 8 + .ra: .cfa -8 + ^
STACK CFI 5e952 $r15: .cfa -16 + ^ .cfa: $rsp 16 +
STACK CFI 5e954 $r14: .cfa -24 + ^ .cfa: $rsp 24 +
STACK CFI 5e956 $r13: .cfa -32 + ^ .cfa: $rsp 32 +
STACK CFI 5e95b $r12: .cfa -40 + ^ .cfa: $rsp 40 +
STACK CFI 5e95f $rbp: .cfa -48 + ^ .cfa: $rsp 48 +
STACK CFI 5e960 $rbx: .cfa -56 + ^ .cfa: $rsp 56 +
STACK CFI 5e966 .cfa: $rsp 128 +
STACK CFI 5eaf7 .cfa: $rsp 56 +
STACK CFI 5eaf8 .cfa: $rsp 48 +
STACK CFI 5eaf9 .cfa: $rsp 40 +
STACK CFI 5eafb .cfa: $rsp 32 +
STACK CFI 5eafd .cfa: $rsp 24 +
STACK CFI 5eaff .cfa: $rsp 16 +
STACK CFI 5eb01 .cfa: $rsp 8 +
STACK CFI 5eb08 .cfa: $rsp 128 +
STACK CFI INIT 97100 53 .cfa: $rsp 8 + .ra: .cfa -8 + ^
STACK CFI INIT 97160 ed .cfa: $rsp 8 + .ra: .cfa -8 + ^
STACK CFI 97162 $r12: .cfa -16 + ^ .cfa: $rsp 16 +
STACK CFI 97163 $rbp: .cfa -24 + ^ .cfa: $rsp 24 +
STACK CFI 97167 $rbx: .cfa -32 + ^ .cfa: $rsp 32 +
STACK CFI 9716e .cfa: $rsp 48 +
STACK CFI 9722c .cfa: $rsp 32 +
STACK CFI 9722d .cfa: $rsp 24 +
STACK CFI 9722e .cfa: $rsp 16 +
STACK CFI 97230 .cfa: $rsp 8 +
STACK CFI 97238 .cfa: $rsp 48 +
STACK CFI INIT 97250 5a .cfa: $rsp 8 + .ra: .cfa -8 + ^
STACK CFI 97251 $rbx: .cfa -16 + ^ .cfa: $rsp 16 +
STACK CFI 97277 .cfa: $rsp 8 +
STACK CFI 97280 .cfa: $rsp 16 +
STACK CFI 9728c .cfa: $rsp 8 +
STACK CFI 9728d .cfa: $rsp 16 +
STACK CFI INIT 5eb80 64e .cfa: $rsp 8 + .ra: .cfa -8 + ^
STACK CFI 5eb82 $r15: .cfa -16 + ^ .cfa: $rsp 16 +
STACK CFI 5eb87 $r14: .cfa -24 + ^ .cfa: $rsp 24 +
STACK CFI 5eb8c $r13: .cfa -32 + ^ .cfa: $rsp 32 +
STACK CFI 5eb8e $r12: .cfa -40 + ^ .cfa: $rsp 40 +
STACK CFI 5eb92 $rbp: .cfa -48 + ^ .cfa: $rsp 48 +
STACK CFI 5eb96 $rbx: .cfa -56 + ^ .cfa: $rsp 56 +
STACK CFI 5eb9d .cfa: $rsp 128 +
STACK CFI 5ec84 .cfa: $rsp 56 +
STACK CFI 5ec88 .cfa: $rsp 48 +
STACK CFI 5ec89 .cfa: $rsp 40 +
STACK CFI 5ec8b .cfa: $rsp 32 +
STACK CFI 5ec8d .cfa: $rsp 24 +
STACK CFI 5ec8f .cfa: $rsp 16 +
STACK CFI 5ec91 .cfa: $rsp 8 +
STACK CFI 5ec98 .cfa: $rsp 128 +
STACK CFI INIT 5f1d0 278 .cfa: $rsp 8 + .ra: .cfa -8 + ^
STACK CFI 5f1d2 $r14: .cfa -16 + ^ .cfa: $rsp 16 +
STACK CFI 5f1d7 $r13: .cfa -24 + ^ .cfa: $rsp 24 +
STACK CFI 5f1d9 $r12: .cfa -32 + ^ .cfa: $rsp 32 +
STACK CFI 5f1da $rbp: .cfa -40 + ^ .cfa: $rsp 40 +
STACK CFI 5f1db $rbx: .cfa -48 + ^ .cfa: $rsp 48 +
STACK CFI 5f1e2 .cfa: $rsp 160 +
STACK CFI 5f3af .cfa: $rsp 48 +
STACK CFI 5f3b0 .cfa: $rsp 40 +
STACK CFI 5f3b1 .cfa: $rsp 32 +
STACK CFI 5f3b3 .cfa: $rsp 24 +
STACK CFI 5f3b5 .cfa: $rsp 16 +
STACK CFI 5f3b7 .cfa: $rsp 8 +
STACK CFI 5f3c0 .cfa: $rsp 160 +
STACK CFI INIT 5f450 6a1 .cfa: $rsp 8 + .ra: .cfa -8 + ^
STACK CFI 5f452 $r15: .cfa -16 + ^ .cfa: $rsp 16 +
STACK CFI 5f45a $r14: .cfa -24 + ^ .cfa: $rsp 24 +
STACK CFI 5f45c $r13: .cfa -32 + ^ .cfa: $rsp 32 +
STACK CFI 5f45e $r12: .cfa -40 + ^ .cfa: $rsp 40 +
STACK CFI 5f462 $rbp: .cfa -48 + ^ .cfa: $rsp 48 +
STACK CFI 5f466 $rbx: .cfa -56 + ^ .cfa: $rsp 56 +
STACK CFI 5f46d .cfa: $rsp 160 +
STACK CFI 5f8c8 .cfa: $rsp 56 +
STACK CFI 5f8cc .cfa: $rsp 48 +
STACK CFI 5f8cd .cfa: $rsp 40 +
STACK CFI 5f8cf .cfa: $rsp 32 +
STACK CFI 5f8d1 .cfa: $rsp 24 +
STACK CFI 5f8d3 .cfa: $rsp 16 +
STACK CFI 5f8d5 .cfa: $rsp 8 +
STACK CFI 5f8d6 .cfa: $rsp 160 +
STACK CFI INIT 5fb00 45f .cfa: $rsp 8 + .ra: .cfa -8 + ^
STACK CFI 5fb02 $r15: .cfa -16 + ^ .cfa: $rsp 16 +
STACK CFI 5fb04 $r14: .cfa -24 + ^ .cfa: $rsp 24 +
STACK CFI 5fb09 $r13: .cfa -32 + ^ .cfa: $rsp 32 +
STACK CFI 5fb0b $r12: .cfa -40 + ^ .cfa: $rsp 40 +
STACK CFI 5fb0c $rbp: .cfa -48 + ^ .cfa: $rsp 48 +
STACK CFI 5fb0d $rbx: .cfa -56 + ^ .cfa: $rsp 56 +
STACK CFI 5fb14 .cfa: $rsp 176 +
STACK CFI 5fd8c .cfa: $rsp 56 +
STACK CFI 5fd8d .cfa: $rsp 48 +
STACK CFI 5fd8e .cfa: $rsp 40 +
STACK CFI 5fd90 .cfa: $rsp 32 +
STACK CFI 5fd92 .cfa: $rsp 24 +
STACK CFI 5fd94 .cfa: $rsp 16 +
STACK CFI 5fd96 .cfa: $rsp 8 +
STACK CFI 5fda0 .cfa: $rsp 176 +
STACK CFI INIT 972b0 66 .cfa: $rsp 8 + .ra: .cfa -8 + ^
STACK CFI 972b2 $r12: .cfa -16 + ^ .cfa: $rsp 16 +
STACK CFI 972c5 $rbp: .cfa -24 + ^ .cfa: $rsp 24 +
STACK CFI 972cd $rbx: .cfa -32 + ^ .cfa: $rsp 32 +
STACK CFI 972f4 .cfa: $rsp 24 +
STACK CFI 972f5 .cfa: $rsp 16 +
STACK CFI 972f7 .cfa: $rsp 8 +
STACK CFI 97300 .cfa: $rsp 32 +
STACK CFI INIT 97320 1c0 .cfa: $rsp 8 + .ra: .cfa -8 + ^
STACK CFI 97322 $r13: .cfa -16 + ^ .cfa: $rsp 16 +
STACK CFI 97324 $r12: .cfa -24 + ^ .cfa: $rsp 24 +
STACK CFI 97328 $rbp: .cfa -32 + ^ .cfa: $rsp 32 +
STACK CFI 9732c $rbx: .cfa -40 + ^ .cfa: $rsp 40 +
STACK CFI 97330 .cfa: $rsp 48 +
STACK CFI 973cb .cfa: $rsp 40 +
STACK CFI 973cc .cfa: $rsp 32 +
STACK CFI 973cd .cfa: $rsp 24 +
STACK CFI 973cf .cfa: $rsp 16 +
STACK CFI 973d1 .cfa: $rsp 8 +
STACK CFI 973d8 .cfa: $rsp 48 +
STACK CFI 97405 .cfa: $rsp 40 +
STACK CFI 97406 .cfa: $rsp 32 +
STACK CFI 97407 .cfa: $rsp 24 +
STACK CFI 97409 .cfa: $rsp 16 +
STACK CFI 9740b .cfa: $rsp 8 +
STACK CFI 9740c .cfa: $rsp 48 +
STACK CFI INIT 5ff60 90 .cfa: $rsp 8 + .ra: .cfa -8 + ^
STACK CFI 5ff61 $rbp: .cfa -16 + ^ .cfa: $rsp 16 +
STACK CFI 5ff62 $rbx: .cfa -24 + ^ .cfa: $rsp 24 +
STACK CFI 5ff69 .cfa: $rsp 32 +
STACK CFI 5ffb9 .cfa: $rsp 24 +
STACK CFI 5ffbd .cfa: $rsp 16 +
STACK CFI 5ffbe .cfa: $rsp 8 +
STACK CFI 5ffc8 .cfa: $rsp 32 +
STACK CFI INIT 5fff0 26f .cfa: $rsp 8 + .ra: .cfa -8 + ^
STACK CFI 5fff2 $r12: .cfa -16 + ^ .cfa: $rsp 16 +
STACK CFI 5fff3 $rbp: .cfa -24 + ^ .cfa: $rsp 24 +
STACK CFI 5fff4 $rbx: .cfa -32 + ^ .cfa: $rsp 32 +
STACK CFI 5fffb .cfa: $rsp 112 +
STACK CFI 600fe .cfa: $rsp 32 +
STACK CFI 600ff .cfa: $rsp 24 +
STACK CFI 60100 .cfa: $rsp 16 +
STACK CFI 60102 .cfa: $rsp 8 +
STACK CFI 60108 .cfa: $rsp 112 +
STACK CFI INIT 60260 377 .cfa: $rsp 8 + .ra: .cfa -8 + ^
STACK CFI 60262 $r15: .cfa -16 + ^ .cfa: $rsp 16 +
STACK CFI 60264 $r14: .cfa -24 + ^ .cfa: $rsp 24 +
STACK CFI 60266 $r13: .cfa -32 + ^ .cfa: $rsp 32 +
STACK CFI 60268 $r12: .cfa -40 + ^ .cfa: $rsp 40 +
STACK CFI 60269 $rbp: .cfa -48 + ^ .cfa: $rsp 48 +
STACK CFI 6026a $rbx: .cfa -56 + ^ .cfa: $rsp 56 +
STACK CFI 60271 .cfa: $rsp 160 +
STACK CFI 6051e .cfa: $rsp 56 +
STACK CFI 6051f .cfa: $rsp 48 +
STACK CFI 60520 .cfa: $rsp 40 +
STACK CFI 60522 .cfa: $rsp 32 +
STACK CFI 60524 .cfa: $rsp 24 +
STACK CFI 60526 .cfa: $rsp 16 +
STACK CFI 60528 .cfa: $rsp 8 +
STACK CFI 60530 .cfa: $rsp 160 +
STACK CFI INIT 605e0 254 .cfa: $rsp 8 + .ra: .cfa -8 + ^
STACK CFI 605e2 $r12: .cfa -16 + ^ .cfa: $rsp 16 +
STACK CFI 605e3 $rbp: .cfa -24 + ^ .cfa: $rsp 24 +
STACK CFI 605e4 $rbx: .cfa -32 + ^ .cfa: $rsp 32 +
STACK CFI 605eb .cfa: $rsp 112 +
STACK CFI 606c0 .cfa: $rsp 32 +
STACK CFI 606c1 .cfa: $rsp 24 +
STACK CFI 606c2 .cfa: $rsp 16 +
STACK CFI 606c4 .cfa: $rsp 8 +
STACK CFI 606c8 .cfa: $rsp 112 +
STACK CFI 607a8 .cfa: $rsp 32 +
STACK CFI 607a9 .cfa: $rsp 24 +
STACK CFI 607aa .cfa: $rsp 16 +
STACK CFI 607ac .cfa: $rsp 8 +
STACK CFI 607b0 .cfa: $rsp 112 +
STACK CFI INIT 974e0 66 .cfa: $rsp 8 + .ra: .cfa -8 + ^
STACK CFI 974e2 $r12: .cfa -16 + ^ .cfa: $rsp 16 +
STACK CFI 974f5 $rbp: .cfa -24 + ^ .cfa: $rsp 24 +
STACK CFI 974fd $rbx: .cfa -32 + ^ .cfa: $rsp 32 +
STACK CFI 97524 .cfa: $rsp 24 +
STACK CFI 97525 .cfa: $rsp 16 +
STACK CFI 97527 .cfa: $rsp 8 +
STACK CFI 97530 .cfa: $rsp 32 +
STACK CFI INIT 60840 12d .cfa: $rsp 8 + .ra: .cfa -8 + ^
STACK CFI 60841 $rbx: .cfa -16 + ^ .cfa: $rsp 16 +
STACK CFI 60845 .cfa: $rsp 64 +
STACK CFI 6091f .cfa: $rsp 16 +
STACK CFI 60920 .cfa: $rsp 8 +
STACK CFI 60928 .cfa: $rsp 64 +
STACK CFI INIT 60970 2e8 .cfa: $rsp 8 + .ra: .cfa -8 + ^
STACK CFI 60972 $r15: .cfa -16 + ^ .cfa: $rsp 16 +
STACK CFI 60974 $r14: .cfa -24 + ^ .cfa: $rsp 24 +
STACK CFI 6097a $r13: .cfa -32 + ^ .cfa: $rsp 32 +
STACK CFI 6097c $r12: .cfa -40 + ^ .cfa: $rsp 40 +
STACK CFI 6097d $rbp: .cfa -48 + ^ .cfa: $rsp 48 +
STACK CFI 60981 $rbx: .cfa -56 + ^ .cfa: $rsp 56 +
STACK CFI 60988 .cfa: $rsp 144 +
STACK CFI 60ac7 .cfa: $rsp 56 +
STACK CFI 60ac8 .cfa: $rsp 48 +
STACK CFI 60ac9 .cfa: $rsp 40 +
STACK CFI 60acb .cfa: $rsp 32 +
STACK CFI 60acd .cfa: $rsp 24 +
STACK CFI 60acf .cfa: $rsp 16 +
STACK CFI 60ad1 .cfa: $rsp 8 +
STACK CFI 60ad8 .cfa: $rsp 144 +
STACK CFI 60b1e .cfa: $rsp 56 +
STACK CFI 60b1f .cfa: $rsp 48 +
STACK CFI 60b20 .cfa: $rsp 40 +
STACK CFI 60b22 .cfa: $rsp 32 +
STACK CFI 60b24 .cfa: $rsp 24 +
STACK CFI 60b26 .cfa: $rsp 16 +
STACK CFI 60b28 .cfa: $rsp 8 +
STACK CFI 60b29 .cfa: $rsp 144 +
STACK CFI INIT 60c60 563 .cfa: $rsp 8 + .ra: .cfa -8 + ^
STACK CFI 60c62 $r15: .cfa -16 + ^ .cfa: $rsp 16 +
STACK CFI 60c64 $r14: .cfa -24 + ^ .cfa: $rsp 24 +
STACK CFI 60c66 $r13: .cfa -32 + ^ .cfa: $rsp 32 +
STACK CFI 60c68 $r12: .cfa -40 + ^ .cfa: $rsp 40 +
STACK CFI 60c6d $rbp: .cfa -48 + ^ .cfa: $rsp 48 +
STACK CFI 60c6e $rbx: .cfa -56 + ^ .cfa: $rsp 56 +
STACK CFI 60c75 .cfa: $rsp 176 +
STACK CFI 60dca .cfa: $rsp 56 +
STACK CFI 60dcb .cfa: $rsp 48 +
STACK CFI 60dcc .cfa: $rsp 40 +
STACK CFI 60dce .cfa: $rsp 32 +
STACK CFI 60dd0 .cfa: $rsp 24 +
STACK CFI 60dd2 .cfa: $rsp 16 +
STACK CFI 60dd4 .cfa: $rsp 8 +
STACK CFI 60dd5 .cfa: $rsp 176 +
STACK CFI 60ee5 .cfa: $rsp 56 +
STACK CFI 60ee6 .cfa: $rsp 48 +
STACK CFI 60ee7 .cfa: $rsp 40 +
STACK CFI 60ee9 .cfa: $rsp 32 +
STACK CFI 60eeb .cfa: $rsp 24 +
STACK CFI 60eed .cfa: $rsp 16 +
STACK CFI 60eef .cfa: $rsp 8 +
STACK CFI 60ef0 .cfa: $rsp 176 +
STACK CFI INIT 611d0 449 .cfa: $rsp 8 + .ra: .cfa -8 + ^
STACK CFI 611d2 $r15: .cfa -16 + ^ .cfa: $rsp 16 +
STACK CFI 611d4 $r14: .cfa -24 + ^ .cfa: $rsp 24 +
STACK CFI 611d6 $r13: .cfa -32 + ^ .cfa: $rsp 32 +
STACK CFI 611d8 $r12: .cfa -40 + ^ .cfa: $rsp 40 +
STACK CFI 611dc $rbp: .cfa -48 + ^ .cfa: $rsp 48 +
STACK CFI 611df $rbx: .cfa -56 + ^ .cfa: $rsp 56 +
STACK CFI 611e6 .cfa: $rsp 144 +
STACK CFI 61333 .cfa: $rsp 56 +
STACK CFI 61334 .cfa: $rsp 48 +
STACK CFI 61335 .cfa: $rsp 40 +
STACK CFI 61337 .cfa: $rsp 32 +
STACK CFI 61339 .cfa: $rsp 24 +
STACK CFI 6133b .cfa: $rsp 16 +
STACK CFI 6133d .cfa: $rsp 8 +
STACK CFI 61340 .cfa: $rsp 144 +
STACK CFI INIT 61620 197 .cfa: $rsp 8 + .ra: .cfa -8 + ^
STACK CFI 61622 $r12: .cfa -16 + ^ .cfa: $rsp 16 +
STACK CFI 61623 $rbp: .cfa -24 + ^ .cfa: $rsp 24 +
STACK CFI 61624 $rbx: .cfa -32 + ^ .cfa: $rsp 32 +
STACK CFI 61628 .cfa: $rsp 80 +
STACK CFI 616c3 .cfa: $rsp 32 +
STACK CFI 616c4 .cfa: $rsp 24 +
STACK CFI 616c5 .cfa: $rsp 16 +
STACK CFI 616c7 .cfa: $rsp 8 +
STACK CFI 616c8 .cfa: $rsp 80 +
STACK CFI 61788 .cfa: $rsp 32 +
STACK CFI 61789 .cfa: $rsp 24 +
STACK CFI 6178a .cfa: $rsp 16 +
STACK CFI 6178c .cfa: $rsp 8 +
STACK CFI 6178d .cfa: $rsp 80 +
STACK CFI INIT 617c0 57 .cfa: $rsp 8 + .ra: .cfa -8 + ^
STACK CFI 617c8 $rbx: .cfa -16 + ^ .cfa: $rsp 16 +
STACK CFI 617f2 .cfa: $rsp 8 +
STACK CFI 61800 .cfa: $rsp 16 +
STACK CFI INIT 61820 12 .cfa: $rsp 8 + .ra: .cfa -8 + ^
STACK CFI 61821 $rbx: .cfa -16 + ^ .cfa: $rsp 16 +
STACK CFI 6182d .cfa: $rsp 8 +
STACK CFI INIT 61840 512 .cfa: $rsp 8 + .ra: .cfa -8 + ^
STACK CFI 61842 $r15: .cfa -16 + ^ .cfa: $rsp 16 +
STACK CFI 61844 $r14: .cfa -24 + ^ .cfa: $rsp 24 +
STACK CFI 61846 $r13: .cfa -32 + ^ .cfa: $rsp 32 +
STACK CFI 61848 $r12: .cfa -40 + ^ .cfa: $rsp 40 +
STACK CFI 61849 $rbp: .cfa -48 + ^ .cfa: $rsp 48 +
STACK CFI 6184d $rbx: .cfa -56 + ^ .cfa: $rsp 56 +
STACK CFI 61858 .cfa: $rsp 160 +
STACK CFI 61aad .cfa: $rsp 56 +
STACK CFI 61aae .cfa: $rsp 48 +
STACK CFI 61aaf .cfa: $rsp 40 +
STACK CFI 61ab1 .cfa: $rsp 32 +
STACK CFI 61ab3 .cfa: $rsp 24 +
STACK CFI 61ab5 .cfa: $rsp 16 +
STACK CFI 61ab7 .cfa: $rsp 8 +
STACK CFI 61ac0 .cfa: $rsp 160 +
STACK CFI INIT 97550 234 .cfa: $rsp 8 + .ra: .cfa -8 + ^
STACK CFI 97552 $r15: .cfa -16 + ^ .cfa: $rsp 16 +
STACK CFI 97556 $r14: .cfa -24 + ^ .cfa: $rsp 24 +
STACK CFI 97558 $r13: .cfa -32 + ^ .cfa: $rsp 32 +
STACK CFI 9755d $r12: .cfa -40 + ^ .cfa: $rsp 40 +
STACK CFI 9755e $rbp: .cfa -48 + ^ .cfa: $rsp 48 +
STACK CFI 9755f $rbx: .cfa -56 + ^ .cfa: $rsp 56 +
STACK CFI 97563 .cfa: $rsp 80 +
STACK CFI 97668 .cfa: $rsp 56 +
STACK CFI 97669 .cfa: $rsp 48 +
STACK CFI 9766a .cfa: $rsp 40 +
STACK CFI 9766c .cfa: $rsp 32 +
STACK CFI 9766e .cfa: $rsp 24 +
STACK CFI 97670 .cfa: $rsp 16 +
STACK CFI 97676 .cfa: $rsp 8 +
STACK CFI 97680 .cfa: $rsp 80 +
STACK CFI INIT 97790 a8 .cfa: $rsp 8 + .ra: .cfa -8 + ^
STACK CFI 97792 $r12: .cfa -16 + ^ .cfa: $rsp 16 +
STACK CFI 97793 $rbp: .cfa -24 + ^ .cfa: $rsp 24 +
STACK CFI 97797 $rbx: .cfa -32 + ^ .cfa: $rsp 32 +
STACK CFI 977c8 .cfa: $rsp 24 +
STACK CFI 977c9 .cfa: $rsp 16 +
STACK CFI 977cb .cfa: $rsp 8 +
STACK CFI 977d0 .cfa: $rsp 32 +
STACK CFI 977ec .cfa: $rsp 24 +
STACK CFI 977ed .cfa: $rsp 16 +
STACK CFI 977ef .cfa: $rsp 8 +
STACK CFI 977f0 .cfa: $rsp 32 +
STACK CFI INIT 61d60 44f .cfa: $rsp 8 + .ra: .cfa -8 + ^
STACK CFI 61d72 $r15: .cfa -16 + ^ .cfa: $rsp 16 +
STACK CFI 61d74 $r14: .cfa -24 + ^ .cfa: $rsp 24 +
STACK CFI 61d76 $r13: .cfa -32 + ^ .cfa: $rsp 32 +
STACK CFI 61d78 $r12: .cfa -40 + ^ .cfa: $rsp 40 +
STACK CFI 61d79 $rbp: .cfa -48 + ^ .cfa: $rsp 48 +
STACK CFI 61d7a $rbx: .cfa -56 + ^ .cfa: $rsp 56 +
STACK CFI 61d81 .cfa: $rsp 176 +
STACK CFI 61d91 .cfa: $rsp 56 +
STACK CFI 61d92 $rbx: $rbx .cfa: $rsp 48 +
STACK CFI 61d93 $rbp: $rbp .cfa: $rsp 40 +
STACK CFI 61d95 $r12: $r12 .cfa: $rsp 32 +
STACK CFI 61d97 $r13: $r13 .cfa: $rsp 24 +
STACK CFI 61d99 $r14: $r14 .cfa: $rsp 16 +
STACK CFI 61d9b $r15: $r15 .cfa: $rsp 8 +
STACK CFI 61d9c $r12: .cfa -40 + ^ $r13: .cfa -32 + ^ $r14: .cfa -24 + ^ $r15: .cfa -16 + ^ $rbp: .cfa -48 + ^ $rbx: .cfa -56 + ^ .cfa: $rsp 176 +
STACK CFI INIT 621b0 7f .cfa: $rsp 8 + .ra: .cfa -8 + ^
STACK CFI 621b2 $r13: .cfa -16 + ^ .cfa: $rsp 16 +
STACK CFI 621b7 $r12: .cfa -24 + ^ .cfa: $rsp 24 +
STACK CFI 621b8 $rbp: .cfa -32 + ^ .cfa: $rsp 32 +
STACK CFI 621bc $rbx: .cfa -40 + ^ .cfa: $rsp 40 +
STACK CFI 621c0 .cfa: $rsp 48 +
STACK CFI 62217 .cfa: $rsp 40 +
STACK CFI 62218 .cfa: $rsp 32 +
STACK CFI 62219 .cfa: $rsp 24 +
STACK CFI 6221b .cfa: $rsp 16 +
STACK CFI 6221d .cfa: $rsp 8 +
STACK CFI 62220 .cfa: $rsp 48 +
STACK CFI INIT 62230 2b1 .cfa: $rsp 8 + .ra: .cfa -8 + ^
STACK CFI 62231 $rbp: .cfa -16 + ^ .cfa: $rsp 16 +
STACK CFI 62234 $rbx: .cfa -24 + ^ .cfa: $rsp 24 +
STACK CFI 6223b .cfa: $rsp 80 +
STACK CFI 622c5 .cfa: $rsp 24 +
STACK CFI 622c6 .cfa: $rsp 16 +
STACK CFI 622c7 .cfa: $rsp 8 +
STACK CFI 622d0 .cfa: $rsp 80 +
STACK CFI 62373 .cfa: $rsp 24 +
STACK CFI 62374 .cfa: $rsp 16 +
STACK CFI 62375 .cfa: $rsp 8 +
STACK CFI 62380 .cfa: $rsp 80 +
STACK CFI 62489 .cfa: $rsp 24 +
STACK CFI 6248a .cfa: $rsp 16 +
STACK CFI 6248b .cfa: $rsp 8 +
STACK CFI 62490 .cfa: $rsp 80 +
STACK CFI INIT 97840 b3 .cfa: $rsp 8 + .ra: .cfa -8 + ^
STACK CFI 97842 $r15: .cfa -16 + ^ .cfa: $rsp 16 +
STACK CFI 97847 $r14: .cfa -24 + ^ .cfa: $rsp 24 +
STACK CFI 9784c $r13: .cfa -32 + ^ .cfa: $rsp 32 +
STACK CFI 9784e $r12: .cfa -40 + ^ .cfa: $rsp 40 +
STACK CFI 97852 $rbp: .cfa -48 + ^ .cfa: $rsp 48 +
STACK CFI 97853 $rbx: .cfa -56 + ^ .cfa: $rsp 56 +
STACK CFI 97857 .cfa: $rsp 64 +
STACK CFI 97887 .cfa: $rsp 56 +
STACK CFI 9788b .cfa: $rsp 48 +
STACK CFI 9788c .cfa: $rsp 40 +
STACK CFI 9788e .cfa: $rsp 32 +
STACK CFI 97890 .cfa: $rsp 24 +
STACK CFI 97892 .cfa: $rsp 16 +
STACK CFI 97894 .cfa: $rsp 8 +
STACK CFI 97898 .cfa: $rsp 64 +
STACK CFI INIT 97900 92 .cfa: $rsp 8 + .ra: .cfa -8 + ^
STACK CFI INIT 979a0 26c .cfa: $rsp 8 + .ra: .cfa -8 + ^
STACK CFI 979a2 $r15: .cfa -16 + ^ .cfa: $rsp 16 +
STACK CFI 979a4 $r14: .cfa -24 + ^ .cfa: $rsp 24 +
STACK CFI 979a6 $r13: .cfa -32 + ^ .cfa: $rsp 32 +
STACK CFI 979ad $r12: .cfa -40 + ^ .cfa: $rsp 40 +
STACK CFI 979ae $rbp: .cfa -48 + ^ .cfa: $rsp 48 +
STACK CFI 979af $rbx: .cfa -56 + ^ .cfa: $rsp 56 +
STACK CFI 979b3 .cfa: $rsp 80 +
STACK CFI 97af2 .cfa: $rsp 56 +
STACK CFI 97af3 .cfa: $rsp 48 +
STACK CFI 97af4 .cfa: $rsp 40 +
STACK CFI 97af6 .cfa: $rsp 32 +
STACK CFI 97af8 .cfa: $rsp 24 +
STACK CFI 97afa .cfa: $rsp 16 +
STACK CFI 97b00 .cfa: $rsp 8 +
STACK CFI 97b08 .cfa: $rsp 80 +
STACK CFI INIT 97c10 b6 .cfa: $rsp 8 + .ra: .cfa -8 + ^
STACK CFI 97c12 $r12: .cfa -16 + ^ .cfa: $rsp 16 +
STACK CFI 97c13 $rbp: .cfa -24 + ^ .cfa: $rsp 24 +
STACK CFI 97c17 $rbx: .cfa -32 + ^ .cfa: $rsp 32 +
STACK CFI 97c61 .cfa: $rsp 24 +
STACK CFI 97c62 .cfa: $rsp 16 +
STACK CFI 97c64 .cfa: $rsp 8 +
STACK CFI 97c68 .cfa: $rsp 32 +
STACK CFI INIT 624f0 258 .cfa: $rsp 8 + .ra: .cfa -8 + ^
STACK CFI 624f2 $r15: .cfa -16 + ^ .cfa: $rsp 16 +
STACK CFI 624f7 $r14: .cfa -24 + ^ .cfa: $rsp 24 +
STACK CFI 624fc $r13: .cfa -32 + ^ .cfa: $rsp 32 +
STACK CFI 62501 $r12: .cfa -40 + ^ .cfa: $rsp 40 +
STACK CFI 62502 $rbp: .cfa -48 + ^ .cfa: $rsp 48 +
STACK CFI 62503 $rbx: .cfa -56 + ^ .cfa: $rsp 56 +
STACK CFI 6250a .cfa: $rsp 240 +
STACK CFI 62705 .cfa: $rsp 56 +
STACK CFI 62706 .cfa: $rsp 48 +
STACK CFI 62707 .cfa: $rsp 40 +
STACK CFI 62709 .cfa: $rsp 32 +
STACK CFI 6270b .cfa: $rsp 24 +
STACK CFI 6270d .cfa: $rsp 16 +
STACK CFI 6270f .cfa: $rsp 8 +
STACK CFI 62710 .cfa: $rsp 240 +
STACK CFI INIT 62750 ca .cfa: $rsp 8 + .ra: .cfa -8 + ^
STACK CFI 62752 $r12: .cfa -16 + ^ .cfa: $rsp 16 +
STACK CFI 62756 $rbp: .cfa -24 + ^ .cfa: $rsp 24 +
STACK CFI 62757 $rbx: .cfa -32 + ^ .cfa: $rsp 32 +
STACK CFI 6275e .cfa: $rsp 112 +
STACK CFI 627ea .cfa: $rsp 32 +
STACK CFI 627eb .cfa: $rsp 24 +
STACK CFI 627ec .cfa: $rsp 16 +
STACK CFI 627ee .cfa: $rsp 8 +
STACK CFI 627f0 .cfa: $rsp 112 +
STACK CFI 627fc .cfa: $rsp 32 +
STACK CFI 627fd .cfa: $rsp 24 +
STACK CFI 627fe .cfa: $rsp 16 +
STACK CFI 62800 .cfa: $rsp 8 +
STACK CFI 62808 .cfa: $rsp 112 +
STACK CFI INIT 62820 2c2 .cfa: $rsp 8 + .ra: .cfa -8 + ^
STACK CFI 62822 $r15: .cfa -16 + ^ .cfa: $rsp 16 +
STACK CFI 62824 $r14: .cfa -24 + ^ .cfa: $rsp 24 +
STACK CFI 62826 $r13: .cfa -32 + ^ .cfa: $rsp 32 +
STACK CFI 62828 $r12: .cfa -40 + ^ .cfa: $rsp 40 +
STACK CFI 6282c $rbp: .cfa -48 + ^ .cfa: $rsp 48 +
STACK CFI 6282d $rbx: .cfa -56 + ^ .cfa: $rsp 56 +
STACK CFI 62837 .cfa: $rsp 256 +
STACK CFI 62a4e .cfa: $rsp 56 +
STACK CFI 62a4f .cfa: $rsp 48 +
STACK CFI 62a50 .cfa: $rsp 40 +
STACK CFI 62a52 .cfa: $rsp 32 +
STACK CFI 62a54 .cfa: $rsp 24 +
STACK CFI 62a56 .cfa: $rsp 16 +
STACK CFI 62a58 .cfa: $rsp 8 +
STACK CFI 62a60 .cfa: $rsp 256 +
STACK CFI INIT 62af0 8f .cfa: $rsp 8 + .ra: .cfa -8 + ^
STACK CFI 62af1 $rbp: .cfa -16 + ^ .cfa: $rsp 16 +
STACK CFI 62af5 $rbx: .cfa -24 + ^ .cfa: $rsp 24 +
STACK CFI 62afc .cfa: $rsp 64 +
STACK CFI 62b69 .cfa: $rsp 24 +
STACK CFI 62b6a .cfa: $rsp 16 +
STACK CFI 62b6b .cfa: $rsp 8 +
STACK CFI 62b70 .cfa: $rsp 64 +
STACK CFI 62b7c .cfa: $rsp 24 +
STACK CFI 62b7d .cfa: $rsp 16 +
STACK CFI 62b7e .cfa: $rsp 8 +
STACK CFI INIT 62b80 885 .cfa: $rsp 8 + .ra: .cfa -8 + ^
STACK CFI 62b82 $r13: .cfa -16 + ^ .cfa: $rsp 16 +
STACK CFI 62b84 $r12: .cfa -24 + ^ .cfa: $rsp 24 +
STACK CFI 62b85 $rbp: .cfa -32 + ^ .cfa: $rsp 32 +
STACK CFI 62b89 $rbx: .cfa -40 + ^ .cfa: $rsp 40 +
STACK CFI 62b93 .cfa: $rsp 208 +
STACK CFI 62d77 .cfa: $rsp 40 +
STACK CFI 62d78 .cfa: $rsp 32 +
STACK CFI 62d79 .cfa: $rsp 24 +
STACK CFI 62d7b .cfa: $rsp 16 +
STACK CFI 62d7d .cfa: $rsp 8 +
STACK CFI 62d80 .cfa: $rsp 208 +
STACK CFI INIT 97cd0 1bb .cfa: $rsp 8 + .ra: .cfa -8 + ^
STACK CFI 97cd2 $r13: .cfa -16 + ^ .cfa: $rsp 16 +
STACK CFI 97cd4 $r12: .cfa -24 + ^ .cfa: $rsp 24 +
STACK CFI 97cd8 $rbp: .cfa -32 + ^ .cfa: $rsp 32 +
STACK CFI 97cdc $rbx: .cfa -40 + ^ .cfa: $rsp 40 +
STACK CFI 97ce0 .cfa: $rsp 48 +
STACK CFI 97d7d .cfa: $rsp 40 +
STACK CFI 97d7e .cfa: $rsp 32 +
STACK CFI 97d7f .cfa: $rsp 24 +
STACK CFI 97d81 .cfa: $rsp 16 +
STACK CFI 97d83 .cfa: $rsp 8 +
STACK CFI 97d88 .cfa: $rsp 48 +
STACK CFI 97db5 .cfa: $rsp 40 +
STACK CFI 97db6 .cfa: $rsp 32 +
STACK CFI 97db7 .cfa: $rsp 24 +
STACK CFI 97db9 .cfa: $rsp 16 +
STACK CFI 97dbb .cfa: $rsp 8 +
STACK CFI 97dbc .cfa: $rsp 48 +
STACK CFI INIT 97e90 94 .cfa: $rsp 8 + .ra: .cfa -8 + ^
STACK CFI 97e91 $rbp: .cfa -16 + ^ .cfa: $rsp 16 +
STACK CFI 97e92 $rbx: .cfa -24 + ^ .cfa: $rsp 24 +
STACK CFI 97e99 .cfa: $rsp 32 +
STACK CFI 97ee8 .cfa: $rsp 24 +
STACK CFI 97ee9 .cfa: $rsp 16 +
STACK CFI 97eea .cfa: $rsp 8 +
STACK CFI 97ef0 .cfa: $rsp 32 +
STACK CFI 97f21 .cfa: $rsp 24 +
STACK CFI 97f22 .cfa: $rsp 16 +
STACK CFI 97f23 .cfa: $rsp 8 +
STACK CFI INIT 63410 2d5 .cfa: $rsp 8 + .ra: .cfa -8 + ^
STACK CFI 63412 $r15: .cfa -16 + ^ .cfa: $rsp 16 +
STACK CFI 63414 $r14: .cfa -24 + ^ .cfa: $rsp 24 +
STACK CFI 63416 $r13: .cfa -32 + ^ .cfa: $rsp 32 +
STACK CFI 63418 $r12: .cfa -40 + ^ .cfa: $rsp 40 +
STACK CFI 6341c $rbp: .cfa -48 + ^ .cfa: $rsp 48 +
STACK CFI 6341d $rbx: .cfa -56 + ^ .cfa: $rsp 56 +
STACK CFI 63421 .cfa: $rsp 128 +
STACK CFI 635f5 .cfa: $rsp 56 +
STACK CFI 635f9 .cfa: $rsp 48 +
STACK CFI 635fa .cfa: $rsp 40 +
STACK CFI 635fc .cfa: $rsp 32 +
STACK CFI 635fe .cfa: $rsp 24 +
STACK CFI 63600 .cfa: $rsp 16 +
STACK CFI 63602 .cfa: $rsp 8 +
STACK CFI 63608 .cfa: $rsp 128 +
STACK CFI INIT 636f0 29b .cfa: $rsp 8 + .ra: .cfa -8 + ^
STACK CFI 636f2 $r15: .cfa -16 + ^ .cfa: $rsp 16 +
STACK CFI 636f4 $r14: .cfa -24 + ^ .cfa: $rsp 24 +
STACK CFI 636f6 $r13: .cfa -32 + ^ .cfa: $rsp 32 +
STACK CFI 636fb $r12: .cfa -40 + ^ .cfa: $rsp 40 +
STACK CFI 636fc $rbp: .cfa -48 + ^ .cfa: $rsp 48 +
STACK CFI 636fd $rbx: .cfa -56 + ^ .cfa: $rsp 56 +
STACK CFI 63701 .cfa: $rsp 128 +
STACK CFI 638bf .cfa: $rsp 56 +
STACK CFI 638c3 .cfa: $rsp 48 +
STACK CFI 638c4 .cfa: $rsp 40 +
STACK CFI 638c6 .cfa: $rsp 32 +
STACK CFI 638c8 .cfa: $rsp 24 +
STACK CFI 638ca .cfa: $rsp 16 +
STACK CFI 638cc .cfa: $rsp 8 +
STACK CFI 638d0 .cfa: $rsp 128 +
STACK CFI INIT 63990 2c .cfa: $rsp 8 + .ra: .cfa -8 + ^
STACK CFI 63991 $rbp: .cfa -16 + ^ .cfa: $rsp 16 +
STACK CFI 63995 $rbx: .cfa -24 + ^ .cfa: $rsp 24 +
STACK CFI 63999 .cfa: $rsp 48 +
STACK CFI 639b7 .cfa: $rsp 24 +
STACK CFI 639ba .cfa: $rsp 16 +
STACK CFI 639bb .cfa: $rsp 8 +
STACK CFI INIT 639c0 10c .cfa: $rsp 8 + .ra: .cfa -8 + ^
STACK CFI 639c2 $r13: .cfa -16 + ^ .cfa: $rsp 16 +
STACK CFI 639c4 $r12: .cfa -24 + ^ .cfa: $rsp 24 +
STACK CFI 639c5 $rbp: .cfa -32 + ^ .cfa: $rsp 32 +
STACK CFI 639c6 $rbx: .cfa -40 + ^ .cfa: $rsp 40 +
STACK CFI 639d0 .cfa: $rsp 112 +
STACK CFI 63a8d .cfa: $rsp 40 +
STACK CFI 63a91 .cfa: $rsp 32 +
STACK CFI 63a92 .cfa: $rsp 24 +
STACK CFI 63a94 .cfa: $rsp 16 +
STACK CFI 63a96 .cfa: $rsp 8 +
STACK CFI 63aa0 .cfa: $rsp 112 +
STACK CFI INIT 63ad0 20a .cfa: $rsp 8 + .ra: .cfa -8 + ^
STACK CFI 63ad2 $r14: .cfa -16 + ^ .cfa: $rsp 16 +
STACK CFI 63ad4 $r13: .cfa -24 + ^ .cfa: $rsp 24 +
STACK CFI 63ad6 $r12: .cfa -32 + ^ .cfa: $rsp 32 +
STACK CFI 63ada $rbp: .cfa -40 + ^ .cfa: $rsp 40 +
STACK CFI 63adb $rbx: .cfa -48 + ^ .cfa: $rsp 48 +
STACK CFI 63ae2 .cfa: $rsp 96 +
STACK CFI 63bd3 .cfa: $rsp 48 +
STACK CFI 63bd4 .cfa: $rsp 40 +
STACK CFI 63bd5 .cfa: $rsp 32 +
STACK CFI 63bd7 .cfa: $rsp 24 +
STACK CFI 63bd9 .cfa: $rsp 16 +
STACK CFI 63bdb .cfa: $rsp 8 +
STACK CFI 63be0 .cfa: $rsp 96 +
STACK CFI INIT 97f30 a6 .cfa: $rsp 8 + .ra: .cfa -8 + ^
STACK CFI 97f32 $r13: .cfa -16 + ^ .cfa: $rsp 16 +
STACK CFI 97f34 $r12: .cfa -24 + ^ .cfa: $rsp 24 +
STACK CFI 97f38 $rbp: .cfa -32 + ^ .cfa: $rsp 32 +
STACK CFI 97f39 $rbx: .cfa -40 + ^ .cfa: $rsp 40 +
STACK CFI 97f3d .cfa: $rsp 48 +
STACK CFI 97fae .cfa: $rsp 40 +
STACK CFI 97fb2 .cfa: $rsp 32 +
STACK CFI 97fb3 .cfa: $rsp 24 +
STACK CFI 97fb5 .cfa: $rsp 16 +
STACK CFI 97fb7 .cfa: $rsp 8 +
STACK CFI 97fc0 .cfa: $rsp 48 +
STACK CFI INIT 63ce0 eb .cfa: $rsp 8 + .ra: .cfa -8 + ^
STACK CFI 63ce1 $rbp: .cfa -16 + ^ .cfa: $rsp 16 +
STACK CFI 63ce5 $rbx: .cfa -24 + ^ .cfa: $rsp 24 +
STACK CFI 63cec .cfa: $rsp 48 +
STACK CFI 63da2 .cfa: $rsp 24 +
STACK CFI 63da3 .cfa: $rsp 16 +
STACK CFI 63da4 .cfa: $rsp 8 +
STACK CFI 63da8 .cfa: $rsp 48 +
STACK CFI 63dbc .cfa: $rsp 24 +
STACK CFI 63dbd .cfa: $rsp 16 +
STACK CFI 63dbe .cfa: $rsp 8 +
STACK CFI 63dbf .cfa: $rsp 48 +
STACK CFI INIT 63dd0 a66 .cfa: $rsp 8 + .ra: .cfa -8 + ^
STACK CFI 63dd1 $rbp: .cfa -16 + ^ .cfa: $rsp 16 +
STACK CFI 63dd4 $rbx: .cfa -24 + ^ .cfa: $rsp 24 +
STACK CFI 63ddb .cfa: $rsp 48 +
STACK CFI 63f1f .cfa: $rsp 24 +
STACK CFI 63f20 .cfa: $rsp 16 +
STACK CFI 63f21 .cfa: $rsp 8 +
STACK CFI 63f28 .cfa: $rsp 48 +
STACK CFI INIT 64840 77 .cfa: $rsp 8 + .ra: .cfa -8 + ^
STACK CFI 64842 $r12: .cfa -16 + ^ .cfa: $rsp 16 +
STACK CFI 64857 $rbp: .cfa -24 + ^ .cfa: $rsp 24 +
STACK CFI 6485c $rbx: .cfa -32 + ^ .cfa: $rsp 32 +
STACK CFI 64897 .cfa: $rsp 24 +
STACK CFI 64898 .cfa: $rsp 16 +
STACK CFI 6489a .cfa: $rsp 8 +
STACK CFI 6489b .cfa: $rsp 32 +
STACK CFI INIT 648c0 21c .cfa: $rsp 8 + .ra: .cfa -8 + ^
STACK CFI 648c2 $r13: .cfa -16 + ^ .cfa: $rsp 16 +
STACK CFI 648c8 $r12: .cfa -24 + ^ .cfa: $rsp 24 +
STACK CFI 648cc $rbp: .cfa -32 + ^ .cfa: $rsp 32 +
STACK CFI 648d0 $rbx: .cfa -40 + ^ .cfa: $rsp 40 +
STACK CFI 648d4 .cfa: $rsp 48 +
STACK CFI 64996 .cfa: $rsp 40 +
STACK CFI 6499a .cfa: $rsp 32 +
STACK CFI 6499b .cfa: $rsp 24 +
STACK CFI 6499d .cfa: $rsp 16 +
STACK CFI 6499f .cfa: $rsp 8 +
STACK CFI 649a0 .cfa: $rsp 48 +
STACK CFI INIT 64ae0 664 .cfa: $rsp 8 + .ra: .cfa -8 + ^
STACK CFI 64ae2 $r15: .cfa -16 + ^ .cfa: $rsp 16 +
STACK CFI 64ae4 $r14: .cfa -24 + ^ .cfa: $rsp 24 +
STACK CFI 64ae6 $r13: .cfa -32 + ^ .cfa: $rsp 32 +
STACK CFI 64ae8 $r12: .cfa -40 + ^ .cfa: $rsp 40 +
STACK CFI 64ae9 $rbp: .cfa -48 + ^ .cfa: $rsp 48 +
STACK CFI 64aea $rbx: .cfa -56 + ^ .cfa: $rsp 56 +
STACK CFI 64af4 .cfa: $rsp 192 +
STACK CFI 64f4b .cfa: $rsp 56 +
STACK CFI 64f4c .cfa: $rsp 48 +
STACK CFI 64f4d .cfa: $rsp 40 +
STACK CFI 64f4f .cfa: $rsp 32 +
STACK CFI 64f51 .cfa: $rsp 24 +
STACK CFI 64f53 .cfa: $rsp 16 +
STACK CFI 64f55 .cfa: $rsp 8 +
STACK CFI 64f60 .cfa: $rsp 192 +
STACK CFI INIT 65150 395 .cfa: $rsp 8 + .ra: .cfa -8 + ^
STACK CFI 65152 $r15: .cfa -16 + ^ .cfa: $rsp 16 +
STACK CFI 65157 $r14: .cfa -24 + ^ .cfa: $rsp 24 +
STACK CFI 65159 $r13: .cfa -32 + ^ .cfa: $rsp 32 +
STACK CFI 6515b $r12: .cfa -40 + ^ .cfa: $rsp 40 +
STACK CFI 6515c $rbp: .cfa -48 + ^ .cfa: $rsp 48 +
STACK CFI 6515d $rbx: .cfa -56 + ^ .cfa: $rsp 56 +
STACK CFI 65161 .cfa: $rsp 128 +
STACK CFI 652c8 .cfa: $rsp 56 +
STACK CFI 652c9 .cfa: $rsp 48 +
STACK CFI 652ca .cfa: $rsp 40 +
STACK CFI 652cc .cfa: $rsp 32 +
STACK CFI 652ce .cfa: $rsp 24 +
STACK CFI 652d0 .cfa: $rsp 16 +
STACK CFI 652d2 .cfa: $rsp 8 +
STACK CFI 652d8 .cfa: $rsp 128 +
STACK CFI 653e8 .cfa: $rsp 56 +
STACK CFI 653e9 .cfa: $rsp 48 +
STACK CFI 653ea .cfa: $rsp 40 +
STACK CFI 653ec .cfa: $rsp 32 +
STACK CFI 653ee .cfa: $rsp 24 +
STACK CFI 653f0 .cfa: $rsp 16 +
STACK CFI 653f2 .cfa: $rsp 8 +
STACK CFI 653f8 .cfa: $rsp 128 +
STACK CFI 65462 .cfa: $rsp 56 +
STACK CFI 65463 .cfa: $rsp 48 +
STACK CFI 65464 .cfa: $rsp 40 +
STACK CFI 65466 .cfa: $rsp 32 +
STACK CFI 65468 .cfa: $rsp 24 +
STACK CFI 6546a .cfa: $rsp 16 +
STACK CFI 6546c .cfa: $rsp 8 +
STACK CFI 65470 .cfa: $rsp 128 +
STACK CFI INIT 654f0 12f .cfa: $rsp 8 + .ra: .cfa -8 + ^
STACK CFI 654f1 $rbp: .cfa -16 + ^ .cfa: $rsp 16 +
STACK CFI 654f5 $rbx: .cfa -24 + ^ .cfa: $rsp 24 +
STACK CFI 654fc .cfa: $rsp 48 +
STACK CFI 65567 .cfa: $rsp 24 +
STACK CFI 65568 .cfa: $rsp 16 +
STACK CFI 65569 .cfa: $rsp 8 +
STACK CFI 65570 .cfa: $rsp 48 +
STACK CFI INIT 97fe0 66 .cfa: $rsp 8 + .ra: .cfa -8 + ^
STACK CFI 97fe2 $r12: .cfa -16 + ^ .cfa: $rsp 16 +
STACK CFI 97ff5 $rbp: .cfa -24 + ^ .cfa: $rsp 24 +
STACK CFI 97ffd $rbx: .cfa -32 + ^ .cfa: $rsp 32 +
STACK CFI 98024 .cfa: $rsp 24 +
STACK CFI 98025 .cfa: $rsp 16 +
STACK CFI 98027 .cfa: $rsp 8 +
STACK CFI 98030 .cfa: $rsp 32 +
STACK CFI INIT 65620 11f .cfa: $rsp 8 + .ra: .cfa -8 + ^
STACK CFI 65621 $rbp: .cfa -16 + ^ .cfa: $rsp 16 +
STACK CFI 65625 $rbx: .cfa -24 + ^ .cfa: $rsp 24 +
STACK CFI 65629 .cfa: $rsp 64 +
STACK CFI 656f8 .cfa: $rsp 24 +
STACK CFI 656fc .cfa: $rsp 16 +
STACK CFI 656fd .cfa: $rsp 8 +
STACK CFI 65700 .cfa: $rsp 64 +
STACK CFI 65713 .cfa: $rsp 24 +
STACK CFI 65717 .cfa: $rsp 16 +
STACK CFI 65718 .cfa: $rsp 8 +
STACK CFI 65719 .cfa: $rsp 64 +
STACK CFI INIT 65740 e2 .cfa: $rsp 8 + .ra: .cfa -8 + ^
STACK CFI 65742 $r13: .cfa -16 + ^ .cfa: $rsp 16 +
STACK CFI 65744 $r12: .cfa -24 + ^ .cfa: $rsp 24 +
STACK CFI 65748 $rbp: .cfa -32 + ^ .cfa: $rsp 32 +
STACK CFI 6574c $rbx: .cfa -40 + ^ .cfa: $rsp 40 +
STACK CFI 65750 .cfa: $rsp 64 +
STACK CFI 657a1 .cfa: $rsp 40 +
STACK CFI 657a2 .cfa: $rsp 32 +
STACK CFI 657a3 .cfa: $rsp 24 +
STACK CFI 657a5 .cfa: $rsp 16 +
STACK CFI 657a7 .cfa: $rsp 8 +
STACK CFI 657b0 .cfa: $rsp 64 +
STACK CFI INIT 65830 1f7 .cfa: $rsp 8 + .ra: .cfa -8 + ^
STACK CFI 65832 $r14: .cfa -16 + ^ .cfa: $rsp 16 +
STACK CFI 65834 $r13: .cfa -24 + ^ .cfa: $rsp 24 +
STACK CFI 65836 $r12: .cfa -32 + ^ .cfa: $rsp 32 +
STACK CFI 6583a $rbp: .cfa -40 + ^ .cfa: $rsp 40 +
STACK CFI 6583b $rbx: .cfa -48 + ^ .cfa: $rsp 48 +
STACK CFI 6583f .cfa: $rsp 128 +
STACK CFI 659ad .cfa: $rsp 48 +
STACK CFI 659b1 .cfa: $rsp 40 +
STACK CFI 659b2 .cfa: $rsp 32 +
STACK CFI 659b4 .cfa: $rsp 24 +
STACK CFI 659b6 .cfa: $rsp 16 +
STACK CFI 659b8 .cfa: $rsp 8 +
STACK CFI 659b9 .cfa: $rsp 128 +
STACK CFI INIT 65a30 1bb .cfa: $rsp 8 + .ra: .cfa -8 + ^
STACK CFI 65a32 $r13: .cfa -16 + ^ .cfa: $rsp 16 +
STACK CFI 65a3b $r12: .cfa -24 + ^ .cfa: $rsp 24 +
STACK CFI 65a3c $rbp: .cfa -32 + ^ .cfa: $rsp 32 +
STACK CFI 65a3d $rbx: .cfa -40 + ^ .cfa: $rsp 40 +
STACK CFI 65a41 .cfa: $rsp 128 +
STACK CFI 65b94 .cfa: $rsp 40 +
STACK CFI 65b95 .cfa: $rsp 32 +
STACK CFI 65b96 .cfa: $rsp 24 +
STACK CFI 65b98 .cfa: $rsp 16 +
STACK CFI 65b9a .cfa: $rsp 8 +
STACK CFI 65b9b .cfa: $rsp 128 +
STACK CFI INIT 98050 234 .cfa: $rsp 8 + .ra: .cfa -8 + ^
STACK CFI 98052 $r15: .cfa -16 + ^ .cfa: $rsp 16 +
STACK CFI 98056 $r14: .cfa -24 + ^ .cfa: $rsp 24 +
STACK CFI 98058 $r13: .cfa -32 + ^ .cfa: $rsp 32 +
STACK CFI 9805d $r12: .cfa -40 + ^ .cfa: $rsp 40 +
STACK CFI 9805e $rbp: .cfa -48 + ^ .cfa: $rsp 48 +
STACK CFI 9805f $rbx: .cfa -56 + ^ .cfa: $rsp 56 +
STACK CFI 98063 .cfa: $rsp 80 +
STACK CFI 98168 .cfa: $rsp 56 +
STACK CFI 98169 .cfa: $rsp 48 +
STACK CFI 9816a .cfa: $rsp 40 +
STACK CFI 9816c .cfa: $rsp 32 +
STACK CFI 9816e .cfa: $rsp 24 +
STACK CFI 98170 .cfa: $rsp 16 +
STACK CFI 98176 .cfa: $rsp 8 +
STACK CFI 98180 .cfa: $rsp 80 +
STACK CFI INIT 98290 a8 .cfa: $rsp 8 + .ra: .cfa -8 + ^
STACK CFI 98292 $r12: .cfa -16 + ^ .cfa: $rsp 16 +
STACK CFI 98293 $rbp: .cfa -24 + ^ .cfa: $rsp 24 +
STACK CFI 98297 $rbx: .cfa -32 + ^ .cfa: $rsp 32 +
STACK CFI 982c8 .cfa: $rsp 24 +
STACK CFI 982c9 .cfa: $rsp 16 +
STACK CFI 982cb .cfa: $rsp 8 +
STACK CFI 982d0 .cfa: $rsp 32 +
STACK CFI 982ec .cfa: $rsp 24 +
STACK CFI 982ed .cfa: $rsp 16 +
STACK CFI 982ef .cfa: $rsp 8 +
STACK CFI 982f0 .cfa: $rsp 32 +
STACK CFI INIT 65bf0 1e2 .cfa: $rsp 8 + .ra: .cfa -8 + ^
STACK CFI 65bf2 $r15: .cfa -16 + ^ .cfa: $rsp 16 +
STACK CFI 65bf4 $r14: .cfa -24 + ^ .cfa: $rsp 24 +
STACK CFI 65bf6 $r13: .cfa -32 + ^ .cfa: $rsp 32 +
STACK CFI 65bf8 $r12: .cfa -40 + ^ .cfa: $rsp 40 +
STACK CFI 65bfc $rbp: .cfa -48 + ^ .cfa: $rsp 48 +
STACK CFI 65bfd $rbx: .cfa -56 + ^ .cfa: $rsp 56 +
STACK CFI 65c04 .cfa: $rsp 144 +
STACK CFI 65d94 .cfa: $rsp 56 +
STACK CFI 65d95 .cfa: $rsp 48 +
STACK CFI 65d96 .cfa: $rsp 40 +
STACK CFI 65d98 .cfa: $rsp 32 +
STACK CFI 65d9a .cfa: $rsp 24 +
STACK CFI 65d9c .cfa: $rsp 16 +
STACK CFI 65d9e .cfa: $rsp 8 +
STACK CFI 65d9f .cfa: $rsp 144 +
STACK CFI INIT 65de0 1e2 .cfa: $rsp 8 + .ra: .cfa -8 + ^
STACK CFI 65de2 $r15: .cfa -16 + ^ .cfa: $rsp 16 +
STACK CFI 65de4 $r14: .cfa -24 + ^ .cfa: $rsp 24 +
STACK CFI 65de6 $r13: .cfa -32 + ^ .cfa: $rsp 32 +
STACK CFI 65de8 $r12: .cfa -40 + ^ .cfa: $rsp 40 +
STACK CFI 65dec $rbp: .cfa -48 + ^ .cfa: $rsp 48 +
STACK CFI 65ded $rbx: .cfa -56 + ^ .cfa: $rsp 56 +
STACK CFI 65df4 .cfa: $rsp 144 +
STACK CFI 65f84 .cfa: $rsp 56 +
STACK CFI 65f85 .cfa: $rsp 48 +
STACK CFI 65f86 .cfa: $rsp 40 +
STACK CFI 65f88 .cfa: $rsp 32 +
STACK CFI 65f8a .cfa: $rsp 24 +
STACK CFI 65f8c .cfa: $rsp 16 +
STACK CFI 65f8e .cfa: $rsp 8 +
STACK CFI 65f8f .cfa: $rsp 144 +
STACK CFI INIT 65fd0 665 .cfa: $rsp 8 + .ra: .cfa -8 + ^
STACK CFI 65fd2 $r15: .cfa -16 + ^ .cfa: $rsp 16 +
STACK CFI 65fd4 $r14: .cfa -24 + ^ .cfa: $rsp 24 +
STACK CFI 65fd6 $r13: .cfa -32 + ^ .cfa: $rsp 32 +
STACK CFI 65fd8 $r12: .cfa -40 + ^ .cfa: $rsp 40 +
STACK CFI 65fd9 $rbp: .cfa -48 + ^ .cfa: $rsp 48 +
STACK CFI 65fda $rbx: .cfa -56 + ^ .cfa: $rsp 56 +
STACK CFI 65fe4 .cfa: $rsp 192 +
STACK CFI 66064 .cfa: $rsp 56 +
STACK CFI 66065 .cfa: $rsp 48 +
STACK CFI 66066 .cfa: $rsp 40 +
STACK CFI 66068 .cfa: $rsp 32 +
STACK CFI 6606a .cfa: $rsp 24 +
STACK CFI 6606c .cfa: $rsp 16 +
STACK CFI 6606e .cfa: $rsp 8 +
STACK CFI 6606f .cfa: $rsp 192 +
STACK CFI INIT 66640 227 .cfa: $rsp 8 + .ra: .cfa -8 + ^
STACK CFI 66642 $r14: .cfa -16 + ^ .cfa: $rsp 16 +
STACK CFI 66644 $r13: .cfa -24 + ^ .cfa: $rsp 24 +
STACK CFI 66646 $r12: .cfa -32 + ^ .cfa: $rsp 32 +
STACK CFI 6664a $rbp: .cfa -40 + ^ .cfa: $rsp 40 +
STACK CFI 6664e $rbx: .cfa -48 + ^ .cfa: $rsp 48 +
STACK CFI 66652 .cfa: $rsp 96 +
STACK CFI 666bc .cfa: $rsp 48 +
STACK CFI 666bd .cfa: $rsp 40 +
STACK CFI 666be .cfa: $rsp 32 +
STACK CFI 666c0 .cfa: $rsp 24 +
STACK CFI 666c2 .cfa: $rsp 16 +
STACK CFI 666c4 .cfa: $rsp 8 +
STACK CFI 666c8 .cfa: $rsp 96 +
STACK CFI INIT 66870 27f .cfa: $rsp 8 + .ra: .cfa -8 + ^
STACK CFI 66872 $r15: .cfa -16 + ^ .cfa: $rsp 16 +
STACK CFI 66877 $r14: .cfa -24 + ^ .cfa: $rsp 24 +
STACK CFI 6687c $r13: .cfa -32 + ^ .cfa: $rsp 32 +
STACK CFI 66881 $r12: .cfa -40 + ^ .cfa: $rsp 40 +
STACK CFI 66885 $rbp: .cfa -48 + ^ .cfa: $rsp 48 +
STACK CFI 66886 $rbx: .cfa -56 + ^ .cfa: $rsp 56 +
STACK CFI 6688a .cfa: $rsp 144 +
STACK CFI 66ab3 .cfa: $rsp 56 +
STACK CFI 66ab4 .cfa: $rsp 48 +
STACK CFI 66ab5 .cfa: $rsp 40 +
STACK CFI 66ab7 .cfa: $rsp 32 +
STACK CFI 66ab9 .cfa: $rsp 24 +
STACK CFI 66abb .cfa: $rsp 16 +
STACK CFI 66abd .cfa: $rsp 8 +
STACK CFI 66abe .cfa: $rsp 144 +
STACK CFI INIT 98340 e9 .cfa: $rsp 8 + .ra: .cfa -8 + ^
STACK CFI 98342 $r13: .cfa -16 + ^ .cfa: $rsp 16 +
STACK CFI 98347 $r12: .cfa -24 + ^ .cfa: $rsp 24 +
STACK CFI 98348 $rbp: .cfa -32 + ^ .cfa: $rsp 32 +
STACK CFI 9834c $rbx: .cfa -40 + ^ .cfa: $rsp 40 +
STACK CFI 98350 .cfa: $rsp 48 +
STACK CFI 98408 .cfa: $rsp 40 +
STACK CFI 9840c .cfa: $rsp 32 +
STACK CFI 9840d .cfa: $rsp 24 +
STACK CFI 9840f .cfa: $rsp 16 +
STACK CFI 98411 .cfa: $rsp 8 +
STACK CFI 98418 .cfa: $rsp 48 +
STACK CFI INIT 66af0 60 .cfa: $rsp 8 + .ra: .cfa -8 + ^
STACK CFI 66af2 $r12: .cfa -16 + ^ .cfa: $rsp 16 +
STACK CFI 66af3 $rbp: .cfa -24 + ^ .cfa: $rsp 24 +
STACK CFI 66af4 $rbx: .cfa -32 + ^ .cfa: $rsp 32 +
STACK CFI 66af8 .cfa: $rsp 48 +
STACK CFI 66b4b .cfa: $rsp 32 +
STACK CFI 66b4c .cfa: $rsp 24 +
STACK CFI 66b4d .cfa: $rsp 16 +
STACK CFI 66b4f .cfa: $rsp 8 +
STACK CFI INIT 66b50 a3 .cfa: $rsp 8 + .ra: .cfa -8 + ^
STACK CFI 66b52 $r12: .cfa -16 + ^ .cfa: $rsp 16 +
STACK CFI 66b56 $rbp: .cfa -24 + ^ .cfa: $rsp 24 +
STACK CFI 66b57 $rbx: .cfa -32 + ^ .cfa: $rsp 32 +
STACK CFI 66b5b .cfa: $rsp 48 +
STACK CFI 66bcb .cfa: $rsp 32 +
STACK CFI 66bcc .cfa: $rsp 24 +
STACK CFI 66bcd .cfa: $rsp 16 +
STACK CFI 66bcf .cfa: $rsp 8 +
STACK CFI 66bd0 .cfa: $rsp 48 +
STACK CFI INIT 66c00 ee .cfa: $rsp 8 + .ra: .cfa -8 + ^
STACK CFI 66c02 $r12: .cfa -16 + ^ .cfa: $rsp 16 +
STACK CFI 66c06 $rbp: .cfa -24 + ^ .cfa: $rsp 24 +
STACK CFI 66c07 $rbx: .cfa -32 + ^ .cfa: $rsp 32 +
STACK CFI 66c0b .cfa: $rsp 48 +
STACK CFI 66c22 .cfa: $rsp 32 +
STACK CFI 66c23 .cfa: $rsp 24 +
STACK CFI 66c24 .cfa: $rsp 16 +
STACK CFI 66c26 .cfa: $rsp 8 +
STACK CFI 66c30 .cfa: $rsp 48 +
STACK CFI 66cdd .cfa: $rsp 32 +
STACK CFI 66cde .cfa: $rsp 24 +
STACK CFI 66cdf .cfa: $rsp 16 +
STACK CFI 66ce1 .cfa: $rsp 8 +
STACK CFI 66ce8 .cfa: $rsp 48 +
STACK CFI INIT 66cf0 2a0 .cfa: $rsp 8 + .ra: .cfa -8 + ^
STACK CFI 66cf2 $r14: .cfa -16 + ^ .cfa: $rsp 16 +
STACK CFI 66cf4 $r13: .cfa -24 + ^ .cfa: $rsp 24 +
STACK CFI 66cf6 $r12: .cfa -32 + ^ .cfa: $rsp 32 +
STACK CFI 66cf7 $rbp: .cfa -40 + ^ .cfa: $rsp 40 +
STACK CFI 66cf8 $rbx: .cfa -48 + ^ .cfa: $rsp 48 +
STACK CFI 66cff .cfa: $rsp 112 +
STACK CFI 66e7a .cfa: $rsp 48 +
STACK CFI 66e7b .cfa: $rsp 40 +
STACK CFI 66e7c .cfa: $rsp 32 +
STACK CFI 66e7e .cfa: $rsp 24 +
STACK CFI 66e80 .cfa: $rsp 16 +
STACK CFI 66e82 .cfa: $rsp 8 +
STACK CFI 66e88 .cfa: $rsp 112 +
STACK CFI 66e97 .cfa: $rsp 48 +
STACK CFI 66e98 .cfa: $rsp 40 +
STACK CFI 66e99 .cfa: $rsp 32 +
STACK CFI 66e9b .cfa: $rsp 24 +
STACK CFI 66e9d .cfa: $rsp 16 +
STACK CFI 66e9f .cfa: $rsp 8 +
STACK CFI 66ea0 .cfa: $rsp 112 +
STACK CFI INIT 66f90 d05 .cfa: $rsp 8 + .ra: .cfa -8 + ^
STACK CFI 66f92 $r15: .cfa -16 + ^ .cfa: $rsp 16 +
STACK CFI 66f97 $r14: .cfa -24 + ^ .cfa: $rsp 24 +
STACK CFI 66f9c $r13: .cfa -32 + ^ .cfa: $rsp 32 +
STACK CFI 66f9e $r12: .cfa -40 + ^ .cfa: $rsp 40 +
STACK CFI 66fa2 $rbp: .cfa -48 + ^ .cfa: $rsp 48 +
STACK CFI 66fa3 $rbx: .cfa -56 + ^ .cfa: $rsp 56 +
STACK CFI 66fad .cfa: $rsp 256 +
STACK CFI 6716a .cfa: $rsp 56 +
STACK CFI 6716b .cfa: $rsp 48 +
STACK CFI 6716c .cfa: $rsp 40 +
STACK CFI 6716e .cfa: $rsp 32 +
STACK CFI 67170 .cfa: $rsp 24 +
STACK CFI 67172 .cfa: $rsp 16 +
STACK CFI 67174 .cfa: $rsp 8 +
STACK CFI 67178 .cfa: $rsp 256 +
STACK CFI INIT 67ca0 a .cfa: $rsp 8 + .ra: .cfa -8 + ^
STACK CFI INIT 67cb0 45b .cfa: $rsp 8 + .ra: .cfa -8 + ^
STACK CFI 67cb2 $r15: .cfa -16 + ^ .cfa: $rsp 16 +
STACK CFI 67cb4 $r14: .cfa -24 + ^ .cfa: $rsp 24 +
STACK CFI 67cb9 $r13: .cfa -32 + ^ .cfa: $rsp 32 +
STACK CFI 67cbb $r12: .cfa -40 + ^ .cfa: $rsp 40 +
STACK CFI 67cbc $rbp: .cfa -48 + ^ .cfa: $rsp 48 +
STACK CFI 67cbd $rbx: .cfa -56 + ^ .cfa: $rsp 56 +
STACK CFI 67cc4 .cfa: $rsp 128 +
STACK CFI 67ef2 .cfa: $rsp 56 +
STACK CFI 67ef3 .cfa: $rsp 48 +
STACK CFI 67ef4 .cfa: $rsp 40 +
STACK CFI 67ef6 .cfa: $rsp 32 +
STACK CFI 67ef8 .cfa: $rsp 24 +
STACK CFI 67efa .cfa: $rsp 16 +
STACK CFI 67efc .cfa: $rsp 8 +
STACK CFI 67f00 .cfa: $rsp 128 +
STACK CFI 67f39 .cfa: $rsp 56 +
STACK CFI 67f3a .cfa: $rsp 48 +
STACK CFI 67f3b .cfa: $rsp 40 +
STACK CFI 67f3d .cfa: $rsp 32 +
STACK CFI 67f3f .cfa: $rsp 24 +
STACK CFI 67f41 .cfa: $rsp 16 +
STACK CFI 67f43 .cfa: $rsp 8 +
STACK CFI 67f48 .cfa: $rsp 128 +
STACK CFI INIT 68110 6be .cfa: $rsp 8 + .ra: .cfa -8 + ^
STACK CFI 68112 $r15: .cfa -16 + ^ .cfa: $rsp 16 +
STACK CFI 68114 $r14: .cfa -24 + ^ .cfa: $rsp 24 +
STACK CFI 68116 $r13: .cfa -32 + ^ .cfa: $rsp 32 +
STACK CFI 6811b $r12: .cfa -40 + ^ .cfa: $rsp 40 +
STACK CFI 6811c $rbp: .cfa -48 + ^ .cfa: $rsp 48 +
STACK CFI 6811d $rbx: .cfa -56 + ^ .cfa: $rsp 56 +
STACK CFI 68124 .cfa: $rsp 144 +
STACK CFI 683d2 .cfa: $rsp 56 +
STACK CFI 683d3 .cfa: $rsp 48 +
STACK CFI 683d4 .cfa: $rsp 40 +
STACK CFI 683d6 .cfa: $rsp 32 +
STACK CFI 683d8 .cfa: $rsp 24 +
STACK CFI 683da .cfa: $rsp 16 +
STACK CFI 683dc .cfa: $rsp 8 +
STACK CFI 683e0 .cfa: $rsp 144 +
STACK CFI 684a1 .cfa: $rsp 56 +
STACK CFI 684a2 .cfa: $rsp 48 +
STACK CFI 684a3 .cfa: $rsp 40 +
STACK CFI 684a5 .cfa: $rsp 32 +
STACK CFI 684a7 .cfa: $rsp 24 +
STACK CFI 684a9 .cfa: $rsp 16 +
STACK CFI 684ab .cfa: $rsp 8 +
STACK CFI 684b0 .cfa: $rsp 144 +
STACK CFI INIT 687d0 159 .cfa: $rsp 8 + .ra: .cfa -8 + ^
STACK CFI 687d7 $rbp: .cfa -16 + ^ .cfa: $rsp 16 +
STACK CFI 687db $rbx: .cfa -24 + ^ .cfa: $rsp 24 +
STACK CFI 687df .cfa: $rsp 48 +
STACK CFI 687f4 .cfa: $rsp 24 +
STACK CFI 687f5 $rbx: $rbx .cfa: $rsp 16 +
STACK CFI 687f6 $rbp: $rbp .cfa: $rsp 8 +
STACK CFI 68800 $rbp: .cfa -16 + ^ $rbx: .cfa -24 + ^ .cfa: $rsp 48 +
STACK CFI 688f8 .cfa: $rsp 24 +
STACK CFI 688f9 $rbx: $rbx .cfa: $rsp 16 +
STACK CFI 688fa $rbp: $rbp .cfa: $rsp 8 +
STACK CFI 68900 $rbp: .cfa -16 + ^ $rbx: .cfa -24 + ^ .cfa: $rsp 48 +
STACK CFI INIT 68930 cb .cfa: $rsp 8 + .ra: .cfa -8 + ^
STACK CFI 68931 $rbp: .cfa -16 + ^ .cfa: $rsp 16 +
STACK CFI 68932 $rbx: .cfa -24 + ^ .cfa: $rsp 24 +
STACK CFI 68939 .cfa: $rsp 32 +
STACK CFI 689ec .cfa: $rsp 24 +
STACK CFI 689ed .cfa: $rsp 16 +
STACK CFI 689ee .cfa: $rsp 8 +
STACK CFI 689ef .cfa: $rsp 32 +
STACK CFI INIT 68a00 1f9 .cfa: $rsp 8 + .ra: .cfa -8 + ^
STACK CFI 68a02 $r12: .cfa -16 + ^ .cfa: $rsp 16 +
STACK CFI 68a03 $rbp: .cfa -24 + ^ .cfa: $rsp 24 +
STACK CFI 68a04 $rbx: .cfa -32 + ^ .cfa: $rsp 32 +
STACK CFI 68a0b .cfa: $rsp 48 +
STACK CFI 68b5b .cfa: $rsp 32 +
STACK CFI 68b5c .cfa: $rsp 24 +
STACK CFI 68b5d .cfa: $rsp 16 +
STACK CFI 68b5f .cfa: $rsp 8 +
STACK CFI 68b60 .cfa: $rsp 48 +
STACK CFI INIT 68c00 fb .cfa: $rsp 8 + .ra: .cfa -8 + ^
STACK CFI 68c01 $rbx: .cfa -16 + ^ .cfa: $rsp 16 +
STACK CFI 68c08 .cfa: $rsp 80 +
STACK CFI 68ced .cfa: $rsp 16 +
STACK CFI 68cee .cfa: $rsp 8 +
STACK CFI 68cef .cfa: $rsp 80 +
STACK CFI INIT 68d00 152 .cfa: $rsp 8 + .ra: .cfa -8 + ^
STACK CFI 68d02 $r15: .cfa -16 + ^ .cfa: $rsp 16 +
STACK CFI 68d04 $r14: .cfa -24 + ^ .cfa: $rsp 24 +
STACK CFI 68d06 $r13: .cfa -32 + ^ .cfa: $rsp 32 +
STACK CFI 68d0b $r12: .cfa -40 + ^ .cfa: $rsp 40 +
STACK CFI 68d0c $rbp: .cfa -48 + ^ .cfa: $rsp 48 +
STACK CFI 68d10 $rbx: .cfa -56 + ^ .cfa: $rsp 56 +
STACK CFI 68d17 .cfa: $rsp 112 +
STACK CFI 68e38 .cfa: $rsp 56 +
STACK CFI 68e39 .cfa: $rsp 48 +
STACK CFI 68e3a .cfa: $rsp 40 +
STACK CFI 68e3c .cfa: $rsp 32 +
STACK CFI 68e3e .cfa: $rsp 24 +
STACK CFI 68e40 .cfa: $rsp 16 +
STACK CFI 68e42 .cfa: $rsp 8 +
STACK CFI 68e43 .cfa: $rsp 112 +
STACK CFI INIT 68e60 1c4 .cfa: $rsp 8 + .ra: .cfa -8 + ^
STACK CFI 68e62 $r15: .cfa -16 + ^ .cfa: $rsp 16 +
STACK CFI 68e64 $r14: .cfa -24 + ^ .cfa: $rsp 24 +
STACK CFI 68e66 $r13: .cfa -32 + ^ .cfa: $rsp 32 +
STACK CFI 68e68 $r12: .cfa -40 + ^ .cfa: $rsp 40 +
STACK CFI 68e6c $rbp: .cfa -48 + ^ .cfa: $rsp 48 +
STACK CFI 68e70 $rbx: .cfa -56 + ^ .cfa: $rsp 56 +
STACK CFI 68e77 .cfa: $rsp 112 +
STACK CFI 68fe8 .cfa: $rsp 56 +
STACK CFI 68fe9 .cfa: $rsp 48 +
STACK CFI 68fea .cfa: $rsp 40 +
STACK CFI 68fec .cfa: $rsp 32 +
STACK CFI 68fee .cfa: $rsp 24 +
STACK CFI 68ff0 .cfa: $rsp 16 +
STACK CFI 68ff2 .cfa: $rsp 8 +
STACK CFI 68ff3 .cfa: $rsp 112 +
STACK CFI INIT 69030 207 .cfa: $rsp 8 + .ra: .cfa -8 + ^
STACK CFI 69032 $r15: .cfa -16 + ^ .cfa: $rsp 16 +
STACK CFI 69034 $r14: .cfa -24 + ^ .cfa: $rsp 24 +
STACK CFI 69036 $r13: .cfa -32 + ^ .cfa: $rsp 32 +
STACK CFI 6903b $r12: .cfa -40 + ^ .cfa: $rsp 40 +
STACK CFI 6903f $rbp: .cfa -48 + ^ .cfa: $rsp 48 +
STACK CFI 69043 $rbx: .cfa -56 + ^ .cfa: $rsp 56 +
